 Rainbow

 Timestamp is 68b8d913 (Wed Sep 03 20:10:59 2025)

 Preferred load address is 10000000

 Start         Length     Name                   Class
 0001:00000000 000590eaH .text                   CODE
 0001:000590f0 000049cdH .text$x                 CODE
 0002:00000000 00000230H .idata$5                DATA
 0002:00000230 00001f48H .rdata                  DATA
 0002:00002178 00001684H .rdata$r                DATA
 0002:00003800 00005c48H .xdata$x                DATA
 0002:00009448 00000064H .idata$2                DATA
 0002:000094ac 00000014H .idata$3                DATA
 0002:000094c0 00000230H .idata$4                DATA
 0002:000096f0 000008a6H .idata$6                DATA
 0002:00009fa0 0000004eH .edata                  DATA
 0003:00000000 00000004H .CRT$XCA                DATA
 0003:00000004 0000004cH .CRT$XCU                DATA
 0003:00000050 00000004H .CRT$XCZ                DATA
 0003:00000054 00000004H .CRT$XIA                DATA
 0003:00000058 0000000cH .CRT$XIC                DATA
 0003:00000064 00000004H .CRT$XIY                DATA
 0003:00000068 00000004H .CRT$XIZ                DATA
 0003:0000006c 00000004H .CRT$XPA                DATA
 0003:00000070 00000004H .CRT$XPX                DATA
 0003:00000074 00000004H .CRT$XPZ                DATA
 0003:00000078 00000004H .CRT$XTA                DATA
 0003:0000007c 00000004H .CRT$XTB                DATA
 0003:00000080 00000004H .CRT$XTZ                DATA
 0003:00000090 00006054H .data                   DATA
 0003:000060e8 00002decH .bss                    DATA
 0004:00000000 00000020H STLPORT_NO_INIT         DATA

  Address         Publics by Value              Rva+Base     Lib:Object

 0001:00000000       _DllMain@12                10001000 f   Rainbow.obj
 0001:00000010       _CreateInterface@8         10001010 f   ClientStage.obj
 0001:00000090       ??0CGameClient@@QAE@IIII@Z 10001090 f   ClientStage.obj
 0001:00000160       ??_ECGameClient@@UAEPAXI@Z 10001160 f i ClientStage.obj
 0001:00000160       ??_GCGameClient@@UAEPAXI@Z 10001160 f i ClientStage.obj
 0001:00000190       ??1CGameClient@@UAE@XZ     10001190 f   ClientStage.obj
 0001:00000230       ?Startup@CGameClient@@UAGJXZ 10001230 f   ClientStage.obj
 0001:000003a0       ?Cleanup@CGameClient@@UAGJXZ 100013a0 f   ClientStage.obj
 0001:00000510       ?ConnectTo@CGameClient@@UAGJABQBDG@Z 10001510 f   ClientStage.obj
 0001:000006b0       ?RegisterMsgFilter@CGameClient@@UAGJPAXP6GX0ABK@Z@Z 100016b0 f   ClientStage.obj
 0001:000006d0       ?SendPackToServer@CGameClient@@UAGJQBXABI@Z 100016d0 f   ClientStage.obj
 0001:00000760       ?GetPackFromServer@CGameClient@@UAGPBXAAI@Z 10001760 f   ClientStage.obj
 0001:000007f0       ?Shutdown@CGameClient@@UAGJXZ 100017f0 f   ClientStage.obj
 0001:00000810       ?QueryInterface@CGameClient@@UAGJABU_GUID@@PAPAX@Z 10001810 f   ClientStage.obj
 0001:00000870       ?AddRef@CGameClient@@UAGKXZ 10001870 f   ClientStage.obj
 0001:00000890       ?Release@CGameClient@@UAGKXZ 10001890 f   ClientStage.obj
 0001:000008d0       ?ProcessCommand@CGameClient@@IAEXPBVCIOBuffer@Win32@OnlineGameLib@@@Z 100018d0 f   ClientStage.obj
 0001:00000920       ?GetMinimumMessageSize@CGameClient@@IBEIXZ 10001920 f   ClientStage.obj
 0001:00000930       ?GetMessageSize@CGameClient@@IBEIPBVCIOBuffer@Win32@OnlineGameLib@@@Z 10001930 f   ClientStage.obj
 0001:00000940       ?ProcessDataStream@CGameClient@@IAEPAVCIOBuffer@Win32@OnlineGameLib@@PAV234@@Z 10001940 f   ClientStage.obj
 0001:00000bc0       ?OnStartConnections@CGameClient@@EAEXXZ 10001bc0 f   ClientStage.obj
 0001:00000bf0       ?OnStopConnections@CGameClient@@EAEXXZ 10001bf0 f   ClientStage.obj
 0001:00000c20       ?ReadCompleted@CGameClient@@EAEXPAVCIOBuffer@Win32@OnlineGameLib@@@Z 10001c20 f   ClientStage.obj
 0001:00000dc0       ??0CClientFactory@@QAE@XZ  10001dc0 f   ClientStage.obj
 0001:00000de0       ??_GCClientFactory@@UAEPAXI@Z 10001de0 f i ClientStage.obj
 0001:00000de0       ??_ECClientFactory@@UAEPAXI@Z 10001de0 f i ClientStage.obj
 0001:00000e00       ??1CClientFactory@@UAE@XZ  10001e00 f   ClientStage.obj
 0001:00000e10       ?SetEnvironment@CClientFactory@@UAGJABI@Z 10001e10 f   ClientStage.obj
 0001:00000e30       ?CreateClientInterface@CClientFactory@@UAGJABU_GUID@@PAPAX@Z 10001e30 f   ClientStage.obj
 0001:00000ef0       ?QueryInterface@CClientFactory@@UAGJABU_GUID@@PAPAX@Z 10001ef0 f   ClientStage.obj
 0001:00000f50       ?AddRef@CClientFactory@@UAGKXZ 10001f50 f   ClientStage.obj
 0001:00000f70       ?Release@CClientFactory@@UAGKXZ 10001f70 f   ClientStage.obj
 0001:00000fa0       ??1?$basic_string@DV?$char_traits@D@_STL@@V?$allocator@D@2@@_STL@@QAE@XZ 10001fa0 f i ClientStage.obj
 0001:00001010       ??1?$allocator@D@_STL@@QAE@XZ 10002010 f i ClientStage.obj
 0001:00001020       ??1?$_String_base@DV?$allocator@D@_STL@@@_STL@@QAE@XZ 10002020 f i ClientStage.obj
 0001:00001090       ??1?$_STLP_alloc_proxy@PADDV?$allocator@D@_STL@@@_STL@@QAE@XZ 10002090 f i ClientStage.obj
 0001:000010a0       ?_M_deallocate_block@?$_String_base@DV?$allocator@D@_STL@@@_STL@@QAEXXZ 100020a0 f i ClientStage.obj
 0001:000010d0       ??0?$basic_string@DV?$char_traits@D@_STL@@V?$allocator@D@2@@_STL@@QAE@PBDABV?$allocator@D@1@@Z 100020d0 f i ClientStage.obj
 0001:000011a0       ??H_STL@@YA?AV?$basic_string@DV?$char_traits@D@_STL@@V?$allocator@D@2@@0@PBDABV10@@Z 100021a0 f i ClientStage.obj
 0001:000012e0       ?deallocate@?$__node_alloc@$00$0A@@_STL@@SAXPAXI@Z 100022e0 f i ClientStage.obj
 0001:00001310       ??H_STL@@YA?AV?$basic_string@DV?$char_traits@D@_STL@@V?$allocator@D@2@@0@ABV10@PBD@Z 10002310 f i ClientStage.obj
 0001:00001450       ??H_STL@@YA?AV?$basic_string@DV?$char_traits@D@_STL@@V?$allocator@D@2@@0@ABV10@0@Z 10002450 f i ClientStage.obj
 0001:00001590       ?get_allocator@?$basic_string@DV?$char_traits@D@_STL@@V?$allocator@D@2@@_STL@@QBE?AV?$allocator@D@2@XZ 10002590 f i ClientStage.obj
 0001:000015b0       ??0?$_String_base@DV?$allocator@D@_STL@@@_STL@@QAE@ABV?$allocator@D@1@@Z 100025b0 f i ClientStage.obj
 0001:000015c0       ??0?$_STLP_alloc_proxy@PADDV?$allocator@D@_STL@@@_STL@@QAE@ABV?$allocator@D@1@PAD@Z 100025c0 f i ClientStage.obj
 0001:000015d0       ?_M_allocate_block@?$_String_base@DV?$allocator@D@_STL@@@_STL@@QAEXI@Z 100025d0 f i ClientStage.obj
 0001:00001630       ?_M_range_initialize@?$basic_string@DV?$char_traits@D@_STL@@V?$allocator@D@2@@_STL@@AAEXPBD0@Z 10002630 f i ClientStage.obj
 0001:000016b0       ?_M_range_initialize@?$basic_string@DV?$char_traits@D@_STL@@V?$allocator@D@2@@_STL@@AAEXPBD0ABUforward_iterator_tag@2@@Z 100026b0 f i ClientStage.obj
 0001:00001730       ?_M_range_initialize@?$basic_string@DV?$char_traits@D@_STL@@V?$allocator@D@2@@_STL@@AAEXPAD0ABUforward_iterator_tag@2@@Z 10002730 f i ClientStage.obj
 0001:000017b0       ?append@?$basic_string@DV?$char_traits@D@_STL@@V?$allocator@D@2@@_STL@@AAEAAV12@PBD0ABUforward_iterator_tag@2@@Z 100027b0 f i ClientStage.obj
 0001:00001940       ?append@?$basic_string@DV?$char_traits@D@_STL@@V?$allocator@D@2@@_STL@@AAEAAV12@PAD0ABUforward_iterator_tag@2@@Z 10002940 f i ClientStage.obj
 0001:00001ae0       ?uninitialized_copy@_STL@@YAPADPAD00@Z 10002ae0 f i ClientStage.obj
 0001:00001b10       ?__copy_ptrs@_STL@@YAPADPAD00ABU__false_type@1@@Z 10002b10 f i ClientStage.obj
 0001:00001b40       ??_ECGameClient@@W7AEPAXI@Z 10002b40 f i ClientStage.obj
 0001:00001b50       ??1CCriticalSection@Win32@OnlineGameLib@@QAE@XZ 10002b50 f i ClientStage.obj
 0001:00001b60       ??1Owner@CCriticalSection@Win32@OnlineGameLib@@QAE@XZ 10002b60 f i ClientStage.obj
 0001:00001b70       ?OnBufferCreated@Allocator@CIOBuffer@Win32@OnlineGameLib@@EAEXXZ 10002b70 f i ClientStage.obj
 0001:00001b80       ?OnBufferAllocated@Allocator@CIOBuffer@Win32@OnlineGameLib@@EAEXXZ 10002b80 f i ClientStage.obj
 0001:00001b90       ?OnBufferReleased@Allocator@CIOBuffer@Win32@OnlineGameLib@@EAEXXZ 10002b90 f i ClientStage.obj
 0001:00001ba0       ?OnShutdownInitiated@CSocketClient@Win32@OnlineGameLib@@EAEXXZ 10002ba0 f i ClientStage.obj
 0001:00001bb0       ?OnShutdownComplete@CSocketClient@Win32@OnlineGameLib@@EAEXXZ 10002bb0 f i ClientStage.obj
 0001:00001bc0       ?OnConnect@CSocketClient@Win32@OnlineGameLib@@EAEXXZ 10002bc0 f i ClientStage.obj
 0001:00001bd0       ?OnClose@CSocketClient@Win32@OnlineGameLib@@EAEXXZ 10002bd0 f i ClientStage.obj
 0001:00001be0       ?OnWrite@CSocketClient@Win32@OnlineGameLib@@EAEXXZ 10002be0 f i ClientStage.obj
 0001:00001bf0       _InitializeCriticalSection@4 10002bf0 f   kernel32:KERNEL32.dll
 0001:00001bf6       _DeleteCriticalSection@4   10002bf6 f   kernel32:KERNEL32.dll
 0001:00001bfc       _LeaveCriticalSection@4    10002bfc f   kernel32:KERNEL32.dll
 0001:00001c02       _EnterCriticalSection@4    10002c02 f   kernel32:KERNEL32.dll
 0001:00001c08       _InterlockedIncrement@4    10002c08 f   kernel32:KERNEL32.dll
 0001:00001c0e       _InterlockedDecrement@4    10002c0e f   kernel32:KERNEL32.dll
 0001:00001c20       ??0CSocketClient@Win32@OnlineGameLib@@IAE@ABV?$basic_string@DV?$char_traits@D@_STL@@V?$allocator@D@2@@_STL@@GII@Z 10002c20 f   common:SocketClient.obj
 0001:00001d90       ?OnStartConnections@CSocketClient@Win32@OnlineGameLib@@EAEXXZ 10002d90 f i common:SocketClient.obj
 0001:00001da0       ?OnStopConnections@CSocketClient@Win32@OnlineGameLib@@EAEXXZ 10002da0 f i common:SocketClient.obj
 0001:00001db0       ??_ECSocketClient@Win32@OnlineGameLib@@UAEPAXI@Z 10002db0 f i common:SocketClient.obj
 0001:00001db0       ??_GCSocketClient@Win32@OnlineGameLib@@UAEPAXI@Z 10002db0 f i common:SocketClient.obj
 0001:00001dd0       ??1CManualResetEvent@Win32@OnlineGameLib@@UAE@XZ 10002dd0 f i common:SocketClient.obj
 0001:00001de0       ??0CSocketClient@Win32@OnlineGameLib@@IAE@II@Z 10002de0 f   common:SocketClient.obj
 0001:00001ed0       ?Connect@CSocketClient@Win32@OnlineGameLib@@QAEXABV?$basic_string@DV?$char_traits@D@_STL@@V?$allocator@D@2@@_STL@@G@Z 10002ed0 f   common:SocketClient.obj
 0001:00001f90       ??1CSocketClient@Win32@OnlineGameLib@@UAE@XZ 10002f90 f   common:SocketClient.obj
 0001:00002090       ?StartConnections@CSocketClient@Win32@OnlineGameLib@@QAE_NXZ 10003090 f   common:SocketClient.obj
 0001:00002150       ?StopConnections@CSocketClient@Win32@OnlineGameLib@@QAEXXZ 10003150 f   common:SocketClient.obj
 0001:000022f0       ?CreateConnectionSocket@CSocketClient@Win32@OnlineGameLib@@EAEIABV?$basic_string@DV?$char_traits@D@_STL@@V?$allocator@D@2@@_STL@@G@Z 100032f0 f   common:SocketClient.obj
 0001:00002410       ?__copy_trivial@_STL@@YAPAXPBX0PAX@Z 10003410 f i common:SocketClient.obj
 0001:00002440       ??1CWin32Exception@Win32@OnlineGameLib@@UAE@XZ 10003440 f i common:SocketClient.obj
 0001:00002500       ??_GCException@Win32@OnlineGameLib@@UAEPAXI@Z 10003500 f i common:SocketClient.obj
 0001:00002500       ??_ECException@Win32@OnlineGameLib@@UAEPAXI@Z 10003500 f i common:SocketClient.obj
 0001:00002520       ??1CException@Win32@OnlineGameLib@@UAE@XZ 10003520 f i common:SocketClient.obj
 0001:000025e0       ??0CWin32Exception@Win32@OnlineGameLib@@QAE@ABV012@@Z 100035e0 f i common:SocketClient.obj
 0001:00002720       ?__stl_new@_STL@@YAPAXI@Z  10003720 f i common:SocketClient.obj
 0001:00002730       ??0CException@Win32@OnlineGameLib@@QAE@ABV012@@Z 10003730 f i common:SocketClient.obj
 0001:00002870       ??_GCWin32Exception@Win32@OnlineGameLib@@UAEPAXI@Z 10003870 f i common:SocketClient.obj
 0001:00002870       ??_ECWin32Exception@Win32@OnlineGameLib@@UAEPAXI@Z 10003870 f i common:SocketClient.obj
 0001:00002890       ?InitiateShutdown@CSocketClient@Win32@OnlineGameLib@@QAEXXZ 10003890 f   common:SocketClient.obj
 0001:000028b0       ?WaitForShutdownToComplete@CSocketClient@Win32@OnlineGameLib@@QAEXXZ 100038b0 f   common:SocketClient.obj
 0001:000028d0       ?Run@CSocketClient@Win32@OnlineGameLib@@MAEHXZ 100038d0 f   common:SocketClient.obj
 0001:00002be0       ?ReleaseBuffers@CSocketClient@Win32@OnlineGameLib@@IAEXXZ 10003be0 f   common:SocketClient.obj
 0001:00002bf0       ?OnError@CSocketClient@Win32@OnlineGameLib@@EAEXABV?$basic_string@DV?$char_traits@D@_STL@@V?$allocator@D@2@@_STL@@@Z 10003bf0 f   common:SocketClient.obj
 0001:00002c00       ?OnRead@CSocketClient@Win32@OnlineGameLib@@AAEXPAVCIOBuffer@23@@Z 10003c00 f   common:SocketClient.obj
 0001:00002d60       ?Write@CSocketClient@Win32@OnlineGameLib@@QAEXPBDI@Z 10003d60 f   common:SocketClient.obj
 0001:00002db0       ?Write@CSocketClient@Win32@OnlineGameLib@@QAEXPAVCIOBuffer@23@@Z 10003db0 f   common:SocketClient.obj
 0001:00003060       ?WaitAndVerifyCipher@CSocketClient@Win32@OnlineGameLib@@IAE_NXZ 10004060 f   common:SocketClient.obj
 0001:00003270       ?deallocate@?$_STLP_alloc_proxy@PADDV?$allocator@D@_STL@@@_STL@@QAEXPADI@Z 10004270 f i common:SocketClient.obj
 0001:000032a0       ?deallocate@?$allocator@D@_STL@@QBEXPADI@Z 100042a0 f i common:SocketClient.obj
 0001:000032d0       ?__copy_aux@_STL@@YAPADPAD00ABU__true_type@1@@Z 100042d0 f i common:SocketClient.obj
 0001:00003300       ??_ECSocketClient@Win32@OnlineGameLib@@W7AEPAXI@Z 10004300 f i common:SocketClient.obj
 0001:00003310       ??0CIOBuffer@Win32@OnlineGameLib@@AAE@AAVAllocator@012@I@Z 10004310 f   common:IOBuffer.obj
 0001:000033a0       ??1COpaqueUserData@OnlineGameLib@@IAE@XZ 100043a0 f i common:IOBuffer.obj
 0001:000033b0       ??1CIOBuffer@Win32@OnlineGameLib@@AAE@XZ 100043b0 f   common:IOBuffer.obj
 0001:00003420       ?Empty@CIOBuffer@Win32@OnlineGameLib@@QAEXXZ 10004420 f   common:IOBuffer.obj
 0001:00003440       ??2CIOBuffer@Win32@OnlineGameLib@@CAPAXII@Z 10004440 f   common:IOBuffer.obj
 0001:00003450       ??3CIOBuffer@Win32@OnlineGameLib@@CAXPAXI@Z 10004450 f   common:IOBuffer.obj
 0001:00003460       ?SplitBuffer@CIOBuffer@Win32@OnlineGameLib@@QAEPAV123@I@Z 10004460 f   common:IOBuffer.obj
 0001:000034b0       ?RemoveBuffer@CIOBuffer@Win32@OnlineGameLib@@QAEXI@Z 100044b0 f   common:IOBuffer.obj
 0001:000034e0       ?AllocateNewBuffer@CIOBuffer@Win32@OnlineGameLib@@QBEPAV123@XZ 100044e0 f   common:IOBuffer.obj
 0001:000034f0       ?AddData@CIOBuffer@Win32@OnlineGameLib@@QAEXQBDI@Z 100044f0 f   common:IOBuffer.obj
 0001:00003630       ?AddData@CIOBuffer@Win32@OnlineGameLib@@QAEXQBEI@Z 10004630 f   common:IOBuffer.obj
 0001:00003650       ?AddData@CIOBuffer@Win32@OnlineGameLib@@QAEXE@Z 10004650 f   common:IOBuffer.obj
 0001:00003660       ?Release@CIOBuffer@Win32@OnlineGameLib@@QAEXXZ 10004660 f   common:IOBuffer.obj
 0001:00003790       ??0Allocator@CIOBuffer@Win32@OnlineGameLib@@QAE@II@Z 10004790 f   common:IOBuffer.obj
 0001:000037d0       ??_EAllocator@CIOBuffer@Win32@OnlineGameLib@@UAEPAXI@Z 100047d0 f i common:IOBuffer.obj
 0001:000037d0       ??_GAllocator@CIOBuffer@Win32@OnlineGameLib@@UAEPAXI@Z 100047d0 f i common:IOBuffer.obj
 0001:000037f0       ??1Allocator@CIOBuffer@Win32@OnlineGameLib@@UAE@XZ 100047f0 f   common:IOBuffer.obj
 0001:00003860       ?Allocate@Allocator@CIOBuffer@Win32@OnlineGameLib@@QAEPAV234@XZ 10004860 f   common:IOBuffer.obj
 0001:00003a10       ?Release@Allocator@CIOBuffer@Win32@OnlineGameLib@@AAEXPAV234@@Z 10004a10 f   common:IOBuffer.obj
 0001:00003b60       ?DestroyBuffer@Allocator@CIOBuffer@Win32@OnlineGameLib@@AAEXPAV234@@Z 10004b60 f   common:IOBuffer.obj
 0001:00003bc0       ?Flush@Allocator@CIOBuffer@Win32@OnlineGameLib@@IAEXXZ 10004bc0 f   common:IOBuffer.obj
 0001:00003c70       ??0InOrderBufferList@CIOBuffer@Win32@OnlineGameLib@@QAE@AAVCCriticalSection@23@@Z 10004c70 f   common:IOBuffer.obj
 0001:00003d00       ?AddBuffer@InOrderBufferList@CIOBuffer@Win32@OnlineGameLib@@QAEXPAV234@@Z 10004d00 f   common:IOBuffer.obj
 0001:00003d70       ?ProcessAndGetNext@InOrderBufferList@CIOBuffer@Win32@OnlineGameLib@@QAEPAV234@XZ 10004d70 f   common:IOBuffer.obj
 0001:00003df0       ?GetNext@InOrderBufferList@CIOBuffer@Win32@OnlineGameLib@@QAEPAV234@XZ 10004df0 f   common:IOBuffer.obj
 0001:00003e70       ?GetNext@InOrderBufferList@CIOBuffer@Win32@OnlineGameLib@@QAEPAV234@PAV234@@Z 10004e70 f   common:IOBuffer.obj
 0001:00003f20       ?ProcessBuffer@InOrderBufferList@CIOBuffer@Win32@OnlineGameLib@@QAEXXZ 10004f20 f   common:IOBuffer.obj
 0001:00003f40       ?Reset@InOrderBufferList@CIOBuffer@Win32@OnlineGameLib@@QAEXXZ 10004f40 f   common:IOBuffer.obj
 0001:00003f50       ?erase@?$map@IPAVCIOBuffer@Win32@OnlineGameLib@@U?$less@I@_STL@@V?$allocator@U?$pair@$$CBIPAVCIOBuffer@Win32@OnlineGameLib@@@_STL@@@5@@_STL@@QAEXU?$_Rb_tree_iterator@U?$pair@$$CBIPAVCIOBuffer@Win32@OnlineGameLib@@@_STL@@U?$_Nonconst_traits@U?$pair@$$CBIPAVCIOBuffer@Win32@OnlineGameLib@@@_STL@@@2@@2@@Z 10004f50 f i common:IOBuffer.obj
 0001:00003f70       ?erase@?$_Rb_tree@IU?$pair@$$CBIPAVCIOBuffer@Win32@OnlineGameLib@@@_STL@@U?$_Select1st@U?$pair@$$CBIPAVCIOBuffer@Win32@OnlineGameLib@@@_STL@@@2@U?$less@I@2@V?$allocator@U?$pair@$$CBIPAVCIOBuffer@Win32@OnlineGameLib@@@_STL@@@2@@_STL@@QAEXU?$_Rb_tree_iterator@U?$pair@$$CBIPAVCIOBuffer@Win32@OnlineGameLib@@@_STL@@U?$_Nonconst_traits@U?$pair@$$CBIPAVCIOBuffer@Win32@OnlineGameLib@@@_STL@@@2@@2@@Z 10004f70 f i common:IOBuffer.obj
 0001:00003fb0       ??1?$allocator@U?$pair@$$CBIPAVCIOBuffer@Win32@OnlineGameLib@@@_STL@@@_STL@@QAE@XZ 10004fb0 f i common:IOBuffer.obj
 0001:00003fc0       ??1?$_STLP_alloc_proxy@PAU?$_Rb_tree_node@U?$pair@$$CBIPAVCIOBuffer@Win32@OnlineGameLib@@@_STL@@@_STL@@U12@V?$allocator@U?$pair@$$CBIPAVCIOBuffer@Win32@OnlineGameLib@@@_STL@@@2@@_STL@@QAE@XZ 10004fc0 f i common:IOBuffer.obj
 0001:00003fd0       ?insert_unique@?$_Rb_tree@IU?$pair@$$CBIPAVCIOBuffer@Win32@OnlineGameLib@@@_STL@@U?$_Select1st@U?$pair@$$CBIPAVCIOBuffer@Win32@OnlineGameLib@@@_STL@@@2@U?$less@I@2@V?$allocator@U?$pair@$$CBIPAVCIOBuffer@Win32@OnlineGameLib@@@_STL@@@2@@_STL@@QAE?AU?$pair@U?$_Rb_tree_iterator@U?$pair@$$CBIPAVCIOBuffer@Win32@OnlineGameLib@@@_STL@@U?$_Nonconst_traits@U?$pair@$$CBIPAVCIOBuffer@Win32@OnlineGameLib@@@_STL@@@2@@_STL@@_N@2@ABU?$pair@$$CBIPAVCIOBuffer@Win32@OnlineGameLib@@@2@@Z 10004fd0 f i common:IOBuffer.obj
 0001:00004160       ??0?$pair@U?$_Rb_tree_iterator@U?$pair@$$CBIPAVCIOBuffer@Win32@OnlineGameLib@@@_STL@@U?$_Nonconst_traits@U?$pair@$$CBIPAVCIOBuffer@Win32@OnlineGameLib@@@_STL@@@2@@_STL@@_N@_STL@@QAE@ABU01@@Z 10005160 f i common:IOBuffer.obj
 0001:00004180       ?_M_create_node@?$_Rb_tree@IU?$pair@$$CBIPAVCIOBuffer@Win32@OnlineGameLib@@@_STL@@U?$_Select1st@U?$pair@$$CBIPAVCIOBuffer@Win32@OnlineGameLib@@@_STL@@@2@U?$less@I@2@V?$allocator@U?$pair@$$CBIPAVCIOBuffer@Win32@OnlineGameLib@@@_STL@@@2@@_STL@@IAEPAU?$_Rb_tree_node@U?$pair@$$CBIPAVCIOBuffer@Win32@OnlineGameLib@@@_STL@@@2@ABU?$pair@$$CBIPAVCIOBuffer@Win32@OnlineGameLib@@@2@@Z 10005180 f i common:IOBuffer.obj
 0001:000043d0       ?SetLogFileName@Win32@OnlineGameLib@@YAXABV?$basic_string@DV?$char_traits@D@_STL@@V?$allocator@D@2@@_STL@@@Z 100053d0 f   common:Utils.obj
 0001:000044e0       ?Message@Win32@OnlineGameLib@@YAXQBD@Z 100054e0 f   common:Utils.obj
 0001:00004510       ?Output@Win32@OnlineGameLib@@YAXABV?$basic_string@DV?$char_traits@D@_STL@@V?$allocator@D@2@@_STL@@@Z 10005510 f   common:Utils.obj
 0001:00004520       ?Trace@Win32@OnlineGameLib@@YAXABV?$basic_string@DV?$char_traits@D@_STL@@V?$allocator@D@2@@_STL@@0@Z 10005520 f   common:Utils.obj
 0001:00004530       ?GetLastErrorMessage@Win32@OnlineGameLib@@YA?AV?$basic_string@DV?$char_traits@D@_STL@@V?$allocator@D@2@@_STL@@K@Z 10005530 f   common:Utils.obj
 0001:00004670       ?HexToString@Win32@OnlineGameLib@@YA?AV?$basic_string@DV?$char_traits@D@_STL@@V?$allocator@D@2@@_STL@@PBEI@Z 10005670 f   common:Utils.obj
 0001:00004850       ?StringToHex@Win32@OnlineGameLib@@YAXABV?$basic_string@DV?$char_traits@D@_STL@@V?$allocator@D@2@@_STL@@PAEI@Z 10005850 f   common:Utils.obj
 0001:00004990       ?HexStringToDWORD@Win32@OnlineGameLib@@YAKPBD@Z 10005990 f   common:Utils.obj
 0001:000049f0       ?HashStr2ID@Win32@OnlineGameLib@@YAKQBD@Z 100059f0 f   common:Utils.obj
 0001:00004a40       ?net_aton@Win32@OnlineGameLib@@YAKPBD@Z 10005a40 f   common:Utils.obj
 0001:00004ad0       ?net_ntoa@Win32@OnlineGameLib@@YAPBDK@Z 10005ad0 f   common:Utils.obj
 0001:00004b10       ?GetCurrentDirectoryA@Win32@OnlineGameLib@@YA?AV?$basic_string@DV?$char_traits@D@_STL@@V?$allocator@D@2@@_STL@@XZ 10005b10 f   common:Utils.obj
 0001:00004c80       ?GetAppFullPath@Win32@OnlineGameLib@@YA?AV?$basic_string@DV?$char_traits@D@_STL@@V?$allocator@D@2@@_STL@@PAUHINSTANCE__@@@Z 10005c80 f   common:Utils.obj
 0001:00004ed0       ?GetDateStamp@Win32@OnlineGameLib@@YA?AV?$basic_string@DV?$char_traits@D@_STL@@V?$allocator@D@2@@_STL@@XZ 10005ed0 f   common:Utils.obj
 0001:00004ff0       ?GetTimeStamp@Win32@OnlineGameLib@@YA?AV?$basic_string@DV?$char_traits@D@_STL@@V?$allocator@D@2@@_STL@@XZ 10005ff0 f   common:Utils.obj
 0001:00005110       ?ToHex@Win32@OnlineGameLib@@YA?AV?$basic_string@DV?$char_traits@D@_STL@@V?$allocator@D@2@@_STL@@E@Z 10006110 f   common:Utils.obj
 0001:00005200       ?DumpData@Win32@OnlineGameLib@@YA?AV?$basic_string@DV?$char_traits@D@_STL@@V?$allocator@D@2@@_STL@@QBEII@Z 10006200 f   common:Utils.obj
 0001:00005520       ?GetComputerNameA@Win32@OnlineGameLib@@YA?AV?$basic_string@DV?$char_traits@D@_STL@@V?$allocator@D@2@@_STL@@XZ 10006520 f   common:Utils.obj
 0001:00005740       ?GetModuleFileNameA@Win32@OnlineGameLib@@YA?AV?$basic_string@DV?$char_traits@D@_STL@@V?$allocator@D@2@@_STL@@PAUHINSTANCE__@@@Z 10006740 f   common:Utils.obj
 0001:00005970       ?GetUserNameA@Win32@OnlineGameLib@@YA?AV?$basic_string@DV?$char_traits@D@_STL@@V?$allocator@D@2@@_STL@@XZ 10006970 f   common:Utils.obj
 0001:00005ba0       ?StripLeading@Win32@OnlineGameLib@@YA?AV?$basic_string@DV?$char_traits@D@_STL@@V?$allocator@D@2@@_STL@@ABV34@D@Z 10006ba0 f   common:Utils.obj
 0001:00005c80       ?StripTrailing@Win32@OnlineGameLib@@YA?AV?$basic_string@DV?$char_traits@D@_STL@@V?$allocator@D@2@@_STL@@ABV34@D@Z 10006c80 f   common:Utils.obj
 0001:00005cc0       ?GetFileVersion@Win32@OnlineGameLib@@YA?AV?$basic_string@DV?$char_traits@D@_STL@@V?$allocator@D@2@@_STL@@XZ 10006cc0 f   common:Utils.obj
 0001:00005fb0       ?GetLocalName@Win32@OnlineGameLib@@YA_NPADI@Z 10006fb0 f   common:Utils.obj
 0001:000060b0       ?GetLocalAddress@Win32@OnlineGameLib@@YA_NPADIH@Z 100070b0 f   common:Utils.obj
 0001:000061e0       ??4?$basic_string@DV?$char_traits@D@_STL@@V?$allocator@D@2@@_STL@@QAEAAV01@PBD@Z 100071e0 f i common:Utils.obj
 0001:00006290       ?substr@?$basic_string@DV?$char_traits@D@_STL@@V?$allocator@D@2@@_STL@@QBE?AV12@II@Z 10007290 f i common:Utils.obj
 0001:000063a0       ??1?$basic_ios@DV?$char_traits@D@_STL@@@_STL@@UAE@XZ 100073a0 f i common:Utils.obj
 0001:000063b0       ??0?$basic_fstream@DV?$char_traits@D@_STL@@@_STL@@QAE@XZ 100073b0 f i common:Utils.obj
 0001:00006590       ??1_STLP_mutex@_STL@@QAE@XZ 10007590 f i common:Utils.obj
 0001:000065a0       ?_FILE_I_set@_STL@@YAXPAU_iobuf@@PAD11@Z 100075a0 f i common:Utils.obj
 0001:000065c0       ??_G?$basic_streambuf@DV?$char_traits@D@_STL@@@_STL@@UAEPAXI@Z 100075c0 f i common:Utils.obj
 0001:000065c0       ??_E?$basic_streambuf@DV?$char_traits@D@_STL@@@_STL@@UAEPAXI@Z 100075c0 f i common:Utils.obj
 0001:000065e0       ??1?$basic_istream@DV?$char_traits@D@_STL@@@_STL@@UAE@XZ 100075e0 f i common:Utils.obj
 0001:000065f0       ??1?$basic_fstream@DV?$char_traits@D@_STL@@@_STL@@UAE@XZ 100075f0 f i common:Utils.obj
 0001:00006770       ??1?$auto_ptr@D@_STL@@QAE@XZ 10007770 f i common:Utils.obj
 0001:00006780       ??1?$auto_ptr@E@_STL@@QAE@XZ 10007780 f i common:Utils.obj
 0001:00006790       ??_E?$basic_ios@DV?$char_traits@D@_STL@@@_STL@@UAEPAXI@Z 10007790 f i common:Utils.obj
 0001:00006790       ??_G?$basic_ios@DV?$char_traits@D@_STL@@@_STL@@UAEPAXI@Z 10007790 f i common:Utils.obj
 0001:000067b0       ??_E?$basic_istream@DV?$char_traits@D@_STL@@@_STL@@UAEPAXI@Z 100077b0 f i common:Utils.obj
 0001:000067b0       ??_G?$basic_istream@DV?$char_traits@D@_STL@@@_STL@@UAEPAXI@Z 100077b0 f i common:Utils.obj
 0001:000067e0       ??_G?$basic_fstream@DV?$char_traits@D@_STL@@@_STL@@UAEPAXI@Z 100077e0 f i common:Utils.obj
 0001:000067e0       ??_E?$basic_fstream@DV?$char_traits@D@_STL@@@_STL@@UAEPAXI@Z 100077e0 f i common:Utils.obj
 0001:00006820       ?append@?$basic_string@DV?$char_traits@D@_STL@@V?$allocator@D@2@@_STL@@QAEAAV12@PBD@Z 10007820 f i common:Utils.obj
 0001:00006860       ?push_back@?$basic_string@DV?$char_traits@D@_STL@@V?$allocator@D@2@@_STL@@QAEXD@Z 10007860 f i common:Utils.obj
 0001:000068c0       ?assign@?$basic_string@DV?$char_traits@D@_STL@@V?$allocator@D@2@@_STL@@QAEAAV12@PBD0@Z 100078c0 f i common:Utils.obj
 0001:00006960       ?move@?$__char_traits_base@DH@_STL@@SAPADPADPBDI@Z 10007960 f i common:Utils.obj
 0001:00006990       ??0?$basic_string@DV?$char_traits@D@_STL@@V?$allocator@D@2@@_STL@@QAE@ABV01@@Z 10007990 f i common:Utils.obj
 0001:00006a50       ?reserve@?$basic_string@DV?$char_traits@D@_STL@@V?$allocator@D@2@@_STL@@QAEXI@Z 10007a50 f i common:Utils.obj
 0001:00006b70       ?init@?$basic_ios@DV?$char_traits@D@_STL@@@_STL@@IAEXPAV?$basic_streambuf@DV?$char_traits@D@_STL@@@2@@Z 10007b70 f i common:Utils.obj
 0001:00006c10       ?_M_check_exception_mask@ios_base@_STL@@IAEXXZ 10007c10 f i common:Utils.obj
 0001:00006c20       ??1?$basic_ostream@DV?$char_traits@D@_STL@@@_STL@@UAE@XZ 10007c20 f i common:Utils.obj
 0001:00006c30       ??1?$basic_iostream@DV?$char_traits@D@_STL@@@_STL@@UAE@XZ 10007c30 f i common:Utils.obj
 0001:00006c70       ??1?$basic_filebuf@DV?$char_traits@D@_STL@@@_STL@@UAE@XZ 10007c70 f i common:Utils.obj
 0001:00006e30       ?close@?$basic_filebuf@DV?$char_traits@D@_STL@@@_STL@@QAEPAV12@XZ 10007e30 f i common:Utils.obj
 0001:00006fb0       ?showmanyc@?$basic_filebuf@DV?$char_traits@D@_STL@@@_STL@@MAEHXZ 10007fb0 f i common:Utils.obj
 0001:00007020       ?underflow@?$basic_filebuf@DV?$char_traits@D@_STL@@@_STL@@MAEHXZ 10008020 f i common:Utils.obj
 0001:00007030       ?pbackfail@?$basic_filebuf@DV?$char_traits@D@_STL@@@_STL@@MAEHH@Z 10008030 f i common:Utils.obj
 0001:00007120       ?overflow@?$basic_filebuf@DV?$char_traits@D@_STL@@@_STL@@MAEHH@Z 10008120 f i common:Utils.obj
 0001:000072e0       ?setbuf@?$basic_filebuf@DV?$char_traits@D@_STL@@@_STL@@MAEPAV?$basic_streambuf@DV?$char_traits@D@_STL@@@2@PADH@Z 100082e0 f i common:Utils.obj
 0001:00007480       ?seekoff@?$basic_filebuf@DV?$char_traits@D@_STL@@@_STL@@MAE?AV?$fpos@H@2@JHH@Z 10008480 f i common:Utils.obj
 0001:00007910       ?count@_STL@@YAHPAD0ABD@Z  10008910 f i common:Utils.obj
 0001:00007940       ?seekpos@?$basic_filebuf@DV?$char_traits@D@_STL@@@_STL@@MAE?AV?$fpos@H@2@V32@H@Z 10008940 f i common:Utils.obj
 0001:00007a50       ?sync@?$basic_filebuf@DV?$char_traits@D@_STL@@@_STL@@MAEHXZ 10008a50 f i common:Utils.obj
 0001:00007a70       ?imbue@?$basic_filebuf@DV?$char_traits@D@_STL@@@_STL@@MAEXABVlocale@2@@Z 10008a70 f i common:Utils.obj
 0001:00007b00       ??_E?$basic_ostream@DV?$char_traits@D@_STL@@@_STL@@UAEPAXI@Z 10008b00 f i common:Utils.obj
 0001:00007b00       ??_G?$basic_ostream@DV?$char_traits@D@_STL@@@_STL@@UAEPAXI@Z 10008b00 f i common:Utils.obj
 0001:00007b30       ??_G?$basic_iostream@DV?$char_traits@D@_STL@@@_STL@@UAEPAXI@Z 10008b30 f i common:Utils.obj
 0001:00007b30       ??_E?$basic_iostream@DV?$char_traits@D@_STL@@@_STL@@UAEPAXI@Z 10008b30 f i common:Utils.obj
 0001:00007b60       ??_G?$basic_filebuf@DV?$char_traits@D@_STL@@@_STL@@UAEPAXI@Z 10008b60 f i common:Utils.obj
 0001:00007b60       ??_E?$basic_filebuf@DV?$char_traits@D@_STL@@@_STL@@UAEPAXI@Z 10008b60 f i common:Utils.obj
 0001:00007b80       ??1?$_Filebuf_Tmp_Buf@D@_STL@@QAE@XZ 10008b80 f i common:Utils.obj
 0001:00007b90       ?_M_range_initialize@?$basic_string@DV?$char_traits@D@_STL@@V?$allocator@D@2@@_STL@@AAEXPAD0@Z 10008b90 f i common:Utils.obj
 0001:00007c10       ?imbue@?$basic_ios@DV?$char_traits@D@_STL@@@_STL@@QAE?AVlocale@2@ABV32@@Z 10008c10 f i common:Utils.obj
 0001:00007d70       ?grouping@?$numpunct@D@_STL@@QBE?AV?$basic_string@DV?$char_traits@D@_STL@@V?$allocator@D@2@@2@XZ 10008d70 f i common:Utils.obj
 0001:00007d90       ??0?$basic_ostream@DV?$char_traits@D@_STL@@@_STL@@QAE@PAV?$basic_streambuf@DV?$char_traits@D@_STL@@@1@@Z 10008d90 f i common:Utils.obj
 0001:00007e90       ?_M_exit_input_mode@?$basic_filebuf@DV?$char_traits@D@_STL@@@_STL@@AAEXXZ 10008e90 f i common:Utils.obj
 0001:00007ec0       ?_M_unshift@?$basic_filebuf@DV?$char_traits@D@_STL@@@_STL@@AAE_NXZ 10008ec0 f i common:Utils.obj
 0001:00007f40       ?_M_allocate_buffers@?$basic_filebuf@DV?$char_traits@D@_STL@@@_STL@@AAE_NPADH@Z 10008f40 f i common:Utils.obj
 0001:00008030       ?_M_setup_codecvt@?$basic_filebuf@DV?$char_traits@D@_STL@@@_STL@@AAEXABVlocale@2@@Z 10009030 f i common:Utils.obj
 0001:000080a0       ?_M_append_dispatch@?$basic_string@DV?$char_traits@D@_STL@@V?$allocator@D@2@@_STL@@AAEAAV12@PAD0ABU__false_type@2@@Z 100090a0 f i common:Utils.obj
 0001:000080d0       ?_M_append_dispatch@?$basic_string@DV?$char_traits@D@_STL@@V?$allocator@D@2@@_STL@@AAEAAV12@PBD0ABU__false_type@2@@Z 100090d0 f i common:Utils.obj
 0001:00008100       ?iterator_category@_STL@@YA?AUrandom_access_iterator_tag@1@PBD@Z 10009100 f i common:Utils.obj
 0001:00008110       ?distance_type@_STL@@YAPAHPBD@Z 10009110 f i common:Utils.obj
 0001:00008120       ?__copy@_STL@@YAPADPAD00ABUrandom_access_iterator_tag@1@PAH@Z 10009120 f i common:Utils.obj
 0001:00008150       ??0CThread@Win32@OnlineGameLib@@QAE@XZ 10009150 f   common:Thread.obj
 0001:00008160       ??_GCThread@Win32@OnlineGameLib@@UAEPAXI@Z 10009160 f i common:Thread.obj
 0001:00008160       ??_ECThread@Win32@OnlineGameLib@@UAEPAXI@Z 10009160 f i common:Thread.obj
 0001:00008180       ??1CThread@Win32@OnlineGameLib@@UAE@XZ 10009180 f   common:Thread.obj
 0001:000081a0       ?GetHandle@CThread@Win32@OnlineGameLib@@QBEPAXXZ 100091a0 f   common:Thread.obj
 0001:000081b0       ?Start@CThread@Win32@OnlineGameLib@@QAEXXZ 100091b0 f   common:Thread.obj
 0001:00008330       ?Wait@CThread@Win32@OnlineGameLib@@QBEXXZ 10009330 f   common:Thread.obj
 0001:00008440       ?Wait@CThread@Win32@OnlineGameLib@@QBE_NK@Z 10009440 f   common:Thread.obj
 0001:00008530       ?ThreadFunction@CThread@Win32@OnlineGameLib@@CGIPAX@Z 10009530 f   common:Thread.obj
 0001:000085a0       ?Terminate@CThread@Win32@OnlineGameLib@@QAEXK@Z 100095a0 f   common:Thread.obj
 0001:000085d0       ?KSG_DecodeEncode@@YAHIPAEPAI@Z 100095d0 f   common:KSG_EncodeDecode.obj
 0001:00008630       ?KSG_DecodeEncode_ASM@@YAHIPAEPAI@Z 10009630 f   common:KSG_EncodeDecode.obj
 0001:00008690       ??0CEventSelect@Win32@OnlineGameLib@@QAE@XZ 10009690 f   common:EventSelect.obj
 0001:000086b0       ??1CEventSelect@Win32@OnlineGameLib@@QAE@XZ 100096b0 f   common:EventSelect.obj
 0001:000086d0       ?AssociateEvent@CEventSelect@Win32@OnlineGameLib@@QAEXIJ@Z 100096d0 f   common:EventSelect.obj
 0001:00008840       ?DissociateEvent@CEventSelect@Win32@OnlineGameLib@@QAEXXZ 10009840 f   common:EventSelect.obj
 0001:00008860       ??0CUsesWinsock@Win32@OnlineGameLib@@QAE@XZ 10009860 f   common:UsesWinsock.obj
 0001:00008930       ??1CUsesWinsock@Win32@OnlineGameLib@@QAE@XZ 10009930 f   common:UsesWinsock.obj
 0001:00008940       ??0CManualResetEvent@Win32@OnlineGameLib@@QAE@_N@Z 10009940 f   common:ManualResetEvent.obj
 0001:00008960       ??_ECManualResetEvent@Win32@OnlineGameLib@@UAEPAXI@Z 10009960 f i common:ManualResetEvent.obj
 0001:00008960       ??_GCManualResetEvent@Win32@OnlineGameLib@@UAEPAXI@Z 10009960 f i common:ManualResetEvent.obj
 0001:00008980       ??0CManualResetEvent@Win32@OnlineGameLib@@QAE@PBD_N@Z 10009980 f   common:ManualResetEvent.obj
 0001:000089b0       ??0CEvent@Win32@OnlineGameLib@@QAE@PAU_SECURITY_ATTRIBUTES@@_N1@Z 100099b0 f   common:Event.obj
 0001:00008ac0       ??_GCEvent@Win32@OnlineGameLib@@UAEPAXI@Z 10009ac0 f i common:Event.obj
 0001:00008ac0       ??_ECEvent@Win32@OnlineGameLib@@UAEPAXI@Z 10009ac0 f i common:Event.obj
 0001:00008ae0       ??0CEvent@Win32@OnlineGameLib@@QAE@PAU_SECURITY_ATTRIBUTES@@_N1PBD@Z 10009ae0 f   common:Event.obj
 0001:00008b10       ??1CEvent@Win32@OnlineGameLib@@UAE@XZ 10009b10 f   common:Event.obj
 0001:00008b30       ?Wait@CEvent@Win32@OnlineGameLib@@QBEXXZ 10009b30 f   common:Event.obj
 0001:00008c40       ?Wait@CEvent@Win32@OnlineGameLib@@QBE_NK@Z 10009c40 f   common:Event.obj
 0001:00008d30       ?Reset@CEvent@Win32@OnlineGameLib@@QAEXXZ 10009d30 f   common:Event.obj
 0001:00008df0       ?Set@CEvent@Win32@OnlineGameLib@@QAEXXZ 10009df0 f   common:Event.obj
 0001:00008eb0       ?Pulse@CEvent@Win32@OnlineGameLib@@QAEXXZ 10009eb0 f   common:Event.obj
 0001:00008f70       ??0CSocket@Win32@OnlineGameLib@@QAE@XZ 10009f70 f   common:Socket.obj
 0001:00008f80       ??0CSocket@Win32@OnlineGameLib@@QAE@I@Z 10009f80 f   common:Socket.obj
 0001:00009040       ??1Exception@CSocket@Win32@OnlineGameLib@@UAE@XZ 1000a040 f i common:Socket.obj
 0001:00009100       ?__stl_delete@_STL@@YAXPAX@Z 1000a100 f i common:Socket.obj
 0001:00009110       ??0Exception@CSocket@Win32@OnlineGameLib@@QAE@ABV0123@@Z 1000a110 f i common:Socket.obj
 0001:00009230       ??_EException@CSocket@Win32@OnlineGameLib@@UAEPAXI@Z 1000a230 f i common:Socket.obj
 0001:00009230       ??_GException@CSocket@Win32@OnlineGameLib@@UAEPAXI@Z 1000a230 f i common:Socket.obj
 0001:00009250       ??1CSocket@Win32@OnlineGameLib@@QAE@XZ 1000a250 f   common:Socket.obj
 0001:000092a0       ?Attach@CSocket@Win32@OnlineGameLib@@QAEXI@Z 1000a2a0 f   common:Socket.obj
 0001:000092c0       ?Detatch@CSocket@Win32@OnlineGameLib@@QAEIXZ 1000a2c0 f   common:Socket.obj
 0001:000092d0       ?Close@CSocket@Win32@OnlineGameLib@@QAEXXZ 1000a2d0 f   common:Socket.obj
 0001:00009390       ?AbortiveClose@CSocket@Win32@OnlineGameLib@@QAEXXZ 1000a390 f   common:Socket.obj
 0001:00009480       ?Shutdown@CSocket@Win32@OnlineGameLib@@QAEXH@Z 1000a480 f   common:Socket.obj
 0001:00009550       ?Listen@CSocket@Win32@OnlineGameLib@@QAEXH@Z 1000a550 f   common:Socket.obj
 0001:00009620       ?Bind@CSocket@Win32@OnlineGameLib@@QAEXABUsockaddr_in@@@Z 1000a620 f   common:Socket.obj
 0001:000096f0       ?Bind@CSocket@Win32@OnlineGameLib@@QAEXABUsockaddr@@I@Z 1000a6f0 f   common:Socket.obj
 0001:000097c0       ?Connect@CSocket@Win32@OnlineGameLib@@QAEXABUsockaddr_in@@@Z 1000a7c0 f   common:Socket.obj
 0001:00009890       ?Connect@CSocket@Win32@OnlineGameLib@@QAEXABUsockaddr@@I@Z 1000a890 f   common:Socket.obj
 0001:00009960       ??0InternetAddress@CSocket@Win32@OnlineGameLib@@QAE@KG@Z 1000a960 f   common:Socket.obj
 0001:00009990       ??0InternetAddress@CSocket@Win32@OnlineGameLib@@QAE@ABV?$basic_string@DV?$char_traits@D@_STL@@V?$allocator@D@2@@_STL@@G@Z 1000a990 f   common:Socket.obj
 0001:000099c0       ??0Exception@CSocket@Win32@OnlineGameLib@@AAE@ABV?$basic_string@DV?$char_traits@D@_STL@@V?$allocator@D@2@@_STL@@K@Z 1000a9c0 f   common:Socket.obj
 0001:000099e0       ??0CWin32Exception@Win32@OnlineGameLib@@QAE@ABV?$basic_string@DV?$char_traits@D@_STL@@V?$allocator@D@2@@_STL@@K@Z 1000a9e0 f   common:Win32Exception.obj
 0001:00009a80       ??0CException@Win32@OnlineGameLib@@QAE@ABV?$basic_string@DV?$char_traits@D@_STL@@V?$allocator@D@2@@_STL@@0@Z 1000aa80 f   common:Exception.obj
 0001:00009bc0       ?GetWhere@CException@Win32@OnlineGameLib@@UBE?AV?$basic_string@DV?$char_traits@D@_STL@@V?$allocator@D@2@@_STL@@XZ 1000abc0 f   common:Exception.obj
 0001:00009c80       ?GetMessageA@CException@Win32@OnlineGameLib@@UBE?AV?$basic_string@DV?$char_traits@D@_STL@@V?$allocator@D@2@@_STL@@XZ 1000ac80 f   common:Exception.obj
 0001:00009d40       ?MessageBoxA@CException@Win32@OnlineGameLib@@QBEXPAUHWND__@@@Z 1000ad40 f   common:Exception.obj
 0001:00009e20       ??0CNodeList@OnlineGameLib@@QAE@XZ 1000ae20 f   common:NodeList.obj
 0001:00009e30       ?PushNode@CNodeList@OnlineGameLib@@QAEXPAVNode@12@@Z 1000ae30 f   common:NodeList.obj
 0001:00009e60       ?PopNode@CNodeList@OnlineGameLib@@QAEPAVNode@12@XZ 1000ae60 f   common:NodeList.obj
 0001:00009e80       ?RemoveNode@CNodeList@OnlineGameLib@@AAEXPAVNode@12@@Z 1000ae80 f   common:NodeList.obj
 0001:00009ea0       ??0Node@CNodeList@OnlineGameLib@@IAE@XZ 1000aea0 f   common:NodeList.obj
 0001:00009eb0       ??1Node@CNodeList@OnlineGameLib@@IAE@XZ 1000aeb0 f   common:NodeList.obj
 0001:00009f10       ?AddToList@Node@CNodeList@OnlineGameLib@@QAEXPAV23@@Z 1000af10 f   common:NodeList.obj
 0001:00009f20       ?RemoveFromList@Node@CNodeList@OnlineGameLib@@QAEXXZ 1000af20 f   common:NodeList.obj
 0001:00009f30       ?Unlink@Node@CNodeList@OnlineGameLib@@AAEXXZ 1000af30 f   common:NodeList.obj
 0001:00009f60       ?get_allocator@?$basic_string@GV?$char_traits@G@_STL@@V?$allocator@G@2@@_STL@@QBE?AV?$allocator@G@2@XZ 1000af60 f i stlport_vc6_static:string_w.obj
 0001:00009f80       ??0?$basic_string@GV?$char_traits@G@_STL@@V?$allocator@G@2@@_STL@@QAE@ABV?$allocator@G@1@@Z 1000af80 f i stlport_vc6_static:string_w.obj
 0001:0000a010       ??0?$basic_string@GV?$char_traits@G@_STL@@V?$allocator@G@2@@_STL@@QAE@U_String_reserve_t@1@IABV?$allocator@G@1@@Z 1000b010 f i stlport_vc6_static:string_w.obj
 0001:0000a0e0       ??0?$basic_string@GV?$char_traits@G@_STL@@V?$allocator@G@2@@_STL@@QAE@ABV01@IIABV?$allocator@G@1@@Z 1000b0e0 f i stlport_vc6_static:string_w.obj
 0001:0000a250       ??0?$basic_string@GV?$char_traits@G@_STL@@V?$allocator@G@2@@_STL@@QAE@PBGIABV?$allocator@G@1@@Z 1000b250 f i stlport_vc6_static:string_w.obj
 0001:0000a380       ??0?$basic_string@GV?$char_traits@G@_STL@@V?$allocator@G@2@@_STL@@QAE@IGABV?$allocator@G@1@@Z 1000b380 f i stlport_vc6_static:string_w.obj
 0001:0000a450       ??1?$basic_string@GV?$char_traits@G@_STL@@V?$allocator@G@2@@_STL@@QAE@XZ 1000b450 f i stlport_vc6_static:string_w.obj
 0001:0000a4e0       ??4?$basic_string@GV?$char_traits@G@_STL@@V?$allocator@G@2@@_STL@@QAEAAV01@ABV01@@Z 1000b4e0 f i stlport_vc6_static:string_w.obj
 0001:0000a570       ??4?$basic_string@GV?$char_traits@G@_STL@@V?$allocator@G@2@@_STL@@QAEAAV01@PBG@Z 1000b570 f i stlport_vc6_static:string_w.obj
 0001:0000a640       ??4?$basic_string@GV?$char_traits@G@_STL@@V?$allocator@G@2@@_STL@@QAEAAV01@G@Z 1000b640 f i stlport_vc6_static:string_w.obj
 0001:0000a6e0       ?_M_null@?$basic_string@GV?$char_traits@G@_STL@@V?$allocator@G@2@@_STL@@SAGXZ 1000b6e0 f i stlport_vc6_static:string_w.obj
 0001:0000a6f0       ?_M_construct_null_aux@?$basic_string@GV?$char_traits@G@_STL@@V?$allocator@G@2@@_STL@@AAEXPAGABU__false_type@2@@Z 1000b6f0 f i stlport_vc6_static:string_w.obj
 0001:0000a700       ?_M_construct_null_aux@?$basic_string@GV?$char_traits@G@_STL@@V?$allocator@G@2@@_STL@@AAEXPAGABU__true_type@2@@Z 1000b700 f i stlport_vc6_static:string_w.obj
 0001:0000a710       ?_M_construct_null@?$basic_string@GV?$char_traits@G@_STL@@V?$allocator@G@2@@_STL@@AAEXPAG@Z 1000b710 f i stlport_vc6_static:string_w.obj
 0001:0000a720       ?_M_terminate_string_aux@?$basic_string@GV?$char_traits@G@_STL@@V?$allocator@G@2@@_STL@@AAEXABU__false_type@2@@Z 1000b720 f i stlport_vc6_static:string_w.obj
 0001:0000a730       ?_M_terminate_string_aux@?$basic_string@GV?$char_traits@G@_STL@@V?$allocator@G@2@@_STL@@AAEXABU__true_type@2@@Z 1000b730 f i stlport_vc6_static:string_w.obj
 0001:0000a740       ?_M_terminate_string@?$basic_string@GV?$char_traits@G@_STL@@V?$allocator@G@2@@_STL@@AAEXXZ 1000b740 f i stlport_vc6_static:string_w.obj
 0001:0000a750       ?begin@?$basic_string@GV?$char_traits@G@_STL@@V?$allocator@G@2@@_STL@@QAEPAGXZ 1000b750 f i stlport_vc6_static:string_w.obj
 0001:0000a760       ?end@?$basic_string@GV?$char_traits@G@_STL@@V?$allocator@G@2@@_STL@@QAEPAGXZ 1000b760 f i stlport_vc6_static:string_w.obj
 0001:0000a770       ?begin@?$basic_string@GV?$char_traits@G@_STL@@V?$allocator@G@2@@_STL@@QBEPBGXZ 1000b770 f i stlport_vc6_static:string_w.obj
 0001:0000a780       ?end@?$basic_string@GV?$char_traits@G@_STL@@V?$allocator@G@2@@_STL@@QBEPBGXZ 1000b780 f i stlport_vc6_static:string_w.obj
 0001:0000a790       ?rbegin@?$basic_string@GV?$char_traits@G@_STL@@V?$allocator@G@2@@_STL@@QAE?AV?$reverse_iterator@PAGGAAGPAGH@2@XZ 1000b790 f i stlport_vc6_static:string_w.obj
 0001:0000a7a0       ?rend@?$basic_string@GV?$char_traits@G@_STL@@V?$allocator@G@2@@_STL@@QAE?AV?$reverse_iterator@PAGGAAGPAGH@2@XZ 1000b7a0 f i stlport_vc6_static:string_w.obj
 0001:0000a7b0       ?rbegin@?$basic_string@GV?$char_traits@G@_STL@@V?$allocator@G@2@@_STL@@QBE?AV?$reverse_iterator@PBGGABGPBGH@2@XZ 1000b7b0 f i stlport_vc6_static:string_w.obj
 0001:0000a7c0       ?rend@?$basic_string@GV?$char_traits@G@_STL@@V?$allocator@G@2@@_STL@@QBE?AV?$reverse_iterator@PBGGABGPBGH@2@XZ 1000b7c0 f i stlport_vc6_static:string_w.obj
 0001:0000a7d0       ?size@?$basic_string@GV?$char_traits@G@_STL@@V?$allocator@G@2@@_STL@@QBEIXZ 1000b7d0 f i stlport_vc6_static:string_w.obj
 0001:0000a7e0       ?length@?$basic_string@GV?$char_traits@G@_STL@@V?$allocator@G@2@@_STL@@QBEIXZ 1000b7e0 f i stlport_vc6_static:string_w.obj
 0001:0000a7f0       ?max_size@?$basic_string@GV?$char_traits@G@_STL@@V?$allocator@G@2@@_STL@@QBEIXZ 1000b7f0 f i stlport_vc6_static:string_w.obj
 0001:0000a800       ?resize@?$basic_string@GV?$char_traits@G@_STL@@V?$allocator@G@2@@_STL@@QAEXIG@Z 1000b800 f i stlport_vc6_static:string_w.obj
 0001:0000a860       ?resize@?$basic_string@GV?$char_traits@G@_STL@@V?$allocator@G@2@@_STL@@QAEXI@Z 1000b860 f i stlport_vc6_static:string_w.obj
 0001:0000a8c0       ?capacity@?$basic_string@GV?$char_traits@G@_STL@@V?$allocator@G@2@@_STL@@QBEIXZ 1000b8c0 f i stlport_vc6_static:string_w.obj
 0001:0000a8d0       ?clear@?$basic_string@GV?$char_traits@G@_STL@@V?$allocator@G@2@@_STL@@QAEXXZ 1000b8d0 f i stlport_vc6_static:string_w.obj
 0001:0000a8f0       ?empty@?$basic_string@GV?$char_traits@G@_STL@@V?$allocator@G@2@@_STL@@QBE_NXZ 1000b8f0 f i stlport_vc6_static:string_w.obj
 0001:0000a910       ??A?$basic_string@GV?$char_traits@G@_STL@@V?$allocator@G@2@@_STL@@QBEABGI@Z 1000b910 f i stlport_vc6_static:string_w.obj
 0001:0000a920       ??A?$basic_string@GV?$char_traits@G@_STL@@V?$allocator@G@2@@_STL@@QAEAAGI@Z 1000b920 f i stlport_vc6_static:string_w.obj
 0001:0000a930       ?at@?$basic_string@GV?$char_traits@G@_STL@@V?$allocator@G@2@@_STL@@QBEABGI@Z 1000b930 f i stlport_vc6_static:string_w.obj
 0001:0000a960       ?at@?$basic_string@GV?$char_traits@G@_STL@@V?$allocator@G@2@@_STL@@QAEAAGI@Z 1000b960 f i stlport_vc6_static:string_w.obj
 0001:0000a990       ??Y?$basic_string@GV?$char_traits@G@_STL@@V?$allocator@G@2@@_STL@@QAEAAV01@ABV01@@Z 1000b990 f i stlport_vc6_static:string_w.obj
 0001:0000a9c0       ??Y?$basic_string@GV?$char_traits@G@_STL@@V?$allocator@G@2@@_STL@@QAEAAV01@PBG@Z 1000b9c0 f i stlport_vc6_static:string_w.obj
 0001:0000aa00       ??Y?$basic_string@GV?$char_traits@G@_STL@@V?$allocator@G@2@@_STL@@QAEAAV01@G@Z 1000ba00 f i stlport_vc6_static:string_w.obj
 0001:0000aa70       ?append@?$basic_string@GV?$char_traits@G@_STL@@V?$allocator@G@2@@_STL@@QAEAAV12@ABV12@@Z 1000ba70 f i stlport_vc6_static:string_w.obj
 0001:0000aaa0       ?append@?$basic_string@GV?$char_traits@G@_STL@@V?$allocator@G@2@@_STL@@QAEAAV12@ABV12@II@Z 1000baa0 f i stlport_vc6_static:string_w.obj
 0001:0000ab10       ?append@?$basic_string@GV?$char_traits@G@_STL@@V?$allocator@G@2@@_STL@@QAEAAV12@PBGI@Z 1000bb10 f i stlport_vc6_static:string_w.obj
 0001:0000ab40       ?append@?$basic_string@GV?$char_traits@G@_STL@@V?$allocator@G@2@@_STL@@QAEAAV12@PBG@Z 1000bb40 f i stlport_vc6_static:string_w.obj
 0001:0000ab80       ?push_back@?$basic_string@GV?$char_traits@G@_STL@@V?$allocator@G@2@@_STL@@QAEXG@Z 1000bb80 f i stlport_vc6_static:string_w.obj
 0001:0000abf0       ?pop_back@?$basic_string@GV?$char_traits@G@_STL@@V?$allocator@G@2@@_STL@@QAEXXZ 1000bbf0 f i stlport_vc6_static:string_w.obj
 0001:0000ac10       ?assign@?$basic_string@GV?$char_traits@G@_STL@@V?$allocator@G@2@@_STL@@QAEAAV12@ABV12@@Z 1000bc10 f i stlport_vc6_static:string_w.obj
 0001:0000aca0       ?assign@?$basic_string@GV?$char_traits@G@_STL@@V?$allocator@G@2@@_STL@@QAEAAV12@ABV12@II@Z 1000bca0 f i stlport_vc6_static:string_w.obj
 0001:0000ad70       ?assign@?$basic_string@GV?$char_traits@G@_STL@@V?$allocator@G@2@@_STL@@QAEAAV12@PBGI@Z 1000bd70 f i stlport_vc6_static:string_w.obj
 0001:0000ae30       ?assign@?$basic_string@GV?$char_traits@G@_STL@@V?$allocator@G@2@@_STL@@QAEAAV12@PBG@Z 1000be30 f i stlport_vc6_static:string_w.obj
 0001:0000af00       ?assign@?$basic_string@GV?$char_traits@G@_STL@@V?$allocator@G@2@@_STL@@QAEAAV12@PBG0@Z 1000bf00 f i stlport_vc6_static:string_w.obj
 0001:0000afc0       ?_M_acquire_lock@_STLP_mutex_base@_STL@@QAEXXZ 1000bfc0 f i stlport_vc6_static:string_w.obj
 0001:0000b0b0       ?_M_release_lock@_STLP_mutex_base@_STL@@QAEXXZ 1000c0b0 f i stlport_vc6_static:string_w.obj
 0001:0000b0c0       ?insert@?$basic_string@GV?$char_traits@G@_STL@@V?$allocator@G@2@@_STL@@QAEAAV12@IABV12@@Z 1000c0c0 f i stlport_vc6_static:string_w.obj
 0001:0000b140       ?insert@?$basic_string@GV?$char_traits@G@_STL@@V?$allocator@G@2@@_STL@@QAEAAV12@IABV12@II@Z 1000c140 f i stlport_vc6_static:string_w.obj
 0001:0000b1f0       ?insert@?$basic_string@GV?$char_traits@G@_STL@@V?$allocator@G@2@@_STL@@QAEAAV12@IPBGI@Z 1000c1f0 f i stlport_vc6_static:string_w.obj
 0001:0000b270       ?insert@?$basic_string@GV?$char_traits@G@_STL@@V?$allocator@G@2@@_STL@@QAEAAV12@IPBG@Z 1000c270 f i stlport_vc6_static:string_w.obj
 0001:0000b300       ?insert@?$basic_string@GV?$char_traits@G@_STL@@V?$allocator@G@2@@_STL@@QAEAAV12@IIG@Z 1000c300 f i stlport_vc6_static:string_w.obj
 0001:0000b370       ?insert@?$basic_string@GV?$char_traits@G@_STL@@V?$allocator@G@2@@_STL@@QAEPAGPAGG@Z 1000c370 f i stlport_vc6_static:string_w.obj
 0001:0000b3f0       ?_M_copy@?$basic_string@GV?$char_traits@G@_STL@@V?$allocator@G@2@@_STL@@AAEXPBG0PAG@Z 1000c3f0 f i stlport_vc6_static:string_w.obj
 0001:0000b420       ?erase@?$basic_string@GV?$char_traits@G@_STL@@V?$allocator@G@2@@_STL@@QAEAAV12@II@Z 1000c420 f i stlport_vc6_static:string_w.obj
 0001:0000b4b0       ?erase@?$basic_string@GV?$char_traits@G@_STL@@V?$allocator@G@2@@_STL@@QAEPAGPAG@Z 1000c4b0 f i stlport_vc6_static:string_w.obj
 0001:0000b4f0       ?erase@?$basic_string@GV?$char_traits@G@_STL@@V?$allocator@G@2@@_STL@@QAEPAGPAG0@Z 1000c4f0 f i stlport_vc6_static:string_w.obj
 0001:0000b530       ?replace@?$basic_string@GV?$char_traits@G@_STL@@V?$allocator@G@2@@_STL@@QAEAAV12@IIABV12@@Z 1000c530 f i stlport_vc6_static:string_w.obj
 0001:0000b660       ?replace@?$basic_string@GV?$char_traits@G@_STL@@V?$allocator@G@2@@_STL@@QAEAAV12@IIABV12@II@Z 1000c660 f i stlport_vc6_static:string_w.obj
 0001:0000b7c0       ?replace@?$basic_string@GV?$char_traits@G@_STL@@V?$allocator@G@2@@_STL@@QAEAAV12@IIPBGI@Z 1000c7c0 f i stlport_vc6_static:string_w.obj
 0001:0000b8f0       ?replace@?$basic_string@GV?$char_traits@G@_STL@@V?$allocator@G@2@@_STL@@QAEAAV12@IIPBG@Z 1000c8f0 f i stlport_vc6_static:string_w.obj
 0001:0000ba40       ?replace@?$basic_string@GV?$char_traits@G@_STL@@V?$allocator@G@2@@_STL@@QAEAAV12@IIIG@Z 1000ca40 f i stlport_vc6_static:string_w.obj
 0001:0000bb70       ?replace@?$basic_string@GV?$char_traits@G@_STL@@V?$allocator@G@2@@_STL@@QAEAAV12@PAG0ABV12@@Z 1000cb70 f i stlport_vc6_static:string_w.obj
 0001:0000bc30       ?replace@?$basic_string@GV?$char_traits@G@_STL@@V?$allocator@G@2@@_STL@@QAEAAV12@PAG0PBGI@Z 1000cc30 f i stlport_vc6_static:string_w.obj
 0001:0000bcf0       ?replace@?$basic_string@GV?$char_traits@G@_STL@@V?$allocator@G@2@@_STL@@QAEAAV12@PAG0PBG@Z 1000ccf0 f i stlport_vc6_static:string_w.obj
 0001:0000bdd0       ?copy@?$basic_string@GV?$char_traits@G@_STL@@V?$allocator@G@2@@_STL@@QBEIPAGII@Z 1000cdd0 f i stlport_vc6_static:string_w.obj
 0001:0000be40       ?swap@?$basic_string@GV?$char_traits@G@_STL@@V?$allocator@G@2@@_STL@@QAEXAAV12@@Z 1000ce40 f i stlport_vc6_static:string_w.obj
 0001:0000be70       ?c_str@?$basic_string@GV?$char_traits@G@_STL@@V?$allocator@G@2@@_STL@@QBEPBGXZ 1000ce70 f i stlport_vc6_static:string_w.obj
 0001:0000be80       ?data@?$basic_string@GV?$char_traits@G@_STL@@V?$allocator@G@2@@_STL@@QBEPBGXZ 1000ce80 f i stlport_vc6_static:string_w.obj
 0001:0000be90       ?find@?$basic_string@GV?$char_traits@G@_STL@@V?$allocator@G@2@@_STL@@QBEIABV12@I@Z 1000ce90 f i stlport_vc6_static:string_w.obj
 0001:0000bf90       ?find@?$basic_string@GV?$char_traits@G@_STL@@V?$allocator@G@2@@_STL@@QBEIPBGI@Z 1000cf90 f i stlport_vc6_static:string_w.obj
 0001:0000c090       ?rfind@?$basic_string@GV?$char_traits@G@_STL@@V?$allocator@G@2@@_STL@@QBEIABV12@I@Z 1000d090 f i stlport_vc6_static:string_w.obj
 0001:0000c1e0       ?rfind@?$basic_string@GV?$char_traits@G@_STL@@V?$allocator@G@2@@_STL@@QBEIPBGI@Z 1000d1e0 f i stlport_vc6_static:string_w.obj
 0001:0000c340       ?find_first_of@?$basic_string@GV?$char_traits@G@_STL@@V?$allocator@G@2@@_STL@@QBEIABV12@I@Z 1000d340 f i stlport_vc6_static:string_w.obj
 0001:0000c3b0       ?find_first_of@?$basic_string@GV?$char_traits@G@_STL@@V?$allocator@G@2@@_STL@@QBEIPBGI@Z 1000d3b0 f i stlport_vc6_static:string_w.obj
 0001:0000c430       ?find_first_of@?$basic_string@GV?$char_traits@G@_STL@@V?$allocator@G@2@@_STL@@QBEIGI@Z 1000d430 f i stlport_vc6_static:string_w.obj
 0001:0000c4c0       ?find_last_of@?$basic_string@GV?$char_traits@G@_STL@@V?$allocator@G@2@@_STL@@QBEIABV12@I@Z 1000d4c0 f i stlport_vc6_static:string_w.obj
 0001:0000c550       ?find_last_of@?$basic_string@GV?$char_traits@G@_STL@@V?$allocator@G@2@@_STL@@QBEIPBGI@Z 1000d550 f i stlport_vc6_static:string_w.obj
 0001:0000c5f0       ?find_last_of@?$basic_string@GV?$char_traits@G@_STL@@V?$allocator@G@2@@_STL@@QBEIGI@Z 1000d5f0 f i stlport_vc6_static:string_w.obj
 0001:0000c670       ?find_first_not_of@?$basic_string@GV?$char_traits@G@_STL@@V?$allocator@G@2@@_STL@@QBEIABV12@I@Z 1000d670 f i stlport_vc6_static:string_w.obj
 0001:0000c880       ?find_first_not_of@?$basic_string@GV?$char_traits@G@_STL@@V?$allocator@G@2@@_STL@@QBEIPBGI@Z 1000d880 f i stlport_vc6_static:string_w.obj
 0001:0000ca60       ?find_last_not_of@?$basic_string@GV?$char_traits@G@_STL@@V?$allocator@G@2@@_STL@@QBEIABV12@I@Z 1000da60 f i stlport_vc6_static:string_w.obj
 0001:0000caf0       ?find_last_not_of@?$basic_string@GV?$char_traits@G@_STL@@V?$allocator@G@2@@_STL@@QBEIPBGI@Z 1000daf0 f i stlport_vc6_static:string_w.obj
 0001:0000cb90       ?substr@?$basic_string@GV?$char_traits@G@_STL@@V?$allocator@G@2@@_STL@@QBE?AV12@II@Z 1000db90 f i stlport_vc6_static:string_w.obj
 0001:0000ccb0       ?compare@?$basic_string@GV?$char_traits@G@_STL@@V?$allocator@G@2@@_STL@@QBEHABV12@@Z 1000dcb0 f i stlport_vc6_static:string_w.obj
 0001:0000cd50       ?compare@?$basic_string@GV?$char_traits@G@_STL@@V?$allocator@G@2@@_STL@@QBEHIIABV12@@Z 1000dd50 f i stlport_vc6_static:string_w.obj
 0001:0000ce30       ?compare@?$basic_string@GV?$char_traits@G@_STL@@V?$allocator@G@2@@_STL@@QBEHIIABV12@II@Z 1000de30 f i stlport_vc6_static:string_w.obj
 0001:0000cf50       ?compare@?$basic_string@GV?$char_traits@G@_STL@@V?$allocator@G@2@@_STL@@QBEHPBG@Z 1000df50 f i stlport_vc6_static:string_w.obj
 0001:0000d000       ?compare@?$basic_string@GV?$char_traits@G@_STL@@V?$allocator@G@2@@_STL@@QBEHIIPBG@Z 1000e000 f i stlport_vc6_static:string_w.obj
 0001:0000d0e0       ?compare@?$basic_string@GV?$char_traits@G@_STL@@V?$allocator@G@2@@_STL@@QBEHIIPBGI@Z 1000e0e0 f i stlport_vc6_static:string_w.obj
 0001:0000d1b0       ?_M_compare@?$basic_string@GV?$char_traits@G@_STL@@V?$allocator@G@2@@_STL@@SAHPBG000@Z 1000e1b0 f i stlport_vc6_static:string_w.obj
 0001:0000d240       ?_M_deallocate_block@?$_String_base@GV?$allocator@G@_STL@@@_STL@@QAEXXZ 1000e240 f i stlport_vc6_static:string_w.obj
 0001:0000d270       ?max_size@?$_String_base@GV?$allocator@G@_STL@@@_STL@@QBEIXZ 1000e270 f i stlport_vc6_static:string_w.obj
 0001:0000d280       ??0?$_String_base@GV?$allocator@G@_STL@@@_STL@@QAE@ABV?$allocator@G@1@@Z 1000e280 f i stlport_vc6_static:string_w.obj
 0001:0000d290       ??0?$_String_base@GV?$allocator@G@_STL@@@_STL@@QAE@ABV?$allocator@G@1@I@Z 1000e290 f i stlport_vc6_static:string_w.obj
 0001:0000d3e0       ??1?$_String_base@GV?$allocator@G@_STL@@@_STL@@QAE@XZ 1000e3e0 f i stlport_vc6_static:string_w.obj
 0001:0000d470       ??0?$allocator@G@_STL@@QAE@XZ 1000e470 f i stlport_vc6_static:string_w.obj
 0001:0000d480       ??0?$allocator@G@_STL@@QAE@ABV01@@Z 1000e480 f i stlport_vc6_static:string_w.obj
 0001:0000d490       ??1?$allocator@G@_STL@@QAE@XZ 1000e490 f i stlport_vc6_static:string_w.obj
 0001:0000d4a0       ?address@?$allocator@G@_STL@@QAEPAGAAG@Z 1000e4a0 f i stlport_vc6_static:string_w.obj
 0001:0000d4b0       ?address@?$allocator@G@_STL@@QBEPBGABG@Z 1000e4b0 f i stlport_vc6_static:string_w.obj
 0001:0000d4c0       ?allocate@?$allocator@G@_STL@@QBEPAGIPBX@Z 1000e4c0 f i stlport_vc6_static:string_w.obj
 0001:0000d4f0       ?deallocate@?$allocator@G@_STL@@QBEXPAGI@Z 1000e4f0 f i stlport_vc6_static:string_w.obj
 0001:0000d520       ?deallocate@?$allocator@G@_STL@@QBEXPAG@Z 1000e520 f i stlport_vc6_static:string_w.obj
 0001:0000d540       ?max_size@?$allocator@G@_STL@@QBEIXZ 1000e540 f i stlport_vc6_static:string_w.obj
 0001:0000d550       ?construct@?$allocator@G@_STL@@QBEXPAGABG@Z 1000e550 f i stlport_vc6_static:string_w.obj
 0001:0000d570       ?destroy@?$allocator@G@_STL@@QBEXPAG@Z 1000e570 f i stlport_vc6_static:string_w.obj
 0001:0000d580       ??1?$_STLP_alloc_proxy@PAGGV?$allocator@G@_STL@@@_STL@@QAE@XZ 1000e580 f i stlport_vc6_static:string_w.obj
 0001:0000d590       ??0?$reverse_iterator@PBGGABGPBGH@_STL@@QAE@PBG@Z 1000e590 f i stlport_vc6_static:string_w.obj
 0001:0000d5a0       ?_M_do_lock@?$_STLP_mutex_spin@$0A@@_STL@@SAXPCJ@Z 1000e5a0 f i stlport_vc6_static:string_w.obj
 0001:0000d690       ?_M_allocate_block@?$_String_base@GV?$allocator@G@_STL@@@_STL@@QAEXI@Z 1000e690 f i stlport_vc6_static:string_w.obj
 0001:0000d6f0       ?_M_throw_length_error@?$_String_base@GV?$allocator@G@_STL@@@_STL@@QBEXXZ 1000e6f0 f i stlport_vc6_static:string_w.obj
 0001:0000d700       ?_M_throw_out_of_range@?$_String_base@GV?$allocator@G@_STL@@@_STL@@QBEXXZ 1000e700 f i stlport_vc6_static:string_w.obj
 0001:0000d710       ??0?$basic_string@GV?$char_traits@G@_STL@@V?$allocator@G@2@@_STL@@QAE@PBGABV?$allocator@G@1@@Z 1000e710 f i stlport_vc6_static:string_w.obj
 0001:0000d7e0       ??0?$basic_string@GV?$char_traits@G@_STL@@V?$allocator@G@2@@_STL@@QAE@ABV01@@Z 1000e7e0 f i stlport_vc6_static:string_w.obj
 0001:0000d8b0       ??0?$basic_string@GV?$char_traits@G@_STL@@V?$allocator@G@2@@_STL@@QAE@XZ 1000e8b0 f i stlport_vc6_static:string_w.obj
 0001:0000d980       ?reserve@?$basic_string@GV?$char_traits@G@_STL@@V?$allocator@G@2@@_STL@@QAEXI@Z 1000e980 f i stlport_vc6_static:string_w.obj
 0001:0000db40       ?append@?$basic_string@GV?$char_traits@G@_STL@@V?$allocator@G@2@@_STL@@QAEAAV12@IG@Z 1000eb40 f i stlport_vc6_static:string_w.obj
 0001:0000dc00       ?assign@?$basic_string@GV?$char_traits@G@_STL@@V?$allocator@G@2@@_STL@@QAEAAV12@IG@Z 1000ec00 f i stlport_vc6_static:string_w.obj
 0001:0000dcb0       ?insert@?$basic_string@GV?$char_traits@G@_STL@@V?$allocator@G@2@@_STL@@QAEXPAGIG@Z 1000ecb0 f i stlport_vc6_static:string_w.obj
 0001:0000df70       ?_M_insert_aux@?$basic_string@GV?$char_traits@G@_STL@@V?$allocator@G@2@@_STL@@AAEPAGPAGG@Z 1000ef70 f i stlport_vc6_static:string_w.obj
 0001:0000e190       ?replace@?$basic_string@GV?$char_traits@G@_STL@@V?$allocator@G@2@@_STL@@QAEAAV12@PAG0IG@Z 1000f190 f i stlport_vc6_static:string_w.obj
 0001:0000e250       ?find@?$basic_string@GV?$char_traits@G@_STL@@V?$allocator@G@2@@_STL@@QBEIGI@Z 1000f250 f i stlport_vc6_static:string_w.obj
 0001:0000e2e0       ?find@?$basic_string@GV?$char_traits@G@_STL@@V?$allocator@G@2@@_STL@@QBEIPBGII@Z 1000f2e0 f i stlport_vc6_static:string_w.obj
 0001:0000e3d0       ?rfind@?$basic_string@GV?$char_traits@G@_STL@@V?$allocator@G@2@@_STL@@QBEIGI@Z 1000f3d0 f i stlport_vc6_static:string_w.obj
 0001:0000e450       ?rfind@?$basic_string@GV?$char_traits@G@_STL@@V?$allocator@G@2@@_STL@@QBEIPBGII@Z 1000f450 f i stlport_vc6_static:string_w.obj
 0001:0000e590       ?find_first_of@?$basic_string@GV?$char_traits@G@_STL@@V?$allocator@G@2@@_STL@@QBEIPBGII@Z 1000f590 f i stlport_vc6_static:string_w.obj
 0001:0000e600       ?find_last_of@?$basic_string@GV?$char_traits@G@_STL@@V?$allocator@G@2@@_STL@@QBEIPBGII@Z 1000f600 f i stlport_vc6_static:string_w.obj
 0001:0000e690       ?find_first_not_of@?$basic_string@GV?$char_traits@G@_STL@@V?$allocator@G@2@@_STL@@QBEIGI@Z 1000f690 f i stlport_vc6_static:string_w.obj
 0001:0000e720       ?find_first_not_of@?$basic_string@GV?$char_traits@G@_STL@@V?$allocator@G@2@@_STL@@QBEIPBGII@Z 1000f720 f i stlport_vc6_static:string_w.obj
 0001:0000e930       ?find_last_not_of@?$basic_string@GV?$char_traits@G@_STL@@V?$allocator@G@2@@_STL@@QBEIGI@Z 1000f930 f i stlport_vc6_static:string_w.obj
 0001:0000e9b0       ?find_last_not_of@?$basic_string@GV?$char_traits@G@_STL@@V?$allocator@G@2@@_STL@@QBEIPBGII@Z 1000f9b0 f i stlport_vc6_static:string_w.obj
 0001:0000ea40       ?_M_range_initialize@?$basic_string@GV?$char_traits@G@_STL@@V?$allocator@G@2@@_STL@@AAEXPAG0@Z 1000fa40 f i stlport_vc6_static:string_w.obj
 0001:0000ead0       ?_M_range_initialize@?$basic_string@GV?$char_traits@G@_STL@@V?$allocator@G@2@@_STL@@AAEXPBG0@Z 1000fad0 f i stlport_vc6_static:string_w.obj
 0001:0000eb60       ?assign@?$basic_string@GV?$char_traits@G@_STL@@V?$allocator@G@2@@_STL@@QAEAAV12@PAG0@Z 1000fb60 f i stlport_vc6_static:string_w.obj
 0001:0000ebf0       ?append@?$basic_string@GV?$char_traits@G@_STL@@V?$allocator@G@2@@_STL@@QAEAAV12@PAG0@Z 1000fbf0 f i stlport_vc6_static:string_w.obj
 0001:0000ec20       ?append@?$basic_string@GV?$char_traits@G@_STL@@V?$allocator@G@2@@_STL@@QAEAAV12@PBG0@Z 1000fc20 f i stlport_vc6_static:string_w.obj
 0001:0000ec50       ?insert@?$basic_string@GV?$char_traits@G@_STL@@V?$allocator@G@2@@_STL@@QAEXPAG00@Z 1000fc50 f i stlport_vc6_static:string_w.obj
 0001:0000ec80       ?insert@?$basic_string@GV?$char_traits@G@_STL@@V?$allocator@G@2@@_STL@@QAEXPAGPBG1@Z 1000fc80 f i stlport_vc6_static:string_w.obj
 0001:0000ecb0       ?replace@?$basic_string@GV?$char_traits@G@_STL@@V?$allocator@G@2@@_STL@@QAEAAV12@PAG000@Z 1000fcb0 f i stlport_vc6_static:string_w.obj
 0001:0000ed70       ?replace@?$basic_string@GV?$char_traits@G@_STL@@V?$allocator@G@2@@_STL@@QAEAAV12@PAG0PBG1@Z 1000fd70 f i stlport_vc6_static:string_w.obj
 0001:0000ee30       ?swap@_STL@@YAXAAV?$_STLP_alloc_proxy@PAGGV?$allocator@G@_STL@@@1@0@Z 1000fe30 f i stlport_vc6_static:string_w.obj
 0001:0000ee50       ??0?$basic_string@GV?$char_traits@G@_STL@@V?$allocator@G@2@@_STL@@QAE@PAG0@Z 1000fe50 f i stlport_vc6_static:string_w.obj
 0001:0000ef60       ?_M_allocate@?$__node_alloc@$00$0A@@_STL@@CAPAXI@Z 1000ff60 f i stlport_vc6_static:string_w.obj
 0001:0000f110       ?_M_deallocate@?$__node_alloc@$00$0A@@_STL@@CAXPAXI@Z 10010110 f i stlport_vc6_static:string_w.obj
 0001:0000f240       ??0?$reverse_iterator@PBGGABGPBGH@_STL@@QAE@ABV01@@Z 10010240 f i stlport_vc6_static:string_w.obj
 0001:0000f250       ??0?$_Node_Alloc_Lock@$00$0A@@_STL@@QAE@XZ 10010250 f i stlport_vc6_static:string_w.obj
 0001:0000f360       ??1?$_Node_Alloc_Lock@$00$0A@@_STL@@QAE@XZ 10010360 f i stlport_vc6_static:string_w.obj
 0001:0000f370       ?find_if@_STL@@YA?AV?$reverse_iterator@PBGGABGPBGH@1@V21@0U?$_Eq_char_bound@V?$char_traits@G@_STL@@@1@@Z 10010370 f i stlport_vc6_static:string_w.obj
 0001:0000f3b0       ?__find_first_of@_STL@@YA?AV?$reverse_iterator@PBGGABGPBGH@1@V21@0PBG1U?$_Eq_traits@V?$char_traits@G@_STL@@@1@@Z 100103b0 f i stlport_vc6_static:string_w.obj
 0001:0000f400       ?find_if@_STL@@YA?AV?$reverse_iterator@PBGGABGPBGH@1@V21@0U?$_Neq_char_bound@V?$char_traits@G@_STL@@@1@@Z 10010400 f i stlport_vc6_static:string_w.obj
 0001:0000f440       ?find_if@_STL@@YA?AV?$reverse_iterator@PBGGABGPBGH@1@V21@0U?$_Not_within_traits@V?$char_traits@G@_STL@@@1@@Z 10010440 f i stlport_vc6_static:string_w.obj
 0001:0000f490       ?iterator_category@_STL@@YA?AUrandom_access_iterator_tag@1@PBG@Z 10010490 f i stlport_vc6_static:string_w.obj
 0001:0000f4a0       ?_M_range_initialize@?$basic_string@GV?$char_traits@G@_STL@@V?$allocator@G@2@@_STL@@AAEXPAG0ABUforward_iterator_tag@2@@Z 100104a0 f i stlport_vc6_static:string_w.obj
 0001:0000f530       ?_M_range_initialize@?$basic_string@GV?$char_traits@G@_STL@@V?$allocator@G@2@@_STL@@AAEXPBG0ABUforward_iterator_tag@2@@Z 10010530 f i stlport_vc6_static:string_w.obj
 0001:0000f5c0       ?_M_assign_dispatch@?$basic_string@GV?$char_traits@G@_STL@@V?$allocator@G@2@@_STL@@AAEAAV12@PAG0ABU__false_type@2@@Z 100105c0 f i stlport_vc6_static:string_w.obj
 0001:0000f650       ?_M_append_dispatch@?$basic_string@GV?$char_traits@G@_STL@@V?$allocator@G@2@@_STL@@AAEAAV12@PAG0ABU__false_type@2@@Z 10010650 f i stlport_vc6_static:string_w.obj
 0001:0000f680       ?_M_append_dispatch@?$basic_string@GV?$char_traits@G@_STL@@V?$allocator@G@2@@_STL@@AAEAAV12@PBG0ABU__false_type@2@@Z 10010680 f i stlport_vc6_static:string_w.obj
 0001:0000f6b0       ?_M_insert_dispatch@?$basic_string@GV?$char_traits@G@_STL@@V?$allocator@G@2@@_STL@@AAEXPAG00ABU__false_type@2@@Z 100106b0 f i stlport_vc6_static:string_w.obj
 0001:0000f6e0       ?_M_insert_dispatch@?$basic_string@GV?$char_traits@G@_STL@@V?$allocator@G@2@@_STL@@AAEXPAGPBG1ABU__false_type@2@@Z 100106e0 f i stlport_vc6_static:string_w.obj
 0001:0000f710       ?_M_replace_dispatch@?$basic_string@GV?$char_traits@G@_STL@@V?$allocator@G@2@@_STL@@AAEAAV12@PAG000ABU__false_type@2@@Z 10010710 f i stlport_vc6_static:string_w.obj
 0001:0000f7d0       ?_M_replace_dispatch@?$basic_string@GV?$char_traits@G@_STL@@V?$allocator@G@2@@_STL@@AAEAAV12@PAG0PBG1ABU__false_type@2@@Z 100107d0 f i stlport_vc6_static:string_w.obj
 0001:0000f890       ?_M_initialize_dispatch@?$basic_string@GV?$char_traits@G@_STL@@V?$allocator@G@2@@_STL@@AAEXPAG0ABU__false_type@2@@Z 10010890 f i stlport_vc6_static:string_w.obj
 0001:0000f920       ?_S_refill@?$__node_alloc@$00$0A@@_STL@@CAPAXI@Z 10010920 f i stlport_vc6_static:string_w.obj
 0001:0000fa80       ?__find_if@_STL@@YA?AV?$reverse_iterator@PBGGABGPBGH@1@V21@0U?$_Eq_char_bound@V?$char_traits@G@_STL@@@1@ABUrandom_access_iterator_tag@1@@Z 10010a80 f i stlport_vc6_static:string_w.obj
 0001:0000fb20       ?__find_if@_STL@@YA?AV?$reverse_iterator@PBGGABGPBGH@1@V21@0U?$_Neq_char_bound@V?$char_traits@G@_STL@@@1@ABUrandom_access_iterator_tag@1@@Z 10010b20 f i stlport_vc6_static:string_w.obj
 0001:0000fbc0       ?__find_if@_STL@@YA?AV?$reverse_iterator@PBGGABGPBGH@1@V21@0U?$_Not_within_traits@V?$char_traits@G@_STL@@@1@ABUrandom_access_iterator_tag@1@@Z 10010bc0 f i stlport_vc6_static:string_w.obj
 0001:0000fd90       ?append@?$basic_string@GV?$char_traits@G@_STL@@V?$allocator@G@2@@_STL@@AAEAAV12@PAG0ABUforward_iterator_tag@2@@Z 10010d90 f i stlport_vc6_static:string_w.obj
 0001:0000ff50       ?append@?$basic_string@GV?$char_traits@G@_STL@@V?$allocator@G@2@@_STL@@AAEAAV12@PBG0ABUforward_iterator_tag@2@@Z 10010f50 f i stlport_vc6_static:string_w.obj
 0001:00010100       ?insert@?$basic_string@GV?$char_traits@G@_STL@@V?$allocator@G@2@@_STL@@AAEXPAG00ABUforward_iterator_tag@2@@Z 10011100 f i stlport_vc6_static:string_w.obj
 0001:000103c0       ?insert@?$basic_string@GV?$char_traits@G@_STL@@V?$allocator@G@2@@_STL@@AAEXPAGPBG1ABUforward_iterator_tag@2@@Z 100113c0 f i stlport_vc6_static:string_w.obj
 0001:00010680       ?replace@?$basic_string@GV?$char_traits@G@_STL@@V?$allocator@G@2@@_STL@@AAEAAV12@PAG000ABUforward_iterator_tag@2@@Z 10011680 f i stlport_vc6_static:string_w.obj
 0001:00010740       ?replace@?$basic_string@GV?$char_traits@G@_STL@@V?$allocator@G@2@@_STL@@AAEAAV12@PAG0PBG1ABUforward_iterator_tag@2@@Z 10011740 f i stlport_vc6_static:string_w.obj
 0001:00010800       ?_S_chunk_alloc@?$__node_alloc@$00$0A@@_STL@@CAPADIAAH@Z 10011800 f i stlport_vc6_static:string_w.obj
 0001:00010930       ?__copy_aux@_STL@@YAPAGPAG00ABU__true_type@1@@Z 10011930 f i stlport_vc6_static:string_w.obj
 0001:00010960       ?_M_copy@?$basic_string@GV?$char_traits@G@_STL@@V?$allocator@G@2@@_STL@@AAEXPAG00@Z 10011960 f i stlport_vc6_static:string_w.obj
 0001:00010990       ?__copy_ptrs@_STL@@YAPAGPAG00ABU__false_type@1@@Z 10011990 f i stlport_vc6_static:string_w.obj
 0001:000109c0       ?__find_if@_STL@@YAPAGPAG0U?$_Eq_char_bound@V?$char_traits@G@_STL@@@1@ABUrandom_access_iterator_tag@1@@Z 100119c0 f i stlport_vc6_static:string_w.obj
 0001:00010a30       ?distance_type@_STL@@YAPAHPBG@Z 10011a30 f i stlport_vc6_static:string_w.obj
 0001:00010a40       ?__copy@_STL@@YAPAGPAG00ABUrandom_access_iterator_tag@1@PAH@Z 10011a40 f i stlport_vc6_static:string_w.obj
 0001:00010a70       ?__stl_throw_range_error@_STL@@YAXPBD@Z 10011a70 f   stlport_vc6_static:dll_main.obj
 0001:00010bf0       ??_Gruntime_error@_STL@@UAEPAXI@Z 10011bf0 f i stlport_vc6_static:dll_main.obj
 0001:00010bf0       ??_Eruntime_error@_STL@@UAEPAXI@Z 10011bf0 f i stlport_vc6_static:dll_main.obj
 0001:00010c10       ??_Erange_error@_STL@@UAEPAXI@Z 10011c10 f i stlport_vc6_static:dll_main.obj
 0001:00010c10       ??_Grange_error@_STL@@UAEPAXI@Z 10011c10 f i stlport_vc6_static:dll_main.obj
 0001:00010c30       ??0range_error@_STL@@QAE@ABV01@@Z 10011c30 f i stlport_vc6_static:dll_main.obj
 0001:00010c80       ??0runtime_error@_STL@@QAE@ABV01@@Z 10011c80 f i stlport_vc6_static:dll_main.obj
 0001:00010cd0       ??0__Named_exception@_STL@@QAE@ABV01@@Z 10011cd0 f i stlport_vc6_static:dll_main.obj
 0001:00010d10       ??_G__Named_exception@_STL@@UAEPAXI@Z 10011d10 f i stlport_vc6_static:dll_main.obj
 0001:00010d10       ??_E__Named_exception@_STL@@UAEPAXI@Z 10011d10 f i stlport_vc6_static:dll_main.obj
 0001:00010d40       ?__stl_throw_out_of_range@_STL@@YAXPBD@Z 10011d40 f   stlport_vc6_static:dll_main.obj
 0001:00010ec0       ??_Glogic_error@_STL@@UAEPAXI@Z 10011ec0 f i stlport_vc6_static:dll_main.obj
 0001:00010ec0       ??_Elogic_error@_STL@@UAEPAXI@Z 10011ec0 f i stlport_vc6_static:dll_main.obj
 0001:00010ee0       ??_Gout_of_range@_STL@@UAEPAXI@Z 10011ee0 f i stlport_vc6_static:dll_main.obj
 0001:00010ee0       ??_Eout_of_range@_STL@@UAEPAXI@Z 10011ee0 f i stlport_vc6_static:dll_main.obj
 0001:00010f00       ??0out_of_range@_STL@@QAE@ABV01@@Z 10011f00 f i stlport_vc6_static:dll_main.obj
 0001:00010f50       ??0logic_error@_STL@@QAE@ABV01@@Z 10011f50 f i stlport_vc6_static:dll_main.obj
 0001:00010fa0       ?__stl_throw_length_error@_STL@@YAXPBD@Z 10011fa0 f   stlport_vc6_static:dll_main.obj
 0001:00011120       ??_Elength_error@_STL@@UAEPAXI@Z 10012120 f i stlport_vc6_static:dll_main.obj
 0001:00011120       ??_Glength_error@_STL@@UAEPAXI@Z 10012120 f i stlport_vc6_static:dll_main.obj
 0001:00011140       ??0length_error@_STL@@QAE@ABV01@@Z 10012140 f i stlport_vc6_static:dll_main.obj
 0001:00011190       ?__stl_throw_invalid_argument@_STL@@YAXPBD@Z 10012190 f   stlport_vc6_static:dll_main.obj
 0001:00011310       ??_Ginvalid_argument@_STL@@UAEPAXI@Z 10012310 f i stlport_vc6_static:dll_main.obj
 0001:00011310       ??_Einvalid_argument@_STL@@UAEPAXI@Z 10012310 f i stlport_vc6_static:dll_main.obj
 0001:00011330       ??0invalid_argument@_STL@@QAE@ABV01@@Z 10012330 f i stlport_vc6_static:dll_main.obj
 0001:00011380       ?__stl_throw_overflow_error@_STL@@YAXPBD@Z 10012380 f   stlport_vc6_static:dll_main.obj
 0001:00011500       ??_Eoverflow_error@_STL@@UAEPAXI@Z 10012500 f i stlport_vc6_static:dll_main.obj
 0001:00011500       ??_Goverflow_error@_STL@@UAEPAXI@Z 10012500 f i stlport_vc6_static:dll_main.obj
 0001:00011520       ??0overflow_error@_STL@@QAE@ABV01@@Z 10012520 f i stlport_vc6_static:dll_main.obj
 0001:00011570       ?__get_c_string@_STL@@YAPBDABV?$basic_string@DV?$char_traits@D@_STL@@V?$allocator@D@2@@1@@Z 10012570 f   stlport_vc6_static:dll_main.obj
 0001:00011590       ??0__Named_exception@_STL@@QAE@ABV?$basic_string@DV?$char_traits@D@_STL@@V?$allocator@D@2@@1@@Z 10012590 f   stlport_vc6_static:dll_main.obj
 0001:00011610       ?what@__Named_exception@_STL@@UBEPBDXZ 10012610 f   stlport_vc6_static:dll_main.obj
 0001:00011630       ??1__Named_exception@_STL@@UAE@XZ 10012630 f   stlport_vc6_static:dll_main.obj
 0001:00011650       ??1logic_error@_STL@@UAE@XZ 10012650 f   stlport_vc6_static:dll_main.obj
 0001:00011670       ??1runtime_error@_STL@@UAE@XZ 10012670 f   stlport_vc6_static:dll_main.obj
 0001:00011690       ??1domain_error@_STL@@UAE@XZ 10012690 f   stlport_vc6_static:dll_main.obj
 0001:000116b0       ??_Edomain_error@_STL@@UAEPAXI@Z 100126b0 f i stlport_vc6_static:dll_main.obj
 0001:000116b0       ??_Gdomain_error@_STL@@UAEPAXI@Z 100126b0 f i stlport_vc6_static:dll_main.obj
 0001:000116d0       ??1invalid_argument@_STL@@UAE@XZ 100126d0 f   stlport_vc6_static:dll_main.obj
 0001:000116f0       ??1length_error@_STL@@UAE@XZ 100126f0 f   stlport_vc6_static:dll_main.obj
 0001:00011710       ??1out_of_range@_STL@@UAE@XZ 10012710 f   stlport_vc6_static:dll_main.obj
 0001:00011730       ??1range_error@_STL@@UAE@XZ 10012730 f   stlport_vc6_static:dll_main.obj
 0001:00011750       ??1overflow_error@_STL@@UAE@XZ 10012750 f   stlport_vc6_static:dll_main.obj
 0001:00011770       ??1underflow_error@_STL@@UAE@XZ 10012770 f   stlport_vc6_static:dll_main.obj
 0001:00011790       ??_Eunderflow_error@_STL@@UAEPAXI@Z 10012790 f i stlport_vc6_static:dll_main.obj
 0001:00011790       ??_Gunderflow_error@_STL@@UAEPAXI@Z 10012790 f i stlport_vc6_static:dll_main.obj
 0001:000117b0       ??0?$basic_string@DV?$char_traits@D@_STL@@V?$allocator@D@2@@_STL@@QAE@ABV?$allocator@D@1@@Z 100127b0 f i stlport_vc6_static:dll_main.obj
 0001:00011930       ??0?$basic_string@DV?$char_traits@D@_STL@@V?$allocator@D@2@@_STL@@QAE@U_String_reserve_t@1@IABV?$allocator@D@1@@Z 10012930 f i stlport_vc6_static:dll_main.obj
 0001:00011ab0       ??0?$basic_string@DV?$char_traits@D@_STL@@V?$allocator@D@2@@_STL@@QAE@ABV01@IIABV?$allocator@D@1@@Z 10012ab0 f i stlport_vc6_static:dll_main.obj
 0001:00011da0       ??0?$basic_string@DV?$char_traits@D@_STL@@V?$allocator@D@2@@_STL@@QAE@PBDIABV?$allocator@D@1@@Z 10012da0 f i stlport_vc6_static:dll_main.obj
 0001:00011f80       ??0?$basic_string@DV?$char_traits@D@_STL@@V?$allocator@D@2@@_STL@@QAE@IDABV?$allocator@D@1@@Z 10012f80 f i stlport_vc6_static:dll_main.obj
 0001:000120d0       ??4?$basic_string@DV?$char_traits@D@_STL@@V?$allocator@D@2@@_STL@@QAEAAV01@ABV01@@Z 100130d0 f i stlport_vc6_static:dll_main.obj
 0001:000121d0       ??4?$basic_string@DV?$char_traits@D@_STL@@V?$allocator@D@2@@_STL@@QAEAAV01@D@Z 100131d0 f i stlport_vc6_static:dll_main.obj
 0001:00012300       ?_M_null@?$basic_string@DV?$char_traits@D@_STL@@V?$allocator@D@2@@_STL@@SADXZ 10013300 f i stlport_vc6_static:dll_main.obj
 0001:00012310       ?_M_construct_null_aux@?$basic_string@DV?$char_traits@D@_STL@@V?$allocator@D@2@@_STL@@AAEXPADABU__false_type@2@@Z 10013310 f i stlport_vc6_static:dll_main.obj
 0001:00012330       ?_M_construct_null_aux@?$basic_string@DV?$char_traits@D@_STL@@V?$allocator@D@2@@_STL@@AAEXPADABU__true_type@2@@Z 10013330 f i stlport_vc6_static:dll_main.obj
 0001:00012350       ?_M_construct_null@?$basic_string@DV?$char_traits@D@_STL@@V?$allocator@D@2@@_STL@@AAEXPAD@Z 10013350 f i stlport_vc6_static:dll_main.obj
 0001:00012370       ?_M_terminate_string_aux@?$basic_string@DV?$char_traits@D@_STL@@V?$allocator@D@2@@_STL@@AAEXABU__false_type@2@@Z 10013370 f i stlport_vc6_static:dll_main.obj
 0001:000123d0       ?_M_terminate_string_aux@?$basic_string@DV?$char_traits@D@_STL@@V?$allocator@D@2@@_STL@@AAEXABU__true_type@2@@Z 100133d0 f i stlport_vc6_static:dll_main.obj
 0001:000123f0       ?_M_terminate_string@?$basic_string@DV?$char_traits@D@_STL@@V?$allocator@D@2@@_STL@@AAEXXZ 100133f0 f i stlport_vc6_static:dll_main.obj
 0001:00012410       ?begin@?$basic_string@DV?$char_traits@D@_STL@@V?$allocator@D@2@@_STL@@QAEPADXZ 10013410 f i stlport_vc6_static:dll_main.obj
 0001:00012420       ?end@?$basic_string@DV?$char_traits@D@_STL@@V?$allocator@D@2@@_STL@@QAEPADXZ 10013420 f i stlport_vc6_static:dll_main.obj
 0001:00012440       ?begin@?$basic_string@DV?$char_traits@D@_STL@@V?$allocator@D@2@@_STL@@QBEPBDXZ 10013440 f i stlport_vc6_static:dll_main.obj
 0001:00012450       ?end@?$basic_string@DV?$char_traits@D@_STL@@V?$allocator@D@2@@_STL@@QBEPBDXZ 10013450 f i stlport_vc6_static:dll_main.obj
 0001:00012470       ?rbegin@?$basic_string@DV?$char_traits@D@_STL@@V?$allocator@D@2@@_STL@@QAE?AV?$reverse_iterator@PADDAADPADH@2@XZ 10013470 f i stlport_vc6_static:dll_main.obj
 0001:000124a0       ?rend@?$basic_string@DV?$char_traits@D@_STL@@V?$allocator@D@2@@_STL@@QAE?AV?$reverse_iterator@PADDAADPADH@2@XZ 100134a0 f i stlport_vc6_static:dll_main.obj
 0001:000124d0       ?rbegin@?$basic_string@DV?$char_traits@D@_STL@@V?$allocator@D@2@@_STL@@QBE?AV?$reverse_iterator@PBDDABDPBDH@2@XZ 100134d0 f i stlport_vc6_static:dll_main.obj
 0001:00012500       ?rend@?$basic_string@DV?$char_traits@D@_STL@@V?$allocator@D@2@@_STL@@QBE?AV?$reverse_iterator@PBDDABDPBDH@2@XZ 10013500 f i stlport_vc6_static:dll_main.obj
 0001:00012530       ?size@?$basic_string@DV?$char_traits@D@_STL@@V?$allocator@D@2@@_STL@@QBEIXZ 10013530 f i stlport_vc6_static:dll_main.obj
 0001:00012550       ?length@?$basic_string@DV?$char_traits@D@_STL@@V?$allocator@D@2@@_STL@@QBEIXZ 10013550 f i stlport_vc6_static:dll_main.obj
 0001:00012570       ?max_size@?$basic_string@DV?$char_traits@D@_STL@@V?$allocator@D@2@@_STL@@QBEIXZ 10013570 f i stlport_vc6_static:dll_main.obj
 0001:00012580       ?resize@?$basic_string@DV?$char_traits@D@_STL@@V?$allocator@D@2@@_STL@@QAEXID@Z 10013580 f i stlport_vc6_static:dll_main.obj
 0001:00012630       ?resize@?$basic_string@DV?$char_traits@D@_STL@@V?$allocator@D@2@@_STL@@QAEXI@Z 10013630 f i stlport_vc6_static:dll_main.obj
 0001:000126e0       ?capacity@?$basic_string@DV?$char_traits@D@_STL@@V?$allocator@D@2@@_STL@@QBEIXZ 100136e0 f i stlport_vc6_static:dll_main.obj
 0001:00012700       ?clear@?$basic_string@DV?$char_traits@D@_STL@@V?$allocator@D@2@@_STL@@QAEXXZ 10013700 f i stlport_vc6_static:dll_main.obj
 0001:00012750       ?empty@?$basic_string@DV?$char_traits@D@_STL@@V?$allocator@D@2@@_STL@@QBE_NXZ 10013750 f i stlport_vc6_static:dll_main.obj
 0001:00012770       ??A?$basic_string@DV?$char_traits@D@_STL@@V?$allocator@D@2@@_STL@@QBEABDI@Z 10013770 f i stlport_vc6_static:dll_main.obj
 0001:00012790       ??A?$basic_string@DV?$char_traits@D@_STL@@V?$allocator@D@2@@_STL@@QAEAADI@Z 10013790 f i stlport_vc6_static:dll_main.obj
 0001:000127b0       ?at@?$basic_string@DV?$char_traits@D@_STL@@V?$allocator@D@2@@_STL@@QBEABDI@Z 100137b0 f i stlport_vc6_static:dll_main.obj
 0001:000127f0       ?at@?$basic_string@DV?$char_traits@D@_STL@@V?$allocator@D@2@@_STL@@QAEAADI@Z 100137f0 f i stlport_vc6_static:dll_main.obj
 0001:00012830       ??Y?$basic_string@DV?$char_traits@D@_STL@@V?$allocator@D@2@@_STL@@QAEAAV01@ABV01@@Z 10013830 f i stlport_vc6_static:dll_main.obj
 0001:00012870       ??Y?$basic_string@DV?$char_traits@D@_STL@@V?$allocator@D@2@@_STL@@QAEAAV01@PBD@Z 10013870 f i stlport_vc6_static:dll_main.obj
 0001:000128c0       ??Y?$basic_string@DV?$char_traits@D@_STL@@V?$allocator@D@2@@_STL@@QAEAAV01@D@Z 100138c0 f i stlport_vc6_static:dll_main.obj
 0001:00012970       ?append@?$basic_string@DV?$char_traits@D@_STL@@V?$allocator@D@2@@_STL@@QAEAAV12@ABV12@@Z 10013970 f i stlport_vc6_static:dll_main.obj
 0001:000129b0       ?append@?$basic_string@DV?$char_traits@D@_STL@@V?$allocator@D@2@@_STL@@QAEAAV12@ABV12@II@Z 100139b0 f i stlport_vc6_static:dll_main.obj
 0001:00012a40       ?append@?$basic_string@DV?$char_traits@D@_STL@@V?$allocator@D@2@@_STL@@QAEAAV12@PBDI@Z 10013a40 f i stlport_vc6_static:dll_main.obj
 0001:00012a70       ?pop_back@?$basic_string@DV?$char_traits@D@_STL@@V?$allocator@D@2@@_STL@@QAEXXZ 10013a70 f i stlport_vc6_static:dll_main.obj
 0001:00012ab0       ?assign@?$basic_string@DV?$char_traits@D@_STL@@V?$allocator@D@2@@_STL@@QAEAAV12@ABV12@@Z 10013ab0 f i stlport_vc6_static:dll_main.obj
 0001:00012ba0       ?assign@?$basic_string@DV?$char_traits@D@_STL@@V?$allocator@D@2@@_STL@@QAEAAV12@ABV12@II@Z 10013ba0 f i stlport_vc6_static:dll_main.obj
 0001:00012ce0       ?assign@?$basic_string@DV?$char_traits@D@_STL@@V?$allocator@D@2@@_STL@@QAEAAV12@PBDI@Z 10013ce0 f i stlport_vc6_static:dll_main.obj
 0001:00012e30       ?assign@?$basic_string@DV?$char_traits@D@_STL@@V?$allocator@D@2@@_STL@@QAEAAV12@PBD@Z 10013e30 f i stlport_vc6_static:dll_main.obj
 0001:00012f90       ?insert@?$basic_string@DV?$char_traits@D@_STL@@V?$allocator@D@2@@_STL@@QAEAAV12@IABV12@@Z 10013f90 f i stlport_vc6_static:dll_main.obj
 0001:00013030       ?insert@?$basic_string@DV?$char_traits@D@_STL@@V?$allocator@D@2@@_STL@@QAEAAV12@IABV12@II@Z 10014030 f i stlport_vc6_static:dll_main.obj
 0001:00013110       ?insert@?$basic_string@DV?$char_traits@D@_STL@@V?$allocator@D@2@@_STL@@QAEAAV12@IPBDI@Z 10014110 f i stlport_vc6_static:dll_main.obj
 0001:00013190       ?insert@?$basic_string@DV?$char_traits@D@_STL@@V?$allocator@D@2@@_STL@@QAEAAV12@IPBD@Z 10014190 f i stlport_vc6_static:dll_main.obj
 0001:00013230       ?insert@?$basic_string@DV?$char_traits@D@_STL@@V?$allocator@D@2@@_STL@@QAEAAV12@IID@Z 10014230 f i stlport_vc6_static:dll_main.obj
 0001:000132b0       ?insert@?$basic_string@DV?$char_traits@D@_STL@@V?$allocator@D@2@@_STL@@QAEPADPADD@Z 100142b0 f i stlport_vc6_static:dll_main.obj
 0001:00013390       ?_M_copy@?$basic_string@DV?$char_traits@D@_STL@@V?$allocator@D@2@@_STL@@AAEXPBD0PAD@Z 10014390 f i stlport_vc6_static:dll_main.obj
 0001:000133e0       ?erase@?$basic_string@DV?$char_traits@D@_STL@@V?$allocator@D@2@@_STL@@QAEAAV12@II@Z 100143e0 f i stlport_vc6_static:dll_main.obj
 0001:000134c0       ?erase@?$basic_string@DV?$char_traits@D@_STL@@V?$allocator@D@2@@_STL@@QAEPADPAD@Z 100144c0 f i stlport_vc6_static:dll_main.obj
 0001:00013520       ?erase@?$basic_string@DV?$char_traits@D@_STL@@V?$allocator@D@2@@_STL@@QAEPADPAD0@Z 10014520 f i stlport_vc6_static:dll_main.obj
 0001:00013590       ?replace@?$basic_string@DV?$char_traits@D@_STL@@V?$allocator@D@2@@_STL@@QAEAAV12@IIABV12@@Z 10014590 f i stlport_vc6_static:dll_main.obj
 0001:00013810       ?replace@?$basic_string@DV?$char_traits@D@_STL@@V?$allocator@D@2@@_STL@@QAEAAV12@IIABV12@II@Z 10014810 f i stlport_vc6_static:dll_main.obj
 0001:00013b00       ?replace@?$basic_string@DV?$char_traits@D@_STL@@V?$allocator@D@2@@_STL@@QAEAAV12@IIPBDI@Z 10014b00 f i stlport_vc6_static:dll_main.obj
 0001:00013d80       ?replace@?$basic_string@DV?$char_traits@D@_STL@@V?$allocator@D@2@@_STL@@QAEAAV12@IIPBD@Z 10014d80 f i stlport_vc6_static:dll_main.obj
 0001:00014040       ?replace@?$basic_string@DV?$char_traits@D@_STL@@V?$allocator@D@2@@_STL@@QAEAAV12@IIID@Z 10015040 f i stlport_vc6_static:dll_main.obj
 0001:000141d0       ?replace@?$basic_string@DV?$char_traits@D@_STL@@V?$allocator@D@2@@_STL@@QAEAAV12@PAD0ABV12@@Z 100151d0 f i stlport_vc6_static:dll_main.obj
 0001:00014340       ?replace@?$basic_string@DV?$char_traits@D@_STL@@V?$allocator@D@2@@_STL@@QAEAAV12@PAD0PBDI@Z 10015340 f i stlport_vc6_static:dll_main.obj
 0001:000144b0       ?replace@?$basic_string@DV?$char_traits@D@_STL@@V?$allocator@D@2@@_STL@@QAEAAV12@PAD0PBD@Z 100154b0 f i stlport_vc6_static:dll_main.obj
 0001:00014640       ?copy@?$basic_string@DV?$char_traits@D@_STL@@V?$allocator@D@2@@_STL@@QBEIPADII@Z 10015640 f i stlport_vc6_static:dll_main.obj
 0001:000146e0       ?swap@?$basic_string@DV?$char_traits@D@_STL@@V?$allocator@D@2@@_STL@@QAEXAAV12@@Z 100156e0 f i stlport_vc6_static:dll_main.obj
 0001:00014750       ?c_str@?$basic_string@DV?$char_traits@D@_STL@@V?$allocator@D@2@@_STL@@QBEPBDXZ 10015750 f i stlport_vc6_static:dll_main.obj
 0001:00014760       ?data@?$basic_string@DV?$char_traits@D@_STL@@V?$allocator@D@2@@_STL@@QBEPBDXZ 10015760 f i stlport_vc6_static:dll_main.obj
 0001:00014770       ?find@?$basic_string@DV?$char_traits@D@_STL@@V?$allocator@D@2@@_STL@@QBEIABV12@I@Z 10015770 f i stlport_vc6_static:dll_main.obj
 0001:00014990       ?find@?$basic_string@DV?$char_traits@D@_STL@@V?$allocator@D@2@@_STL@@QBEIPBDI@Z 10015990 f i stlport_vc6_static:dll_main.obj
 0001:00014bb0       ?rfind@?$basic_string@DV?$char_traits@D@_STL@@V?$allocator@D@2@@_STL@@QBEIABV12@I@Z 10015bb0 f i stlport_vc6_static:dll_main.obj
 0001:00014e90       ?rfind@?$basic_string@DV?$char_traits@D@_STL@@V?$allocator@D@2@@_STL@@QBEIPBDI@Z 10015e90 f i stlport_vc6_static:dll_main.obj
 0001:00015170       ?find_first_of@?$basic_string@DV?$char_traits@D@_STL@@V?$allocator@D@2@@_STL@@QBEIABV12@I@Z 10016170 f i stlport_vc6_static:dll_main.obj
 0001:00015270       ?find_first_of@?$basic_string@DV?$char_traits@D@_STL@@V?$allocator@D@2@@_STL@@QBEIPBDI@Z 10016270 f i stlport_vc6_static:dll_main.obj
 0001:00015370       ?find_first_of@?$basic_string@DV?$char_traits@D@_STL@@V?$allocator@D@2@@_STL@@QBEIDI@Z 10016370 f i stlport_vc6_static:dll_main.obj
 0001:00015580       ?find_last_of@?$basic_string@DV?$char_traits@D@_STL@@V?$allocator@D@2@@_STL@@QBEIABV12@I@Z 10016580 f i stlport_vc6_static:dll_main.obj
 0001:00015690       ?find_last_of@?$basic_string@DV?$char_traits@D@_STL@@V?$allocator@D@2@@_STL@@QBEIPBDI@Z 10016690 f i stlport_vc6_static:dll_main.obj
 0001:000157a0       ?find_last_of@?$basic_string@DV?$char_traits@D@_STL@@V?$allocator@D@2@@_STL@@QBEIDI@Z 100167a0 f i stlport_vc6_static:dll_main.obj
 0001:000158a0       ?find_first_not_of@?$basic_string@DV?$char_traits@D@_STL@@V?$allocator@D@2@@_STL@@QBEIABV12@I@Z 100168a0 f i stlport_vc6_static:dll_main.obj
 0001:00016050       ?find_first_not_of@?$basic_string@DV?$char_traits@D@_STL@@V?$allocator@D@2@@_STL@@QBEIPBDI@Z 10017050 f i stlport_vc6_static:dll_main.obj
 0001:000167f0       ?find_last_not_of@?$basic_string@DV?$char_traits@D@_STL@@V?$allocator@D@2@@_STL@@QBEIABV12@I@Z 100177f0 f i stlport_vc6_static:dll_main.obj
 0001:00016910       ?find_last_not_of@?$basic_string@DV?$char_traits@D@_STL@@V?$allocator@D@2@@_STL@@QBEIPBDI@Z 10017910 f i stlport_vc6_static:dll_main.obj
 0001:00016a30       ?compare@?$basic_string@DV?$char_traits@D@_STL@@V?$allocator@D@2@@_STL@@QBEHABV12@@Z 10017a30 f i stlport_vc6_static:dll_main.obj
 0001:00016b00       ?compare@?$basic_string@DV?$char_traits@D@_STL@@V?$allocator@D@2@@_STL@@QBEHIIABV12@@Z 10017b00 f i stlport_vc6_static:dll_main.obj
 0001:00016c20       ?compare@?$basic_string@DV?$char_traits@D@_STL@@V?$allocator@D@2@@_STL@@QBEHIIABV12@II@Z 10017c20 f i stlport_vc6_static:dll_main.obj
 0001:00016d90       ?compare@?$basic_string@DV?$char_traits@D@_STL@@V?$allocator@D@2@@_STL@@QBEHPBD@Z 10017d90 f i stlport_vc6_static:dll_main.obj
 0001:00016e60       ?compare@?$basic_string@DV?$char_traits@D@_STL@@V?$allocator@D@2@@_STL@@QBEHIIPBD@Z 10017e60 f i stlport_vc6_static:dll_main.obj
 0001:00016f90       ?compare@?$basic_string@DV?$char_traits@D@_STL@@V?$allocator@D@2@@_STL@@QBEHIIPBDI@Z 10017f90 f i stlport_vc6_static:dll_main.obj
 0001:000170a0       ?_M_compare@?$basic_string@DV?$char_traits@D@_STL@@V?$allocator@D@2@@_STL@@SAHPBD000@Z 100180a0 f i stlport_vc6_static:dll_main.obj
 0001:00017140       ?max_size@?$_String_base@DV?$allocator@D@_STL@@@_STL@@QBEIXZ 10018140 f i stlport_vc6_static:dll_main.obj
 0001:00017150       ??0?$_String_base@DV?$allocator@D@_STL@@@_STL@@QAE@ABV?$allocator@D@1@I@Z 10018150 f i stlport_vc6_static:dll_main.obj
 0001:00017360       ?allocate@?$_STLP_alloc_proxy@PADDV?$allocator@D@_STL@@@_STL@@QAEPADI@Z 10018360 f i stlport_vc6_static:dll_main.obj
 0001:000173b0       ??0?$allocator@D@_STL@@QAE@XZ 100183b0 f i stlport_vc6_static:dll_main.obj
 0001:000173c0       ??0?$allocator@D@_STL@@QAE@ABV01@@Z 100183c0 f i stlport_vc6_static:dll_main.obj
 0001:000173d0       ?address@?$allocator@D@_STL@@QAEPADAAD@Z 100183d0 f i stlport_vc6_static:dll_main.obj
 0001:000173e0       ?address@?$allocator@D@_STL@@QBEPBDABD@Z 100183e0 f i stlport_vc6_static:dll_main.obj
 0001:000173f0       ?allocate@?$allocator@D@_STL@@QBEPADIPBX@Z 100183f0 f i stlport_vc6_static:dll_main.obj
 0001:00017440       ?deallocate@?$allocator@D@_STL@@QBEXPAD@Z 10018440 f i stlport_vc6_static:dll_main.obj
 0001:00017480       ?max_size@?$allocator@D@_STL@@QBEIXZ 10018480 f i stlport_vc6_static:dll_main.obj
 0001:00017490       ?construct@?$allocator@D@_STL@@QBEXPADABD@Z 10018490 f i stlport_vc6_static:dll_main.obj
 0001:000174d0       ?destroy@?$allocator@D@_STL@@QBEXPAD@Z 100184d0 f i stlport_vc6_static:dll_main.obj
 0001:000174e0       ?_S_round_up@?$__node_alloc@$0A@$0A@@_STL@@SAII@Z 100184e0 f i stlport_vc6_static:dll_main.obj
 0001:000174f0       ?allocate@?$__node_alloc@$0A@$0A@@_STL@@SAPAXI@Z 100184f0 f i stlport_vc6_static:dll_main.obj
 0001:00017530       ?deallocate@?$__node_alloc@$0A@$0A@@_STL@@SAXPAXI@Z 10018530 f i stlport_vc6_static:dll_main.obj
 0001:00017560       ?_S_round_up@?$__node_alloc@$00$0A@@_STL@@SAII@Z 10018560 f i stlport_vc6_static:dll_main.obj
 0001:00017570       ?allocate@?$__node_alloc@$00$0A@@_STL@@SAPAXI@Z 10018570 f i stlport_vc6_static:dll_main.obj
 0001:000175b0       ?__extra_before_chunk@?$__debug_alloc@V?$__node_alloc@$00$0A@@_STL@@@_STL@@CAIXZ 100185b0 f i stlport_vc6_static:dll_main.obj
 0001:000175c0       ?__extra_after_chunk@?$__debug_alloc@V?$__node_alloc@$00$0A@@_STL@@@_STL@@CAIXZ 100185c0 f i stlport_vc6_static:dll_main.obj
 0001:000175d0       ??0?$__debug_alloc@V?$__node_alloc@$00$0A@@_STL@@@_STL@@QAE@XZ 100185d0 f i stlport_vc6_static:dll_main.obj
 0001:000175e0       ??1?$__debug_alloc@V?$__node_alloc@$00$0A@@_STL@@@_STL@@QAE@XZ 100185e0 f i stlport_vc6_static:dll_main.obj
 0001:000175f0       ?__extra_before_chunk@?$__debug_alloc@V?$__node_alloc@$0A@$0A@@_STL@@@_STL@@CAIXZ 100185f0 f i stlport_vc6_static:dll_main.obj
 0001:00017600       ?__extra_after_chunk@?$__debug_alloc@V?$__node_alloc@$0A@$0A@@_STL@@@_STL@@CAIXZ 10018600 f i stlport_vc6_static:dll_main.obj
 0001:00017610       ??0?$__debug_alloc@V?$__node_alloc@$0A@$0A@@_STL@@@_STL@@QAE@XZ 10018610 f i stlport_vc6_static:dll_main.obj
 0001:00017620       ??1?$__debug_alloc@V?$__node_alloc@$0A@$0A@@_STL@@@_STL@@QAE@XZ 10018620 f i stlport_vc6_static:dll_main.obj
 0001:00017630       ?__extra_before_chunk@?$__debug_alloc@V__new_alloc@_STL@@@_STL@@CAIXZ 10018630 f i stlport_vc6_static:dll_main.obj
 0001:00017640       ?__extra_after_chunk@?$__debug_alloc@V__new_alloc@_STL@@@_STL@@CAIXZ 10018640 f i stlport_vc6_static:dll_main.obj
 0001:00017650       ??0?$__debug_alloc@V__new_alloc@_STL@@@_STL@@QAE@XZ 10018650 f i stlport_vc6_static:dll_main.obj
 0001:00017660       ??1?$__debug_alloc@V__new_alloc@_STL@@@_STL@@QAE@XZ 10018660 f i stlport_vc6_static:dll_main.obj
 0001:00017670       ?allocate@?$__malloc_alloc@$0A@@_STL@@SAPAXI@Z 10018670 f i stlport_vc6_static:dll_main.obj
 0001:000176e0       ??0bad_alloc@std@@QAE@PBD@Z 100186e0 f i stlport_vc6_static:dll_main.obj
 0001:00017700       ??1bad_alloc@std@@UAE@XZ   10018700 f i stlport_vc6_static:dll_main.obj
 0001:00017710       ?_Doraise@bad_alloc@std@@MBEXXZ 10018710 f i stlport_vc6_static:dll_main.obj
 0001:00017730       ??_Gbad_alloc@std@@UAEPAXI@Z 10018730 f i stlport_vc6_static:dll_main.obj
 0001:00017730       ??_Ebad_alloc@std@@UAEPAXI@Z 10018730 f i stlport_vc6_static:dll_main.obj
 0001:00017750       ??0bad_alloc@std@@QAE@ABV01@@Z 10018750 f i stlport_vc6_static:dll_main.obj
 0001:00017770       ?deallocate@?$__malloc_alloc@$0A@@_STL@@SAXPAXI@Z 10018770 f i stlport_vc6_static:dll_main.obj
 0001:00017790       ?set_malloc_handler@?$__malloc_alloc@$0A@@_STL@@SAP6AXXZP6AXXZ@Z 10018790 f i stlport_vc6_static:dll_main.obj
 0001:000177b0       ??0?$allocator@PAX@_STL@@QAE@XZ 100187b0 f i stlport_vc6_static:dll_main.obj
 0001:000177c0       ??0?$allocator@PAX@_STL@@QAE@ABV01@@Z 100187c0 f i stlport_vc6_static:dll_main.obj
 0001:000177d0       ??1?$allocator@PAX@_STL@@QAE@XZ 100187d0 f i stlport_vc6_static:dll_main.obj
 0001:000177e0       ?address@?$allocator@PAX@_STL@@QAEPAPAXAAPAX@Z 100187e0 f i stlport_vc6_static:dll_main.obj
 0001:000177f0       ?address@?$allocator@PAX@_STL@@QBEPBQAXABQAX@Z 100187f0 f i stlport_vc6_static:dll_main.obj
 0001:00017800       ?allocate@?$allocator@PAX@_STL@@QBEPAPAXIPBX@Z 10018800 f i stlport_vc6_static:dll_main.obj
 0001:00017860       ?deallocate@?$allocator@PAX@_STL@@QBEXPAPAXI@Z 10018860 f i stlport_vc6_static:dll_main.obj
 0001:000178b0       ?deallocate@?$allocator@PAX@_STL@@QBEXPAPAX@Z 100188b0 f i stlport_vc6_static:dll_main.obj
 0001:000178f0       ?max_size@?$allocator@PAX@_STL@@QBEIXZ 100188f0 f i stlport_vc6_static:dll_main.obj
 0001:00017900       ?construct@?$allocator@PAX@_STL@@QBEXPAPAXABQAX@Z 10018900 f i stlport_vc6_static:dll_main.obj
 0001:00017940       ?destroy@?$allocator@PAX@_STL@@QBEXPAPAX@Z 10018940 f i stlport_vc6_static:dll_main.obj
 0001:00017950       ??0?$_STLP_alloc_proxy@PAPAXPAXV?$allocator@PAX@_STL@@@_STL@@QAE@ABV?$allocator@PAX@1@PAPAX@Z 10018950 f i stlport_vc6_static:dll_main.obj
 0001:00017970       ?allocate@?$_STLP_alloc_proxy@PAPAXPAXV?$allocator@PAX@_STL@@@_STL@@QAEPAPAXI@Z 10018970 f i stlport_vc6_static:dll_main.obj
 0001:000179d0       ?deallocate@?$_STLP_alloc_proxy@PAPAXPAXV?$allocator@PAX@_STL@@@_STL@@QAEXPAPAXI@Z 100189d0 f i stlport_vc6_static:dll_main.obj
 0001:00017a20       ??0?$_Vector_base@PAXV?$allocator@PAX@_STL@@@_STL@@QAE@ABV?$allocator@PAX@1@@Z 10018a20 f i stlport_vc6_static:dll_main.obj
 0001:00017a60       ??0?$_Vector_base@PAXV?$allocator@PAX@_STL@@@_STL@@QAE@IABV?$allocator@PAX@1@@Z 10018a60 f i stlport_vc6_static:dll_main.obj
 0001:00017d60       ??1?$_Vector_base@PAXV?$allocator@PAX@_STL@@@_STL@@QAE@XZ 10018d60 f i stlport_vc6_static:dll_main.obj
 0001:00017e40       ?get_allocator@?$vector@PAXV?$allocator@PAX@_STL@@@_STL@@QBE?AV?$allocator@PAX@2@XZ 10018e40 f i stlport_vc6_static:dll_main.obj
 0001:00017e70       ?_M_insert_overflow@?$vector@PAXV?$allocator@PAX@_STL@@@_STL@@IAEXPAPAXABQAXABU__false_type@2@I_N@Z 10018e70 f i stlport_vc6_static:dll_main.obj
 0001:000181e0       ?_M_insert_overflow@?$vector@PAXV?$allocator@PAX@_STL@@@_STL@@IAEXPAPAXABQAXABU__true_type@2@I_N@Z 100191e0 f i stlport_vc6_static:dll_main.obj
 0001:000183b0       ?_M_range_check@?$vector@PAXV?$allocator@PAX@_STL@@@_STL@@IBEXI@Z 100193b0 f i stlport_vc6_static:dll_main.obj
 0001:000183e0       ?begin@?$vector@PAXV?$allocator@PAX@_STL@@@_STL@@QAEPAPAXXZ 100193e0 f i stlport_vc6_static:dll_main.obj
 0001:000183f0       ?begin@?$vector@PAXV?$allocator@PAX@_STL@@@_STL@@QBEPBQAXXZ 100193f0 f i stlport_vc6_static:dll_main.obj
 0001:00018400       ?end@?$vector@PAXV?$allocator@PAX@_STL@@@_STL@@QAEPAPAXXZ 10019400 f i stlport_vc6_static:dll_main.obj
 0001:00018420       ?end@?$vector@PAXV?$allocator@PAX@_STL@@@_STL@@QBEPBQAXXZ 10019420 f i stlport_vc6_static:dll_main.obj
 0001:00018440       ?rbegin@?$vector@PAXV?$allocator@PAX@_STL@@@_STL@@QAE?AV?$reverse_iterator@PAPAXPAXAAPAXPAPAXH@2@XZ 10019440 f i stlport_vc6_static:dll_main.obj
 0001:00018470       ?rbegin@?$vector@PAXV?$allocator@PAX@_STL@@@_STL@@QBE?AV?$reverse_iterator@PBQAXPAXABQAXPBQAXH@2@XZ 10019470 f i stlport_vc6_static:dll_main.obj
 0001:000184a0       ?rend@?$vector@PAXV?$allocator@PAX@_STL@@@_STL@@QAE?AV?$reverse_iterator@PAPAXPAXAAPAXPAPAXH@2@XZ 100194a0 f i stlport_vc6_static:dll_main.obj
 0001:000184d0       ?rend@?$vector@PAXV?$allocator@PAX@_STL@@@_STL@@QBE?AV?$reverse_iterator@PBQAXPAXABQAXPBQAXH@2@XZ 100194d0 f i stlport_vc6_static:dll_main.obj
 0001:00018500       ?size@?$vector@PAXV?$allocator@PAX@_STL@@@_STL@@QBEIXZ 10019500 f i stlport_vc6_static:dll_main.obj
 0001:00018520       ?max_size@?$vector@PAXV?$allocator@PAX@_STL@@@_STL@@QBEIXZ 10019520 f i stlport_vc6_static:dll_main.obj
 0001:00018530       ?capacity@?$vector@PAXV?$allocator@PAX@_STL@@@_STL@@QBEIXZ 10019530 f i stlport_vc6_static:dll_main.obj
 0001:00018550       ?empty@?$vector@PAXV?$allocator@PAX@_STL@@@_STL@@QBE_NXZ 10019550 f i stlport_vc6_static:dll_main.obj
 0001:00018570       ??A?$vector@PAXV?$allocator@PAX@_STL@@@_STL@@QAEAAPAXI@Z 10019570 f i stlport_vc6_static:dll_main.obj
 0001:00018590       ??A?$vector@PAXV?$allocator@PAX@_STL@@@_STL@@QBEABQAXI@Z 10019590 f i stlport_vc6_static:dll_main.obj
 0001:000185b0       ?front@?$vector@PAXV?$allocator@PAX@_STL@@@_STL@@QAEAAPAXXZ 100195b0 f i stlport_vc6_static:dll_main.obj
 0001:000185d0       ?front@?$vector@PAXV?$allocator@PAX@_STL@@@_STL@@QBEABQAXXZ 100195d0 f i stlport_vc6_static:dll_main.obj
 0001:000185f0       ?back@?$vector@PAXV?$allocator@PAX@_STL@@@_STL@@QAEAAPAXXZ 100195f0 f i stlport_vc6_static:dll_main.obj
 0001:00018610       ?back@?$vector@PAXV?$allocator@PAX@_STL@@@_STL@@QBEABQAXXZ 10019610 f i stlport_vc6_static:dll_main.obj
 0001:00018630       ?at@?$vector@PAXV?$allocator@PAX@_STL@@@_STL@@QAEAAPAXI@Z 10019630 f i stlport_vc6_static:dll_main.obj
 0001:00018670       ?at@?$vector@PAXV?$allocator@PAX@_STL@@@_STL@@QBEABQAXI@Z 10019670 f i stlport_vc6_static:dll_main.obj
 0001:000186b0       ??0?$vector@PAXV?$allocator@PAX@_STL@@@_STL@@QAE@ABV?$allocator@PAX@1@@Z 100196b0 f i stlport_vc6_static:dll_main.obj
 0001:000186f0       ??0?$vector@PAXV?$allocator@PAX@_STL@@@_STL@@QAE@IABQAXABV?$allocator@PAX@1@@Z 100196f0 f i stlport_vc6_static:dll_main.obj
 0001:00018930       ??0?$vector@PAXV?$allocator@PAX@_STL@@@_STL@@QAE@I@Z 10019930 f i stlport_vc6_static:dll_main.obj
 0001:00018ae0       ??0?$vector@PAXV?$allocator@PAX@_STL@@@_STL@@QAE@ABV01@@Z 10019ae0 f i stlport_vc6_static:dll_main.obj
 0001:00018cc0       ??1?$vector@PAXV?$allocator@PAX@_STL@@@_STL@@QAE@XZ 10019cc0 f i stlport_vc6_static:dll_main.obj
 0001:00018da0       ?assign@?$vector@PAXV?$allocator@PAX@_STL@@@_STL@@QAEXIABQAX@Z 10019da0 f i stlport_vc6_static:dll_main.obj
 0001:00018dc0       ?push_back@?$vector@PAXV?$allocator@PAX@_STL@@@_STL@@QAEXABQAX@Z 10019dc0 f i stlport_vc6_static:dll_main.obj
 0001:00018ff0       ?swap@?$vector@PAXV?$allocator@PAX@_STL@@@_STL@@QAEXAAV12@@Z 10019ff0 f i stlport_vc6_static:dll_main.obj
 0001:00019060       ?insert@?$vector@PAXV?$allocator@PAX@_STL@@@_STL@@QAEPAPAXPAPAXABQAX@Z 1001a060 f i stlport_vc6_static:dll_main.obj
 0001:00019370       ?push_back@?$vector@PAXV?$allocator@PAX@_STL@@@_STL@@QAEXXZ 1001a370 f i stlport_vc6_static:dll_main.obj
 0001:000195a0       ?insert@?$vector@PAXV?$allocator@PAX@_STL@@@_STL@@QAEPAPAXPAPAX@Z 1001a5a0 f i stlport_vc6_static:dll_main.obj
 0001:000198a0       ?insert@?$vector@PAXV?$allocator@PAX@_STL@@@_STL@@QAEXPAPAXIABQAX@Z 1001a8a0 f i stlport_vc6_static:dll_main.obj
 0001:00019d50       ?pop_back@?$vector@PAXV?$allocator@PAX@_STL@@@_STL@@QAEXXZ 1001ad50 f i stlport_vc6_static:dll_main.obj
 0001:00019d70       ?erase@?$vector@PAXV?$allocator@PAX@_STL@@@_STL@@QAEPAPAXPAPAX@Z 1001ad70 f i stlport_vc6_static:dll_main.obj
 0001:00019df0       ?erase@?$vector@PAXV?$allocator@PAX@_STL@@@_STL@@QAEPAPAXPAPAX0@Z 1001adf0 f i stlport_vc6_static:dll_main.obj
 0001:00019e50       ?resize@?$vector@PAXV?$allocator@PAX@_STL@@@_STL@@QAEXIABQAX@Z 1001ae50 f i stlport_vc6_static:dll_main.obj
 0001:0001a3b0       ?resize@?$vector@PAXV?$allocator@PAX@_STL@@@_STL@@QAEXI@Z 1001b3b0 f i stlport_vc6_static:dll_main.obj
 0001:0001a8c0       ?clear@?$vector@PAXV?$allocator@PAX@_STL@@@_STL@@QAEXXZ 1001b8c0 f i stlport_vc6_static:dll_main.obj
 0001:0001a930       ?_M_clear@?$vector@PAXV?$allocator@PAX@_STL@@@_STL@@IAEXXZ 1001b930 f i stlport_vc6_static:dll_main.obj
 0001:0001a990       ?_M_set@?$vector@PAXV?$allocator@PAX@_STL@@@_STL@@IAEXPAPAX00@Z 1001b990 f i stlport_vc6_static:dll_main.obj
 0001:0001a9c0       ?__previous@?$_Sl_global@_N@_STL@@SAPBU_Slist_node_base@2@PBU32@0@Z 1001b9c0 f i stlport_vc6_static:dll_main.obj
 0001:0001a9f0       ??1?$_STLP_alloc_proxy@PAPAXPAXV?$allocator@PAX@_STL@@@_STL@@QAE@XZ 1001b9f0 f i stlport_vc6_static:dll_main.obj
 0001:0001aa00       ??0?$reverse_iterator@PBDDABDPBDH@_STL@@QAE@PBD@Z 1001ba00 f i stlport_vc6_static:dll_main.obj
 0001:0001aa20       ?_M_throw_length_error@?$_String_base@DV?$allocator@D@_STL@@@_STL@@QBEXXZ 1001ba20 f i stlport_vc6_static:dll_main.obj
 0001:0001aa40       ?_M_throw_out_of_range@?$_String_base@DV?$allocator@D@_STL@@@_STL@@QBEXXZ 1001ba40 f i stlport_vc6_static:dll_main.obj
 0001:0001aa60       ??0?$basic_string@DV?$char_traits@D@_STL@@V?$allocator@D@2@@_STL@@QAE@XZ 1001ba60 f i stlport_vc6_static:dll_main.obj
 0001:0001ac50       ?append@?$basic_string@DV?$char_traits@D@_STL@@V?$allocator@D@2@@_STL@@QAEAAV12@ID@Z 1001bc50 f i stlport_vc6_static:dll_main.obj
 0001:0001adc0       ?assign@?$basic_string@DV?$char_traits@D@_STL@@V?$allocator@D@2@@_STL@@QAEAAV12@ID@Z 1001bdc0 f i stlport_vc6_static:dll_main.obj
 0001:0001aee0       ?insert@?$basic_string@DV?$char_traits@D@_STL@@V?$allocator@D@2@@_STL@@QAEXPADID@Z 1001bee0 f i stlport_vc6_static:dll_main.obj
 0001:0001b4d0       ?_M_insert_aux@?$basic_string@DV?$char_traits@D@_STL@@V?$allocator@D@2@@_STL@@AAEPADPADD@Z 1001c4d0 f i stlport_vc6_static:dll_main.obj
 0001:0001b960       ?replace@?$basic_string@DV?$char_traits@D@_STL@@V?$allocator@D@2@@_STL@@QAEAAV12@PAD0ID@Z 1001c960 f i stlport_vc6_static:dll_main.obj
 0001:0001ba50       ?find@?$basic_string@DV?$char_traits@D@_STL@@V?$allocator@D@2@@_STL@@QBEIDI@Z 1001ca50 f i stlport_vc6_static:dll_main.obj
 0001:0001bc50       ?find@?$basic_string@DV?$char_traits@D@_STL@@V?$allocator@D@2@@_STL@@QBEIPBDII@Z 1001cc50 f i stlport_vc6_static:dll_main.obj
 0001:0001be50       ?rfind@?$basic_string@DV?$char_traits@D@_STL@@V?$allocator@D@2@@_STL@@QBEIDI@Z 1001ce50 f i stlport_vc6_static:dll_main.obj
 0001:0001bf40       ?rfind@?$basic_string@DV?$char_traits@D@_STL@@V?$allocator@D@2@@_STL@@QBEIPBDII@Z 1001cf40 f i stlport_vc6_static:dll_main.obj
 0001:0001c1f0       ?find_first_of@?$basic_string@DV?$char_traits@D@_STL@@V?$allocator@D@2@@_STL@@QBEIPBDII@Z 1001d1f0 f i stlport_vc6_static:dll_main.obj
 0001:0001c2d0       ?find_last_of@?$basic_string@DV?$char_traits@D@_STL@@V?$allocator@D@2@@_STL@@QBEIPBDII@Z 1001d2d0 f i stlport_vc6_static:dll_main.obj
 0001:0001c3c0       ?find_first_not_of@?$basic_string@DV?$char_traits@D@_STL@@V?$allocator@D@2@@_STL@@QBEIDI@Z 1001d3c0 f i stlport_vc6_static:dll_main.obj
 0001:0001c610       ?find_first_not_of@?$basic_string@DV?$char_traits@D@_STL@@V?$allocator@D@2@@_STL@@QBEIPBDII@Z 1001d610 f i stlport_vc6_static:dll_main.obj
 0001:0001cd80       ?find_last_not_of@?$basic_string@DV?$char_traits@D@_STL@@V?$allocator@D@2@@_STL@@QBEIDI@Z 1001dd80 f i stlport_vc6_static:dll_main.obj
 0001:0001ce70       ?find_last_not_of@?$basic_string@DV?$char_traits@D@_STL@@V?$allocator@D@2@@_STL@@QBEIPBDII@Z 1001de70 f i stlport_vc6_static:dll_main.obj
 0001:0001cf70       ?_Message@?$__stl_debug_engine@_N@_STL@@SAXPBDZZ 1001df70 f i stlport_vc6_static:dll_main.obj
 0001:0001cfd0       ?_IndexedError@?$__stl_debug_engine@_N@_STL@@SAXHPBDH@Z 1001dfd0 f i stlport_vc6_static:dll_main.obj
 0001:0001d000       ?_Assert@?$__stl_debug_engine@_N@_STL@@SAXPBD0H@Z 1001e000 f i stlport_vc6_static:dll_main.obj
 0001:0001d030       ?_VerboseAssert@?$__stl_debug_engine@_N@_STL@@SAXPBDH0H@Z 1001e030 f i stlport_vc6_static:dll_main.obj
 0001:0001d070       ?_Terminate@?$__stl_debug_engine@_N@_STL@@SAXXZ 1001e070 f i stlport_vc6_static:dll_main.obj
 0001:0001d080       ?_S_refill@?$__node_alloc@$0A@$0A@@_STL@@CAPAXI@Z 1001e080 f i stlport_vc6_static:dll_main.obj
 0001:0001d2c0       ?_S_chunk_alloc@?$__node_alloc@$0A@$0A@@_STL@@CAPADIAAH@Z 1001e2c0 f i stlport_vc6_static:dll_main.obj
 0001:0001d470       ?_M_allocate@?$__node_alloc@$0A@$0A@@_STL@@CAPAXI@Z 1001e470 f i stlport_vc6_static:dll_main.obj
 0001:0001d6d0       ?_M_deallocate@?$__node_alloc@$0A@$0A@@_STL@@CAXPAXI@Z 1001e6d0 f i stlport_vc6_static:dll_main.obj
 0001:0001d840       ?allocate@?$__debug_alloc@V?$__node_alloc@$00$0A@@_STL@@@_STL@@SAPAXI@Z 1001e840 f i stlport_vc6_static:dll_main.obj
 0001:0001d8e0       ?deallocate@?$__debug_alloc@V?$__node_alloc@$00$0A@@_STL@@@_STL@@SAXPAXI@Z 1001e8e0 f i stlport_vc6_static:dll_main.obj
 0001:0001d9a0       ?allocate@?$__debug_alloc@V?$__node_alloc@$0A@$0A@@_STL@@@_STL@@SAPAXI@Z 1001e9a0 f i stlport_vc6_static:dll_main.obj
 0001:0001da40       ?deallocate@?$__debug_alloc@V?$__node_alloc@$0A@$0A@@_STL@@@_STL@@SAXPAXI@Z 1001ea40 f i stlport_vc6_static:dll_main.obj
 0001:0001db00       ?allocate@?$__debug_alloc@V__new_alloc@_STL@@@_STL@@SAPAXI@Z 1001eb00 f i stlport_vc6_static:dll_main.obj
 0001:0001db80       ?deallocate@?$__debug_alloc@V__new_alloc@_STL@@@_STL@@SAXPAXI@Z 1001eb80 f i stlport_vc6_static:dll_main.obj
 0001:0001dc20       ?_S_oom_malloc@?$__malloc_alloc@$0A@@_STL@@CAPAXI@Z 1001ec20 f i stlport_vc6_static:dll_main.obj
 0001:0001dc80       ??4?$vector@PAXV?$allocator@PAX@_STL@@@_STL@@QAEAAV01@ABV01@@Z 1001ec80 f i stlport_vc6_static:dll_main.obj
 0001:0001de80       ?reserve@?$vector@PAXV?$allocator@PAX@_STL@@@_STL@@QAEXI@Z 1001ee80 f i stlport_vc6_static:dll_main.obj
 0001:0001dfa0       ?_M_fill_assign@?$vector@PAXV?$allocator@PAX@_STL@@@_STL@@QAEXIABQAX@Z 1001efa0 f i stlport_vc6_static:dll_main.obj
 0001:0001e2a0       ?_M_fill_insert@?$vector@PAXV?$allocator@PAX@_STL@@@_STL@@QAEXPAPAXIABQAX@Z 1001f2a0 f i stlport_vc6_static:dll_main.obj
 0001:0001e7a0       ?_Rebalance@?$_Rb_global@_N@_STL@@SAXPAU_Rb_tree_node_base@2@AAPAU32@@Z 1001f7a0 f i stlport_vc6_static:dll_main.obj
 0001:0001eb20       ?_Rebalance_for_erase@?$_Rb_global@_N@_STL@@SAPAU_Rb_tree_node_base@2@PAU32@AAPAU32@11@Z 1001fb20 f i stlport_vc6_static:dll_main.obj
 0001:0001f270       ?_M_increment@?$_Rb_global@_N@_STL@@SAPAU_Rb_tree_node_base@2@PAU32@@Z 10020270 f i stlport_vc6_static:dll_main.obj
 0001:0001f2e0       ?_M_decrement@?$_Rb_global@_N@_STL@@SAPAU_Rb_tree_node_base@2@PAU32@@Z 100202e0 f i stlport_vc6_static:dll_main.obj
 0001:0001f370       ?_Rotate_left@?$_Rb_global@_N@_STL@@SAXPAU_Rb_tree_node_base@2@AAPAU32@@Z 10020370 f i stlport_vc6_static:dll_main.obj
 0001:0001f400       ?_Rotate_right@?$_Rb_global@_N@_STL@@SAXPAU_Rb_tree_node_base@2@AAPAU32@@Z 10020400 f i stlport_vc6_static:dll_main.obj
 0001:0001f490       ?_Transfer@?$_List_global@_N@_STL@@SAXPAU_List_node_base@2@00@Z 10020490 f i stlport_vc6_static:dll_main.obj
 0001:0001f4f0       ?size@?$_Sl_global@_N@_STL@@SAIPAU_Slist_node_base@2@@Z 100204f0 f i stlport_vc6_static:dll_main.obj
 0001:0001f520       ?__reverse@?$_Sl_global@_N@_STL@@SAPAU_Slist_node_base@2@PAU32@@Z 10020520 f i stlport_vc6_static:dll_main.obj
 0001:0001f570       ?__splice_after@?$_Sl_global@_N@_STL@@SAXPAU_Slist_node_base@2@0@Z 10020570 f i stlport_vc6_static:dll_main.obj
 0001:0001f5e0       ?__splice_after@?$_Sl_global@_N@_STL@@SAXPAU_Slist_node_base@2@00@Z 100205e0 f i stlport_vc6_static:dll_main.obj
 0001:0001f630       ?__previous@?$_Sl_global@_N@_STL@@SAPAU_Slist_node_base@2@PAU32@PBU32@@Z 10020630 f i stlport_vc6_static:dll_main.obj
 0001:0001f660       ?assign@?$basic_string@DV?$char_traits@D@_STL@@V?$allocator@D@2@@_STL@@QAEAAV12@PAD0@Z 10020660 f i stlport_vc6_static:dll_main.obj
 0001:0001f740       ?append@?$basic_string@DV?$char_traits@D@_STL@@V?$allocator@D@2@@_STL@@QAEAAV12@PAD0@Z 10020740 f i stlport_vc6_static:dll_main.obj
 0001:0001f770       ?append@?$basic_string@DV?$char_traits@D@_STL@@V?$allocator@D@2@@_STL@@QAEAAV12@PBD0@Z 10020770 f i stlport_vc6_static:dll_main.obj
 0001:0001f7a0       ?insert@?$basic_string@DV?$char_traits@D@_STL@@V?$allocator@D@2@@_STL@@QAEXPAD00@Z 100207a0 f i stlport_vc6_static:dll_main.obj
 0001:0001f7d0       ?insert@?$basic_string@DV?$char_traits@D@_STL@@V?$allocator@D@2@@_STL@@QAEXPADPBD1@Z 100207d0 f i stlport_vc6_static:dll_main.obj
 0001:0001f800       ?replace@?$basic_string@DV?$char_traits@D@_STL@@V?$allocator@D@2@@_STL@@QAEAAV12@PAD000@Z 10020800 f i stlport_vc6_static:dll_main.obj
 0001:0001f960       ?replace@?$basic_string@DV?$char_traits@D@_STL@@V?$allocator@D@2@@_STL@@QAEAAV12@PAD0PBD1@Z 10020960 f i stlport_vc6_static:dll_main.obj
 0001:0001fad0       ?swap@_STL@@YAXAAV?$_STLP_alloc_proxy@PADDV?$allocator@D@_STL@@@1@0@Z 10020ad0 f i stlport_vc6_static:dll_main.obj
 0001:0001fb00       ??0?$basic_string@DV?$char_traits@D@_STL@@V?$allocator@D@2@@_STL@@QAE@PAD0@Z 10020b00 f i stlport_vc6_static:dll_main.obj
 0001:0001fd60       ?__uninitialized_copy@_STL@@YAPAPAXPAPAX00ABU__false_type@1@@Z 10020d60 f i stlport_vc6_static:dll_main.obj
 0001:0001fe00       ?__uninitialized_fill_n@_STL@@YAPAPAXPAPAXIABQAXABU__false_type@1@@Z 10020e00 f i stlport_vc6_static:dll_main.obj
 0001:0001fe90       ?fill_n@_STL@@YAPAPAXPAPAXIABQAX@Z 10020e90 f i stlport_vc6_static:dll_main.obj
 0001:0001fec0       ?swap@_STL@@YAXAAV?$_STLP_alloc_proxy@PAPAXPAXV?$allocator@PAX@_STL@@@1@0@Z 10020ec0 f i stlport_vc6_static:dll_main.obj
 0001:0001fef0       ??0?$_STLP_alloc_proxy@PADDV?$allocator@D@_STL@@@_STL@@QAE@ABV01@@Z 10020ef0 f i stlport_vc6_static:dll_main.obj
 0001:0001ff10       ??0?$_STLP_alloc_proxy@PAPAXPAXV?$allocator@PAX@_STL@@@_STL@@QAE@ABV01@@Z 10020f10 f i stlport_vc6_static:dll_main.obj
 0001:0001ff30       ??0?$reverse_iterator@PBDDABDPBDH@_STL@@QAE@ABV01@@Z 10020f30 f i stlport_vc6_static:dll_main.obj
 0001:0001ff60       ??1?$_Node_Alloc_Lock@$0A@$0A@@_STL@@QAE@XZ 10020f60 f i stlport_vc6_static:dll_main.obj
 0001:0001ff90       ?find_if@_STL@@YA?AV?$reverse_iterator@PBDDABDPBDH@1@V21@0U?$_Eq_char_bound@V?$char_traits@D@_STL@@@1@@Z 10020f90 f i stlport_vc6_static:dll_main.obj
 0001:0001ffd0       ?__find_first_of@_STL@@YA?AV?$reverse_iterator@PBDDABDPBDH@1@V21@0PBD1U?$_Eq_traits@V?$char_traits@D@_STL@@@1@@Z 10020fd0 f i stlport_vc6_static:dll_main.obj
 0001:00020060       ?find_if@_STL@@YA?AV?$reverse_iterator@PBDDABDPBDH@1@V21@0U?$_Neq_char_bound@V?$char_traits@D@_STL@@@1@@Z 10021060 f i stlport_vc6_static:dll_main.obj
 0001:000200a0       ?find_if@_STL@@YA?AV?$reverse_iterator@PBDDABDPBDH@1@V21@0U?$_Not_within_traits@V?$char_traits@D@_STL@@@1@@Z 100210a0 f i stlport_vc6_static:dll_main.obj
 0001:000200f0       ?_M_allocate_and_copy@?$vector@PAXV?$allocator@PAX@_STL@@@_STL@@IAEPAPAXIPBQAX0@Z 100210f0 f i stlport_vc6_static:dll_main.obj
 0001:000204a0       ?_S_nsec_sleep@?$_STLP_mutex_spin@$0A@@_STL@@SAXH@Z 100214a0 f i stlport_vc6_static:dll_main.obj
 0001:000204d0       ?_M_allocate_and_copy@?$vector@PAXV?$allocator@PAX@_STL@@@_STL@@IAEPAPAXIPAPAX0@Z 100214d0 f i stlport_vc6_static:dll_main.obj
 0001:00020880       ?_M_assign_dispatch@?$basic_string@DV?$char_traits@D@_STL@@V?$allocator@D@2@@_STL@@AAEAAV12@PAD0ABU__false_type@2@@Z 10021880 f i stlport_vc6_static:dll_main.obj
 0001:00020950       ?_M_insert_dispatch@?$basic_string@DV?$char_traits@D@_STL@@V?$allocator@D@2@@_STL@@AAEXPAD00ABU__false_type@2@@Z 10021950 f i stlport_vc6_static:dll_main.obj
 0001:00020980       ?_M_insert_dispatch@?$basic_string@DV?$char_traits@D@_STL@@V?$allocator@D@2@@_STL@@AAEXPADPBD1ABU__false_type@2@@Z 10021980 f i stlport_vc6_static:dll_main.obj
 0001:000209b0       ?_M_replace_dispatch@?$basic_string@DV?$char_traits@D@_STL@@V?$allocator@D@2@@_STL@@AAEAAV12@PAD000ABU__false_type@2@@Z 100219b0 f i stlport_vc6_static:dll_main.obj
 0001:00020b10       ?_M_replace_dispatch@?$basic_string@DV?$char_traits@D@_STL@@V?$allocator@D@2@@_STL@@AAEAAV12@PAD0PBD1ABU__false_type@2@@Z 10021b10 f i stlport_vc6_static:dll_main.obj
 0001:00020c80       ?_M_initialize_dispatch@?$basic_string@DV?$char_traits@D@_STL@@V?$allocator@D@2@@_STL@@AAEXPAD0ABU__false_type@2@@Z 10021c80 f i stlport_vc6_static:dll_main.obj
 0001:00020dd0       ?__find_if@_STL@@YA?AV?$reverse_iterator@PBDDABDPBDH@1@V21@0U?$_Eq_char_bound@V?$char_traits@D@_STL@@@1@ABUrandom_access_iterator_tag@1@@Z 10021dd0 f i stlport_vc6_static:dll_main.obj
 0001:00020f90       ?__find_if@_STL@@YA?AV?$reverse_iterator@PBDDABDPBDH@1@V21@0U?$_Neq_char_bound@V?$char_traits@D@_STL@@@1@ABUrandom_access_iterator_tag@1@@Z 10021f90 f i stlport_vc6_static:dll_main.obj
 0001:000211a0       ?__find_if@_STL@@YA?AV?$reverse_iterator@PBDDABDPBDH@1@V21@0U?$_Not_within_traits@V?$char_traits@D@_STL@@@1@ABUrandom_access_iterator_tag@1@@Z 100221a0 f i stlport_vc6_static:dll_main.obj
 0001:00021610       ?insert@?$basic_string@DV?$char_traits@D@_STL@@V?$allocator@D@2@@_STL@@AAEXPAD00ABUforward_iterator_tag@2@@Z 10022610 f i stlport_vc6_static:dll_main.obj
 0001:00021c90       ?insert@?$basic_string@DV?$char_traits@D@_STL@@V?$allocator@D@2@@_STL@@AAEXPADPBD1ABUforward_iterator_tag@2@@Z 10022c90 f i stlport_vc6_static:dll_main.obj
 0001:00022360       ?replace@?$basic_string@DV?$char_traits@D@_STL@@V?$allocator@D@2@@_STL@@AAEAAV12@PAD000ABUforward_iterator_tag@2@@Z 10023360 f i stlport_vc6_static:dll_main.obj
 0001:000224b0       ?replace@?$basic_string@DV?$char_traits@D@_STL@@V?$allocator@D@2@@_STL@@AAEAAV12@PAD0PBD1ABUforward_iterator_tag@2@@Z 100234b0 f i stlport_vc6_static:dll_main.obj
 0001:00022610       ?_M_copy@?$basic_string@DV?$char_traits@D@_STL@@V?$allocator@D@2@@_STL@@AAEXPAD00@Z 10023610 f i stlport_vc6_static:dll_main.obj
 0001:00022650       ?__find_if@_STL@@YAPADPAD0U?$_Eq_char_bound@V?$char_traits@D@_STL@@@1@ABUrandom_access_iterator_tag@1@@Z 10023650 f i stlport_vc6_static:dll_main.obj
 0001:00022800       ??0_Locale_impl@_STL@@QAE@PBD@Z 10023800 f   stlport_vc6_static:locale_impl.obj
 0001:000228e0       ??_G_Locale_impl@_STL@@UAEPAXI@Z 100238e0 f i stlport_vc6_static:locale_impl.obj
 0001:000228e0       ??_E_Locale_impl@_STL@@UAEPAXI@Z 100238e0 f i stlport_vc6_static:locale_impl.obj
 0001:00022900       ??1_Locale_impl@_STL@@UAE@XZ 10023900 f   stlport_vc6_static:locale_impl.obj
 0001:00022990       ?incr@_Locale_impl@_STL@@UAEXXZ 10023990 f   stlport_vc6_static:locale_impl.obj
 0001:000229a0       ?decr@_Locale_impl@_STL@@UAEXXZ 100239a0 f   stlport_vc6_static:locale_impl.obj
 0001:000229b0       ?_M_throw_bad_cast@_Locale_impl@_STL@@SAXXZ 100239b0 f   stlport_vc6_static:locale_impl.obj
 0001:000229d0       ??0bad_cast@@QAE@XZ        100239d0 f i stlport_vc6_static:locale_impl.obj
 0001:00022a00       ??_Gbad_cast@@UAEPAXI@Z    10023a00 f i stlport_vc6_static:locale_impl.obj
 0001:00022a00       ??_Ebad_cast@@UAEPAXI@Z    10023a00 f i stlport_vc6_static:locale_impl.obj
 0001:00022a20       ??1bad_cast@@UAE@XZ        10023a20 f i stlport_vc6_static:locale_impl.obj
 0001:00022a30       ??0bad_cast@@QAE@ABV0@@Z   10023a30 f i stlport_vc6_static:locale_impl.obj
 0001:00022a90       ?make_classic_locale@_Locale_impl@_STL@@SAPAV12@XZ 10023a90 f   stlport_vc6_static:locale_impl.obj
 0001:00022f10       ??3@YAXPAX0@Z              10023f10 f i stlport_vc6_static:locale_impl.obj
 0001:00022f20       ??_E?$codecvt@DDH@_STL@@MAEPAXI@Z 10023f20 f i stlport_vc6_static:locale_impl.obj
 0001:00022f20       ??_G?$codecvt@DDH@_STL@@MAEPAXI@Z 10023f20 f i stlport_vc6_static:locale_impl.obj
 0001:00022f40       ??_G?$codecvt@GDH@_STL@@MAEPAXI@Z 10023f40 f i stlport_vc6_static:locale_impl.obj
 0001:00022f40       ??_E?$codecvt@GDH@_STL@@MAEPAXI@Z 10023f40 f i stlport_vc6_static:locale_impl.obj
 0001:00022f60       ??_E?$collate@D@_STL@@MAEPAXI@Z 10023f60 f i stlport_vc6_static:locale_impl.obj
 0001:00022f60       ??_G?$collate@D@_STL@@MAEPAXI@Z 10023f60 f i stlport_vc6_static:locale_impl.obj
 0001:00022f80       ??_G?$collate@G@_STL@@MAEPAXI@Z 10023f80 f i stlport_vc6_static:locale_impl.obj
 0001:00022f80       ??_E?$collate@G@_STL@@MAEPAXI@Z 10023f80 f i stlport_vc6_static:locale_impl.obj
 0001:00022fa0       ??_Gfacet@locale@_STL@@MAEPAXI@Z 10023fa0 f i stlport_vc6_static:locale_impl.obj
 0001:00022fa0       ??_Efacet@locale@_STL@@MAEPAXI@Z 10023fa0 f i stlport_vc6_static:locale_impl.obj
 0001:00022fc0       ??_G?$ctype@G@_STL@@MAEPAXI@Z 10023fc0 f i stlport_vc6_static:locale_impl.obj
 0001:00022fc0       ??_E?$ctype@G@_STL@@MAEPAXI@Z 10023fc0 f i stlport_vc6_static:locale_impl.obj
 0001:00022fe0       ??_G?$numpunct@D@_STL@@UAEPAXI@Z 10023fe0 f i stlport_vc6_static:locale_impl.obj
 0001:00022fe0       ??_E?$numpunct@D@_STL@@UAEPAXI@Z 10023fe0 f i stlport_vc6_static:locale_impl.obj
 0001:00023000       ??_E?$numpunct@G@_STL@@MAEPAXI@Z 10024000 f i stlport_vc6_static:locale_impl.obj
 0001:00023000       ??_G?$numpunct@G@_STL@@MAEPAXI@Z 10024000 f i stlport_vc6_static:locale_impl.obj
 0001:00023020       ??1facet@locale@_STL@@MAE@XZ 10024020 f   stlport_vc6_static:locale_impl.obj
 0001:00023030       ??Rlocale@_STL@@QBE_NABV?$basic_string@DV?$char_traits@D@_STL@@V?$allocator@D@2@@1@0@Z 10024030 f   stlport_vc6_static:locale_impl.obj
 0001:00023080       ??Rlocale@_STL@@QBE_NABV?$basic_string@GV?$char_traits@G@_STL@@V?$allocator@G@2@@1@0@Z 10024080 f   stlport_vc6_static:locale_impl.obj
 0001:00023120       ?_M_throw_runtime_error@locale@_STL@@SAXPBD@Z 10024120 f   stlport_vc6_static:locale_impl.obj
 0001:00023270       ??0_Loc_init@ios_base@_STL@@QAE@XZ 10024270 f   stlport_vc6_static:locale_impl.obj
 0001:00023290       ??1_Loc_init@ios_base@_STL@@QAE@XZ 10024290 f   stlport_vc6_static:locale_impl.obj
 0001:000232b0       ?_S_initialize@locale@_STL@@SAXXZ 100242b0 f   stlport_vc6_static:locale_impl.obj
 0001:000233c0       ?_S_uninitialize@locale@_STL@@SAXXZ 100243c0 f   stlport_vc6_static:locale_impl.obj
 0001:000233d0       ??0locale@_STL@@QAE@XZ     100243d0 f   stlport_vc6_static:locale_impl.obj
 0001:000233f0       ??0locale@_STL@@QAE@PAV_Locale_impl@1@@Z 100243f0 f   stlport_vc6_static:locale_impl.obj
 0001:00023400       ??0locale@_STL@@QAE@ABV01@@Z 10024400 f   stlport_vc6_static:locale_impl.obj
 0001:00023420       ??1locale@_STL@@QAE@XZ     10024420 f   stlport_vc6_static:locale_impl.obj
 0001:00023430       ??4locale@_STL@@QAEABV01@ABV01@@Z 10024430 f   stlport_vc6_static:locale_impl.obj
 0001:00023460       ?_M_get_facet@locale@_STL@@QBEPAVfacet@12@ABVid@12@@Z 10024460 f   stlport_vc6_static:locale_impl.obj
 0001:00023480       ?_M_use_facet@locale@_STL@@QBEPAVfacet@12@ABVid@12@@Z 10024480 f   stlport_vc6_static:locale_impl.obj
 0001:000234c0       ?name@locale@_STL@@QBE?AV?$basic_string@DV?$char_traits@D@_STL@@V?$allocator@D@2@@2@XZ 100244c0 f   stlport_vc6_static:locale_impl.obj
 0001:000236a0       ??8locale@_STL@@QBE_NABV01@@Z 100246a0 f   stlport_vc6_static:locale_impl.obj
 0001:000237f0       ??9locale@_STL@@QBE_NABV01@@Z 100247f0 f   stlport_vc6_static:locale_impl.obj
 0001:00023810       ?classic@locale@_STL@@SAABV12@XZ 10024810 f   stlport_vc6_static:locale_impl.obj
 0001:00023820       ?global@locale@_STL@@SA?AV12@ABV12@@Z 10024820 f   stlport_vc6_static:locale_impl.obj
 0001:000239a0       ??1_STLP_auto_lock@_STL@@QAE@XZ 100249a0 f i stlport_vc6_static:locale_impl.obj
 0001:000239b0       ?do_put@?$money_put@DV?$ostreambuf_iterator@DV?$char_traits@D@_STL@@@_STL@@@_STL@@MBE?AV?$ostreambuf_iterator@DV?$char_traits@D@_STL@@@2@V32@_NAAVios_base@2@DO@Z 100249b0 f i stlport_vc6_static:locale_impl.obj
 0001:00023ab0       ?getloc@ios_base@_STL@@QBE?AVlocale@2@XZ 10024ab0 f i stlport_vc6_static:locale_impl.obj
 0001:00023ad0       ?do_date_order@?$time_get@DV?$istreambuf_iterator@DV?$char_traits@D@_STL@@@_STL@@@_STL@@MBE?AW4dateorder@time_base@2@XZ 10024ad0 f i stlport_vc6_static:locale_impl.obj
 0001:00023ae0       ?do_put@?$money_put@GV?$ostreambuf_iterator@GV?$char_traits@G@_STL@@@_STL@@@_STL@@MBE?AV?$ostreambuf_iterator@GV?$char_traits@G@_STL@@@2@V32@_NAAVios_base@2@GO@Z 10024ae0 f i stlport_vc6_static:locale_impl.obj
 0001:00023c00       ?do_date_order@?$time_get@GV?$istreambuf_iterator@GV?$char_traits@G@_STL@@@_STL@@@_STL@@MBE?AW4dateorder@time_base@2@XZ 10024c00 f i stlport_vc6_static:locale_impl.obj
 0001:00023c10       ??_G?$money_get@DV?$istreambuf_iterator@DV?$char_traits@D@_STL@@@_STL@@@_STL@@MAEPAXI@Z 10024c10 f i stlport_vc6_static:locale_impl.obj
 0001:00023c10       ??_E?$money_get@DV?$istreambuf_iterator@DV?$char_traits@D@_STL@@@_STL@@@_STL@@MAEPAXI@Z 10024c10 f i stlport_vc6_static:locale_impl.obj
 0001:00023c30       ??1?$money_get@DV?$istreambuf_iterator@DV?$char_traits@D@_STL@@@_STL@@@_STL@@MAE@XZ 10024c30 f i stlport_vc6_static:locale_impl.obj
 0001:00023c40       ??_G?$money_put@DV?$ostreambuf_iterator@DV?$char_traits@D@_STL@@@_STL@@@_STL@@MAEPAXI@Z 10024c40 f i stlport_vc6_static:locale_impl.obj
 0001:00023c40       ??_E?$money_put@DV?$ostreambuf_iterator@DV?$char_traits@D@_STL@@@_STL@@@_STL@@MAEPAXI@Z 10024c40 f i stlport_vc6_static:locale_impl.obj
 0001:00023c60       ??1?$money_put@DV?$ostreambuf_iterator@DV?$char_traits@D@_STL@@@_STL@@@_STL@@MAE@XZ 10024c60 f i stlport_vc6_static:locale_impl.obj
 0001:00023c70       ??_G?$num_get@DV?$istreambuf_iterator@DV?$char_traits@D@_STL@@@_STL@@@_STL@@MAEPAXI@Z 10024c70 f i stlport_vc6_static:locale_impl.obj
 0001:00023c70       ??_E?$num_get@DV?$istreambuf_iterator@DV?$char_traits@D@_STL@@@_STL@@@_STL@@MAEPAXI@Z 10024c70 f i stlport_vc6_static:locale_impl.obj
 0001:00023c90       ??1?$num_get@DV?$istreambuf_iterator@DV?$char_traits@D@_STL@@@_STL@@@_STL@@MAE@XZ 10024c90 f i stlport_vc6_static:locale_impl.obj
 0001:00023ca0       ??_G?$num_put@DV?$ostreambuf_iterator@DV?$char_traits@D@_STL@@@_STL@@@_STL@@MAEPAXI@Z 10024ca0 f i stlport_vc6_static:locale_impl.obj
 0001:00023ca0       ??_E?$num_put@DV?$ostreambuf_iterator@DV?$char_traits@D@_STL@@@_STL@@@_STL@@MAEPAXI@Z 10024ca0 f i stlport_vc6_static:locale_impl.obj
 0001:00023cc0       ??1?$num_put@DV?$ostreambuf_iterator@DV?$char_traits@D@_STL@@@_STL@@@_STL@@MAE@XZ 10024cc0 f i stlport_vc6_static:locale_impl.obj
 0001:00023cd0       ??_G?$time_get@DV?$istreambuf_iterator@DV?$char_traits@D@_STL@@@_STL@@@_STL@@MAEPAXI@Z 10024cd0 f i stlport_vc6_static:locale_impl.obj
 0001:00023cd0       ??_E?$time_get@DV?$istreambuf_iterator@DV?$char_traits@D@_STL@@@_STL@@@_STL@@MAEPAXI@Z 10024cd0 f i stlport_vc6_static:locale_impl.obj
 0001:00023cf0       ??1?$time_get@DV?$istreambuf_iterator@DV?$char_traits@D@_STL@@@_STL@@@_STL@@MAE@XZ 10024cf0 f i stlport_vc6_static:locale_impl.obj
 0001:00023e30       ??0_Time_Info@_STL@@QAE@XZ 10024e30 f i stlport_vc6_static:locale_impl.obj
 0001:00024000       ??1_Time_Info@_STL@@QAE@XZ 10025000 f i stlport_vc6_static:locale_impl.obj
 0001:00024120       ??_E?$time_put@DV?$ostreambuf_iterator@DV?$char_traits@D@_STL@@@_STL@@@_STL@@MAEPAXI@Z 10025120 f i stlport_vc6_static:locale_impl.obj
 0001:00024120       ??_G?$time_put@DV?$ostreambuf_iterator@DV?$char_traits@D@_STL@@@_STL@@@_STL@@MAEPAXI@Z 10025120 f i stlport_vc6_static:locale_impl.obj
 0001:00024140       ??1?$time_put@DV?$ostreambuf_iterator@DV?$char_traits@D@_STL@@@_STL@@@_STL@@MAE@XZ 10025140 f i stlport_vc6_static:locale_impl.obj
 0001:00024280       ??_G?$money_get@GV?$istreambuf_iterator@GV?$char_traits@G@_STL@@@_STL@@@_STL@@MAEPAXI@Z 10025280 f i stlport_vc6_static:locale_impl.obj
 0001:00024280       ??_E?$money_get@GV?$istreambuf_iterator@GV?$char_traits@G@_STL@@@_STL@@@_STL@@MAEPAXI@Z 10025280 f i stlport_vc6_static:locale_impl.obj
 0001:000242a0       ??1?$money_get@GV?$istreambuf_iterator@GV?$char_traits@G@_STL@@@_STL@@@_STL@@MAE@XZ 100252a0 f i stlport_vc6_static:locale_impl.obj
 0001:000242b0       ??_E?$money_put@GV?$ostreambuf_iterator@GV?$char_traits@G@_STL@@@_STL@@@_STL@@MAEPAXI@Z 100252b0 f i stlport_vc6_static:locale_impl.obj
 0001:000242b0       ??_G?$money_put@GV?$ostreambuf_iterator@GV?$char_traits@G@_STL@@@_STL@@@_STL@@MAEPAXI@Z 100252b0 f i stlport_vc6_static:locale_impl.obj
 0001:000242d0       ??1?$money_put@GV?$ostreambuf_iterator@GV?$char_traits@G@_STL@@@_STL@@@_STL@@MAE@XZ 100252d0 f i stlport_vc6_static:locale_impl.obj
 0001:000242e0       ??_E?$num_get@GV?$istreambuf_iterator@GV?$char_traits@G@_STL@@@_STL@@@_STL@@MAEPAXI@Z 100252e0 f i stlport_vc6_static:locale_impl.obj
 0001:000242e0       ??_G?$num_get@GV?$istreambuf_iterator@GV?$char_traits@G@_STL@@@_STL@@@_STL@@MAEPAXI@Z 100252e0 f i stlport_vc6_static:locale_impl.obj
 0001:00024300       ??1?$num_get@GV?$istreambuf_iterator@GV?$char_traits@G@_STL@@@_STL@@@_STL@@MAE@XZ 10025300 f i stlport_vc6_static:locale_impl.obj
 0001:00024310       ??_E?$num_put@GV?$ostreambuf_iterator@GV?$char_traits@G@_STL@@@_STL@@@_STL@@MAEPAXI@Z 10025310 f i stlport_vc6_static:locale_impl.obj
 0001:00024310       ??_G?$num_put@GV?$ostreambuf_iterator@GV?$char_traits@G@_STL@@@_STL@@@_STL@@MAEPAXI@Z 10025310 f i stlport_vc6_static:locale_impl.obj
 0001:00024330       ??1?$num_put@GV?$ostreambuf_iterator@GV?$char_traits@G@_STL@@@_STL@@@_STL@@MAE@XZ 10025330 f i stlport_vc6_static:locale_impl.obj
 0001:00024340       ??_G?$time_get@GV?$istreambuf_iterator@GV?$char_traits@G@_STL@@@_STL@@@_STL@@MAEPAXI@Z 10025340 f i stlport_vc6_static:locale_impl.obj
 0001:00024340       ??_E?$time_get@GV?$istreambuf_iterator@GV?$char_traits@G@_STL@@@_STL@@@_STL@@MAEPAXI@Z 10025340 f i stlport_vc6_static:locale_impl.obj
 0001:00024360       ??1?$time_get@GV?$istreambuf_iterator@GV?$char_traits@G@_STL@@@_STL@@@_STL@@MAE@XZ 10025360 f i stlport_vc6_static:locale_impl.obj
 0001:000244a0       ??_E?$time_put@GV?$ostreambuf_iterator@GV?$char_traits@G@_STL@@@_STL@@@_STL@@MAEPAXI@Z 100254a0 f i stlport_vc6_static:locale_impl.obj
 0001:000244a0       ??_G?$time_put@GV?$ostreambuf_iterator@GV?$char_traits@G@_STL@@@_STL@@@_STL@@MAEPAXI@Z 100254a0 f i stlport_vc6_static:locale_impl.obj
 0001:000244c0       ??1?$time_put@GV?$ostreambuf_iterator@GV?$char_traits@G@_STL@@@_STL@@@_STL@@MAE@XZ 100254c0 f i stlport_vc6_static:locale_impl.obj
 0001:00024600       ?do_get@?$money_get@DV?$istreambuf_iterator@DV?$char_traits@D@_STL@@@_STL@@@_STL@@MBE?AV?$istreambuf_iterator@DV?$char_traits@D@_STL@@@2@V32@0_NAAVios_base@2@AAHAAV?$basic_string@DV?$char_traits@D@_STL@@V?$allocator@D@2@@2@@Z 10025600 f i stlport_vc6_static:locale_impl.obj
 0001:00025460       ?grouping@?$moneypunct@D$00@_STL@@QBE?AV?$basic_string@DV?$char_traits@D@_STL@@V?$allocator@D@2@@2@XZ 10026460 f i stlport_vc6_static:locale_impl.obj
 0001:00025480       ?curr_symbol@?$moneypunct@D$00@_STL@@QBE?AV?$basic_string@DV?$char_traits@D@_STL@@V?$allocator@D@2@@2@XZ 10026480 f i stlport_vc6_static:locale_impl.obj
 0001:000254a0       ?positive_sign@?$moneypunct@D$00@_STL@@QBE?AV?$basic_string@DV?$char_traits@D@_STL@@V?$allocator@D@2@@2@XZ 100264a0 f i stlport_vc6_static:locale_impl.obj
 0001:000254c0       ?negative_sign@?$moneypunct@D$00@_STL@@QBE?AV?$basic_string@DV?$char_traits@D@_STL@@V?$allocator@D@2@@2@XZ 100264c0 f i stlport_vc6_static:locale_impl.obj
 0001:000254e0       ?grouping@?$moneypunct@D$0A@@_STL@@QBE?AV?$basic_string@DV?$char_traits@D@_STL@@V?$allocator@D@2@@2@XZ 100264e0 f i stlport_vc6_static:locale_impl.obj
 0001:00025500       ?curr_symbol@?$moneypunct@D$0A@@_STL@@QBE?AV?$basic_string@DV?$char_traits@D@_STL@@V?$allocator@D@2@@2@XZ 10026500 f i stlport_vc6_static:locale_impl.obj
 0001:00025520       ?positive_sign@?$moneypunct@D$0A@@_STL@@QBE?AV?$basic_string@DV?$char_traits@D@_STL@@V?$allocator@D@2@@2@XZ 10026520 f i stlport_vc6_static:locale_impl.obj
 0001:00025540       ?negative_sign@?$moneypunct@D$0A@@_STL@@QBE?AV?$basic_string@DV?$char_traits@D@_STL@@V?$allocator@D@2@@2@XZ 10026540 f i stlport_vc6_static:locale_impl.obj
 0001:00025560       ?sbumpc@?$basic_streambuf@DV?$char_traits@D@_STL@@@_STL@@QAEHXZ 10026560 f i stlport_vc6_static:locale_impl.obj
 0001:00025590       ?do_get@?$money_get@DV?$istreambuf_iterator@DV?$char_traits@D@_STL@@@_STL@@@_STL@@MBE?AV?$istreambuf_iterator@DV?$char_traits@D@_STL@@@2@V32@0_NAAVios_base@2@AAHAAO@Z 10026590 f i stlport_vc6_static:locale_impl.obj
 0001:00025790       ?sgetc@?$basic_streambuf@DV?$char_traits@D@_STL@@@_STL@@QAEHXZ 10026790 f i stlport_vc6_static:locale_impl.obj
 0001:000257b0       ?do_put@?$money_put@DV?$ostreambuf_iterator@DV?$char_traits@D@_STL@@@_STL@@@_STL@@MBE?AV?$ostreambuf_iterator@DV?$char_traits@D@_STL@@@2@V32@_NAAVios_base@2@DABV?$basic_string@DV?$char_traits@D@_STL@@V?$allocator@D@2@@2@@Z 100267b0 f i stlport_vc6_static:locale_impl.obj
 0001:00026340       ?sputc@?$basic_streambuf@DV?$char_traits@D@_STL@@@_STL@@QAEHD@Z 10027340 f i stlport_vc6_static:locale_impl.obj
 0001:00026380       ?do_get@?$num_get@DV?$istreambuf_iterator@DV?$char_traits@D@_STL@@@_STL@@@_STL@@MBE?AV?$istreambuf_iterator@DV?$char_traits@D@_STL@@@2@V32@0AAVios_base@2@AAHAA_K@Z 10027380 f i stlport_vc6_static:locale_impl.obj
 0001:00026680       ?do_get@?$num_get@DV?$istreambuf_iterator@DV?$char_traits@D@_STL@@@_STL@@@_STL@@MBE?AV?$istreambuf_iterator@DV?$char_traits@D@_STL@@@2@V32@0AAVios_base@2@AAHAA_J@Z 10027680 f i stlport_vc6_static:locale_impl.obj
 0001:00026980       ?do_get@?$num_get@DV?$istreambuf_iterator@DV?$char_traits@D@_STL@@@_STL@@@_STL@@MBE?AV?$istreambuf_iterator@DV?$char_traits@D@_STL@@@2@V32@0AAVios_base@2@AAHAAO@Z 10027980 f i stlport_vc6_static:locale_impl.obj
 0001:00026ca0       ?do_get@?$num_get@DV?$istreambuf_iterator@DV?$char_traits@D@_STL@@@_STL@@@_STL@@MBE?AV?$istreambuf_iterator@DV?$char_traits@D@_STL@@@2@V32@0AAVios_base@2@AAHAAPAX@Z 10027ca0 f i stlport_vc6_static:locale_impl.obj
 0001:00026fa0       ?do_get@?$num_get@DV?$istreambuf_iterator@DV?$char_traits@D@_STL@@@_STL@@@_STL@@MBE?AV?$istreambuf_iterator@DV?$char_traits@D@_STL@@@2@V32@0AAVios_base@2@AAHAAN@Z 10027fa0 f i stlport_vc6_static:locale_impl.obj
 0001:000272c0       ?do_get@?$num_get@DV?$istreambuf_iterator@DV?$char_traits@D@_STL@@@_STL@@@_STL@@MBE?AV?$istreambuf_iterator@DV?$char_traits@D@_STL@@@2@V32@0AAVios_base@2@AAHAAM@Z 100282c0 f i stlport_vc6_static:locale_impl.obj
 0001:000275e0       ?do_get@?$num_get@DV?$istreambuf_iterator@DV?$char_traits@D@_STL@@@_STL@@@_STL@@MBE?AV?$istreambuf_iterator@DV?$char_traits@D@_STL@@@2@V32@0AAVios_base@2@AAHAAK@Z 100285e0 f i stlport_vc6_static:locale_impl.obj
 0001:000278d0       ?do_get@?$num_get@DV?$istreambuf_iterator@DV?$char_traits@D@_STL@@@_STL@@@_STL@@MBE?AV?$istreambuf_iterator@DV?$char_traits@D@_STL@@@2@V32@0AAVios_base@2@AAHAAI@Z 100288d0 f i stlport_vc6_static:locale_impl.obj
 0001:00027bc0       ?do_get@?$num_get@DV?$istreambuf_iterator@DV?$char_traits@D@_STL@@@_STL@@@_STL@@MBE?AV?$istreambuf_iterator@DV?$char_traits@D@_STL@@@2@V32@0AAVios_base@2@AAHAAG@Z 10028bc0 f i stlport_vc6_static:locale_impl.obj
 0001:00027eb0       ?do_get@?$num_get@DV?$istreambuf_iterator@DV?$char_traits@D@_STL@@@_STL@@@_STL@@MBE?AV?$istreambuf_iterator@DV?$char_traits@D@_STL@@@2@V32@0AAVios_base@2@AAHAAJ@Z 10028eb0 f i stlport_vc6_static:locale_impl.obj
 0001:000281a0       ?do_get@?$num_get@DV?$istreambuf_iterator@DV?$char_traits@D@_STL@@@_STL@@@_STL@@MBE?AV?$istreambuf_iterator@DV?$char_traits@D@_STL@@@2@V32@0AAVios_base@2@AAHAA_N@Z 100291a0 f i stlport_vc6_static:locale_impl.obj
 0001:00028490       ?truename@?$numpunct@D@_STL@@QBE?AV?$basic_string@DV?$char_traits@D@_STL@@V?$allocator@D@2@@2@XZ 10029490 f i stlport_vc6_static:locale_impl.obj
 0001:000284b0       ?falsename@?$numpunct@D@_STL@@QBE?AV?$basic_string@DV?$char_traits@D@_STL@@V?$allocator@D@2@@2@XZ 100294b0 f i stlport_vc6_static:locale_impl.obj
 0001:000284d0       ?do_put@?$num_put@DV?$ostreambuf_iterator@DV?$char_traits@D@_STL@@@_STL@@@_STL@@MBE?AV?$ostreambuf_iterator@DV?$char_traits@D@_STL@@@2@V32@AAVios_base@2@DPBX@Z 100294d0 f i stlport_vc6_static:locale_impl.obj
 0001:00028590       ?do_put@?$num_put@DV?$ostreambuf_iterator@DV?$char_traits@D@_STL@@@_STL@@@_STL@@MBE?AV?$ostreambuf_iterator@DV?$char_traits@D@_STL@@@2@V32@AAVios_base@2@D_K@Z 10029590 f i stlport_vc6_static:locale_impl.obj
 0001:00028790       ?do_put@?$num_put@DV?$ostreambuf_iterator@DV?$char_traits@D@_STL@@@_STL@@@_STL@@MBE?AV?$ostreambuf_iterator@DV?$char_traits@D@_STL@@@2@V32@AAVios_base@2@D_J@Z 10029790 f i stlport_vc6_static:locale_impl.obj
 0001:000289c0       ?do_put@?$num_put@DV?$ostreambuf_iterator@DV?$char_traits@D@_STL@@@_STL@@@_STL@@MBE?AV?$ostreambuf_iterator@DV?$char_traits@D@_STL@@@2@V32@AAVios_base@2@DO@Z 100299c0 f i stlport_vc6_static:locale_impl.obj
 0001:00028a60       ?do_put@?$num_put@DV?$ostreambuf_iterator@DV?$char_traits@D@_STL@@@_STL@@@_STL@@MBE?AV?$ostreambuf_iterator@DV?$char_traits@D@_STL@@@2@V32@AAVios_base@2@DN@Z 10029a60 f i stlport_vc6_static:locale_impl.obj
 0001:00028b00       ?do_put@?$num_put@DV?$ostreambuf_iterator@DV?$char_traits@D@_STL@@@_STL@@@_STL@@MBE?AV?$ostreambuf_iterator@DV?$char_traits@D@_STL@@@2@V32@AAVios_base@2@DK@Z 10029b00 f i stlport_vc6_static:locale_impl.obj
 0001:00028d00       ?do_put@?$num_put@DV?$ostreambuf_iterator@DV?$char_traits@D@_STL@@@_STL@@@_STL@@MBE?AV?$ostreambuf_iterator@DV?$char_traits@D@_STL@@@2@V32@AAVios_base@2@DJ@Z 10029d00 f i stlport_vc6_static:locale_impl.obj
 0001:00028f40       ?do_put@?$num_put@DV?$ostreambuf_iterator@DV?$char_traits@D@_STL@@@_STL@@@_STL@@MBE?AV?$ostreambuf_iterator@DV?$char_traits@D@_STL@@@2@V32@AAVios_base@2@D_N@Z 10029f40 f i stlport_vc6_static:locale_impl.obj
 0001:00029230       ?do_get_time@?$time_get@DV?$istreambuf_iterator@DV?$char_traits@D@_STL@@@_STL@@@_STL@@MBE?AV?$istreambuf_iterator@DV?$char_traits@D@_STL@@@2@V32@0AAVios_base@2@AAHPAUtm@@@Z 1002a230 f i stlport_vc6_static:locale_impl.obj
 0001:00029620       ?do_get_date@?$time_get@DV?$istreambuf_iterator@DV?$char_traits@D@_STL@@@_STL@@@_STL@@MBE?AV?$istreambuf_iterator@DV?$char_traits@D@_STL@@@2@V32@0AAVios_base@2@AAHPAUtm@@@Z 1002a620 f i stlport_vc6_static:locale_impl.obj
 0001:00029a10       ?do_get_weekday@?$time_get@DV?$istreambuf_iterator@DV?$char_traits@D@_STL@@@_STL@@@_STL@@MBE?AV?$istreambuf_iterator@DV?$char_traits@D@_STL@@@2@V32@0AAVios_base@2@AAHPAUtm@@@Z 1002aa10 f i stlport_vc6_static:locale_impl.obj
 0001:00029cc0       ?do_get_monthname@?$time_get@DV?$istreambuf_iterator@DV?$char_traits@D@_STL@@@_STL@@@_STL@@MBE?AV?$istreambuf_iterator@DV?$char_traits@D@_STL@@@2@V32@0AAVios_base@2@AAHPAUtm@@@Z 1002acc0 f i stlport_vc6_static:locale_impl.obj
 0001:00029f90       ?do_get_year@?$time_get@DV?$istreambuf_iterator@DV?$char_traits@D@_STL@@@_STL@@@_STL@@MBE?AV?$istreambuf_iterator@DV?$char_traits@D@_STL@@@2@V32@0AAVios_base@2@AAHPAUtm@@@Z 1002af90 f i stlport_vc6_static:locale_impl.obj
 0001:0002a100       ?do_put@?$time_put@DV?$ostreambuf_iterator@DV?$char_traits@D@_STL@@@_STL@@@_STL@@MBE?AV?$ostreambuf_iterator@DV?$char_traits@D@_STL@@@2@V32@AAVios_base@2@DPBUtm@@DD@Z 1002b100 f i stlport_vc6_static:locale_impl.obj
 0001:0002a1c0       ?do_get@?$money_get@GV?$istreambuf_iterator@GV?$char_traits@G@_STL@@@_STL@@@_STL@@MBE?AV?$istreambuf_iterator@GV?$char_traits@G@_STL@@@2@V32@0_NAAVios_base@2@AAHAAV?$basic_string@GV?$char_traits@G@_STL@@V?$allocator@G@2@@2@@Z 1002b1c0 f i stlport_vc6_static:locale_impl.obj
 0001:0002b020       ?grouping@?$moneypunct@G$00@_STL@@QBE?AV?$basic_string@DV?$char_traits@D@_STL@@V?$allocator@D@2@@2@XZ 1002c020 f i stlport_vc6_static:locale_impl.obj
 0001:0002b040       ?curr_symbol@?$moneypunct@G$00@_STL@@QBE?AV?$basic_string@GV?$char_traits@G@_STL@@V?$allocator@G@2@@2@XZ 1002c040 f i stlport_vc6_static:locale_impl.obj
 0001:0002b060       ?positive_sign@?$moneypunct@G$00@_STL@@QBE?AV?$basic_string@GV?$char_traits@G@_STL@@V?$allocator@G@2@@2@XZ 1002c060 f i stlport_vc6_static:locale_impl.obj
 0001:0002b080       ?negative_sign@?$moneypunct@G$00@_STL@@QBE?AV?$basic_string@GV?$char_traits@G@_STL@@V?$allocator@G@2@@2@XZ 1002c080 f i stlport_vc6_static:locale_impl.obj
 0001:0002b0a0       ?grouping@?$moneypunct@G$0A@@_STL@@QBE?AV?$basic_string@DV?$char_traits@D@_STL@@V?$allocator@D@2@@2@XZ 1002c0a0 f i stlport_vc6_static:locale_impl.obj
 0001:0002b0c0       ?curr_symbol@?$moneypunct@G$0A@@_STL@@QBE?AV?$basic_string@GV?$char_traits@G@_STL@@V?$allocator@G@2@@2@XZ 1002c0c0 f i stlport_vc6_static:locale_impl.obj
 0001:0002b0e0       ?positive_sign@?$moneypunct@G$0A@@_STL@@QBE?AV?$basic_string@GV?$char_traits@G@_STL@@V?$allocator@G@2@@2@XZ 1002c0e0 f i stlport_vc6_static:locale_impl.obj
 0001:0002b100       ?negative_sign@?$moneypunct@G$0A@@_STL@@QBE?AV?$basic_string@GV?$char_traits@G@_STL@@V?$allocator@G@2@@2@XZ 1002c100 f i stlport_vc6_static:locale_impl.obj
 0001:0002b120       ?do_get@?$money_get@GV?$istreambuf_iterator@GV?$char_traits@G@_STL@@@_STL@@@_STL@@MBE?AV?$istreambuf_iterator@GV?$char_traits@G@_STL@@@2@V32@0_NAAVios_base@2@AAHAAO@Z 1002c120 f i stlport_vc6_static:locale_impl.obj
 0001:0002b330       ?do_put@?$money_put@GV?$ostreambuf_iterator@GV?$char_traits@G@_STL@@@_STL@@@_STL@@MBE?AV?$ostreambuf_iterator@GV?$char_traits@G@_STL@@@2@V32@_NAAVios_base@2@GABV?$basic_string@GV?$char_traits@G@_STL@@V?$allocator@G@2@@2@@Z 1002c330 f i stlport_vc6_static:locale_impl.obj
 0001:0002bf00       ?do_get@?$num_get@GV?$istreambuf_iterator@GV?$char_traits@G@_STL@@@_STL@@@_STL@@MBE?AV?$istreambuf_iterator@GV?$char_traits@G@_STL@@@2@V32@0AAVios_base@2@AAHAA_K@Z 1002cf00 f i stlport_vc6_static:locale_impl.obj
 0001:0002c1f0       ?do_get@?$num_get@GV?$istreambuf_iterator@GV?$char_traits@G@_STL@@@_STL@@@_STL@@MBE?AV?$istreambuf_iterator@GV?$char_traits@G@_STL@@@2@V32@0AAVios_base@2@AAHAA_J@Z 1002d1f0 f i stlport_vc6_static:locale_impl.obj
 0001:0002c4e0       ?do_get@?$num_get@GV?$istreambuf_iterator@GV?$char_traits@G@_STL@@@_STL@@@_STL@@MBE?AV?$istreambuf_iterator@GV?$char_traits@G@_STL@@@2@V32@0AAVios_base@2@AAHAAO@Z 1002d4e0 f i stlport_vc6_static:locale_impl.obj
 0001:0002c860       ?do_get@?$num_get@GV?$istreambuf_iterator@GV?$char_traits@G@_STL@@@_STL@@@_STL@@MBE?AV?$istreambuf_iterator@GV?$char_traits@G@_STL@@@2@V32@0AAVios_base@2@AAHAAPAX@Z 1002d860 f i stlport_vc6_static:locale_impl.obj
 0001:0002cb60       ?do_get@?$num_get@GV?$istreambuf_iterator@GV?$char_traits@G@_STL@@@_STL@@@_STL@@MBE?AV?$istreambuf_iterator@GV?$char_traits@G@_STL@@@2@V32@0AAVios_base@2@AAHAAN@Z 1002db60 f i stlport_vc6_static:locale_impl.obj
 0001:0002cee0       ?do_get@?$num_get@GV?$istreambuf_iterator@GV?$char_traits@G@_STL@@@_STL@@@_STL@@MBE?AV?$istreambuf_iterator@GV?$char_traits@G@_STL@@@2@V32@0AAVios_base@2@AAHAAM@Z 1002dee0 f i stlport_vc6_static:locale_impl.obj
 0001:0002d260       ?do_get@?$num_get@GV?$istreambuf_iterator@GV?$char_traits@G@_STL@@@_STL@@@_STL@@MBE?AV?$istreambuf_iterator@GV?$char_traits@G@_STL@@@2@V32@0AAVios_base@2@AAHAAK@Z 1002e260 f i stlport_vc6_static:locale_impl.obj
 0001:0002d550       ?do_get@?$num_get@GV?$istreambuf_iterator@GV?$char_traits@G@_STL@@@_STL@@@_STL@@MBE?AV?$istreambuf_iterator@GV?$char_traits@G@_STL@@@2@V32@0AAVios_base@2@AAHAAI@Z 1002e550 f i stlport_vc6_static:locale_impl.obj
 0001:0002d840       ?do_get@?$num_get@GV?$istreambuf_iterator@GV?$char_traits@G@_STL@@@_STL@@@_STL@@MBE?AV?$istreambuf_iterator@GV?$char_traits@G@_STL@@@2@V32@0AAVios_base@2@AAHAAG@Z 1002e840 f i stlport_vc6_static:locale_impl.obj
 0001:0002db30       ?do_get@?$num_get@GV?$istreambuf_iterator@GV?$char_traits@G@_STL@@@_STL@@@_STL@@MBE?AV?$istreambuf_iterator@GV?$char_traits@G@_STL@@@2@V32@0AAVios_base@2@AAHAAJ@Z 1002eb30 f i stlport_vc6_static:locale_impl.obj
 0001:0002de20       ?do_get@?$num_get@GV?$istreambuf_iterator@GV?$char_traits@G@_STL@@@_STL@@@_STL@@MBE?AV?$istreambuf_iterator@GV?$char_traits@G@_STL@@@2@V32@0AAVios_base@2@AAHAA_N@Z 1002ee20 f i stlport_vc6_static:locale_impl.obj
 0001:0002e110       ?truename@?$numpunct@G@_STL@@QBE?AV?$basic_string@GV?$char_traits@G@_STL@@V?$allocator@G@2@@2@XZ 1002f110 f i stlport_vc6_static:locale_impl.obj
 0001:0002e130       ?falsename@?$numpunct@G@_STL@@QBE?AV?$basic_string@GV?$char_traits@G@_STL@@V?$allocator@G@2@@2@XZ 1002f130 f i stlport_vc6_static:locale_impl.obj
 0001:0002e150       ?do_put@?$num_put@GV?$ostreambuf_iterator@GV?$char_traits@G@_STL@@@_STL@@@_STL@@MBE?AV?$ostreambuf_iterator@GV?$char_traits@G@_STL@@@2@V32@AAVios_base@2@GPBX@Z 1002f150 f i stlport_vc6_static:locale_impl.obj
 0001:0002e210       ?do_put@?$num_put@GV?$ostreambuf_iterator@GV?$char_traits@G@_STL@@@_STL@@@_STL@@MBE?AV?$ostreambuf_iterator@GV?$char_traits@G@_STL@@@2@V32@AAVios_base@2@G_K@Z 1002f210 f i stlport_vc6_static:locale_impl.obj
 0001:0002e330       ?do_put@?$num_put@GV?$ostreambuf_iterator@GV?$char_traits@G@_STL@@@_STL@@@_STL@@MBE?AV?$ostreambuf_iterator@GV?$char_traits@G@_STL@@@2@V32@AAVios_base@2@G_J@Z 1002f330 f i stlport_vc6_static:locale_impl.obj
 0001:0002e490       ?do_put@?$num_put@GV?$ostreambuf_iterator@GV?$char_traits@G@_STL@@@_STL@@@_STL@@MBE?AV?$ostreambuf_iterator@GV?$char_traits@G@_STL@@@2@V32@AAVios_base@2@GO@Z 1002f490 f i stlport_vc6_static:locale_impl.obj
 0001:0002e520       ?do_put@?$num_put@GV?$ostreambuf_iterator@GV?$char_traits@G@_STL@@@_STL@@@_STL@@MBE?AV?$ostreambuf_iterator@GV?$char_traits@G@_STL@@@2@V32@AAVios_base@2@GN@Z 1002f520 f i stlport_vc6_static:locale_impl.obj
 0001:0002e5b0       ?do_put@?$num_put@GV?$ostreambuf_iterator@GV?$char_traits@G@_STL@@@_STL@@@_STL@@MBE?AV?$ostreambuf_iterator@GV?$char_traits@G@_STL@@@2@V32@AAVios_base@2@GK@Z 1002f5b0 f i stlport_vc6_static:locale_impl.obj
 0001:0002e6d0       ?do_put@?$num_put@GV?$ostreambuf_iterator@GV?$char_traits@G@_STL@@@_STL@@@_STL@@MBE?AV?$ostreambuf_iterator@GV?$char_traits@G@_STL@@@2@V32@AAVios_base@2@GJ@Z 1002f6d0 f i stlport_vc6_static:locale_impl.obj
 0001:0002e840       ?do_put@?$num_put@GV?$ostreambuf_iterator@GV?$char_traits@G@_STL@@@_STL@@@_STL@@MBE?AV?$ostreambuf_iterator@GV?$char_traits@G@_STL@@@2@V32@AAVios_base@2@G_N@Z 1002f840 f i stlport_vc6_static:locale_impl.obj
 0001:0002eb40       ?do_get_time@?$time_get@GV?$istreambuf_iterator@GV?$char_traits@G@_STL@@@_STL@@@_STL@@MBE?AV?$istreambuf_iterator@GV?$char_traits@G@_STL@@@2@V32@0AAVios_base@2@AAHPAUtm@@@Z 1002fb40 f i stlport_vc6_static:locale_impl.obj
 0001:0002ef30       ?do_get_date@?$time_get@GV?$istreambuf_iterator@GV?$char_traits@G@_STL@@@_STL@@@_STL@@MBE?AV?$istreambuf_iterator@GV?$char_traits@G@_STL@@@2@V32@0AAVios_base@2@AAHPAUtm@@@Z 1002ff30 f i stlport_vc6_static:locale_impl.obj
 0001:0002f330       ?do_get_weekday@?$time_get@GV?$istreambuf_iterator@GV?$char_traits@G@_STL@@@_STL@@@_STL@@MBE?AV?$istreambuf_iterator@GV?$char_traits@G@_STL@@@2@V32@0AAVios_base@2@AAHPAUtm@@@Z 10030330 f i stlport_vc6_static:locale_impl.obj
 0001:0002f5e0       ?do_get_monthname@?$time_get@GV?$istreambuf_iterator@GV?$char_traits@G@_STL@@@_STL@@@_STL@@MBE?AV?$istreambuf_iterator@GV?$char_traits@G@_STL@@@2@V32@0AAVios_base@2@AAHPAUtm@@@Z 100305e0 f i stlport_vc6_static:locale_impl.obj
 0001:0002f8b0       ?do_get_year@?$time_get@GV?$istreambuf_iterator@GV?$char_traits@G@_STL@@@_STL@@@_STL@@MBE?AV?$istreambuf_iterator@GV?$char_traits@G@_STL@@@2@V32@0AAVios_base@2@AAHPAUtm@@@Z 100308b0 f i stlport_vc6_static:locale_impl.obj
 0001:0002fa20       ?do_put@?$time_put@GV?$ostreambuf_iterator@GV?$char_traits@G@_STL@@@_STL@@@_STL@@MBE?AV?$ostreambuf_iterator@GV?$char_traits@G@_STL@@@2@V32@AAVios_base@2@GPBUtm@@DD@Z 10030a20 f i stlport_vc6_static:locale_impl.obj
 0001:0002fb00       ??4?$ostreambuf_iterator@DV?$char_traits@D@_STL@@@_STL@@QAEAAV01@D@Z 10030b00 f i stlport_vc6_static:locale_impl.obj
 0001:0002fb60       ??4?$ostreambuf_iterator@GV?$char_traits@G@_STL@@@_STL@@QAEAAV01@G@Z 10030b60 f i stlport_vc6_static:locale_impl.obj
 0001:0002fbc0       ??0?$_STLP_alloc_proxy@PAGGV?$allocator@G@_STL@@@_STL@@QAE@ABV?$allocator@G@1@PAG@Z 10030bc0 f i stlport_vc6_static:locale_impl.obj
 0001:0002fbd0       ?_M_getc@?$istreambuf_iterator@DV?$char_traits@D@_STL@@@_STL@@ABEXXZ 10030bd0 f i stlport_vc6_static:locale_impl.obj
 0001:0002fc20       ?_M_getc@?$istreambuf_iterator@GV?$char_traits@G@_STL@@@_STL@@ABEXXZ 10030c20 f i stlport_vc6_static:locale_impl.obj
 0001:0002fc70       ?sputc@?$basic_streambuf@GV?$char_traits@G@_STL@@@_STL@@QAEGG@Z 10030c70 f i stlport_vc6_static:locale_impl.obj
 0001:0002fca0       ?sbumpc@?$basic_streambuf@GV?$char_traits@G@_STL@@@_STL@@QAEGXZ 10030ca0 f i stlport_vc6_static:locale_impl.obj
 0001:0002fcc0       ?sgetc@?$basic_streambuf@GV?$char_traits@G@_STL@@@_STL@@QAEGXZ 10030cc0 f i stlport_vc6_static:locale_impl.obj
 0001:0002fce0       ?__get_string@_STL@@YA?AU?$pair@V?$istreambuf_iterator@DV?$char_traits@D@_STL@@@_STL@@_N@1@V?$istreambuf_iterator@DV?$char_traits@D@_STL@@@1@0PAD1@Z 10030ce0 f i stlport_vc6_static:locale_impl.obj
 0001:0002fdc0       ?copy@_STL@@YA?AV?$ostreambuf_iterator@DV?$char_traits@D@_STL@@@1@PBD0V21@@Z 10030dc0 f i stlport_vc6_static:locale_impl.obj
 0001:0002fe50       ?__copy_integer_and_fill@_STL@@YA?AV?$ostreambuf_iterator@DV?$char_traits@D@_STL@@@1@PBDHV21@HHDDD@Z 10030e50 f i stlport_vc6_static:locale_impl.obj
 0001:00030120       ?__get_decimal_integer@_STL@@YA_NAAV?$istreambuf_iterator@DV?$char_traits@D@_STL@@@1@0AAH@Z 10031120 f i stlport_vc6_static:locale_impl.obj
 0001:00030300       ?__get_string@_STL@@YA?AU?$pair@V?$istreambuf_iterator@GV?$char_traits@G@_STL@@@_STL@@_N@1@V?$istreambuf_iterator@GV?$char_traits@G@_STL@@@1@0PAG1@Z 10031300 f i stlport_vc6_static:locale_impl.obj
 0001:000303f0       ?copy@_STL@@YA?AV?$ostreambuf_iterator@GV?$char_traits@G@_STL@@@1@PBG0V21@@Z 100313f0 f i stlport_vc6_static:locale_impl.obj
 0001:00030470       ?__put_integer@_STL@@YA?AV?$ostreambuf_iterator@GV?$char_traits@G@_STL@@@1@PAD0V21@AAVios_base@1@HG@Z 10031470 f i stlport_vc6_static:locale_impl.obj
 0001:000307a0       ?__get_decimal_integer@_STL@@YA_NAAV?$istreambuf_iterator@GV?$char_traits@G@_STL@@@1@0AAH@Z 100317a0 f i stlport_vc6_static:locale_impl.obj
 0001:00030980       ?equal@?$istreambuf_iterator@DV?$char_traits@D@_STL@@@_STL@@QBE_NABV12@@Z 10031980 f i stlport_vc6_static:locale_impl.obj
 0001:00030a10       ?equal@?$istreambuf_iterator@GV?$char_traits@G@_STL@@@_STL@@QBE_NABV12@@Z 10031a10 f i stlport_vc6_static:locale_impl.obj
 0001:00030a90       ??E?$istreambuf_iterator@DV?$char_traits@D@_STL@@@_STL@@QAE?AV01@H@Z 10031a90 f i stlport_vc6_static:locale_impl.obj
 0001:00030ae0       ?mismatch@_STL@@YA?AU?$pair@V?$istreambuf_iterator@DV?$char_traits@D@_STL@@@_STL@@PAD@1@V?$istreambuf_iterator@DV?$char_traits@D@_STL@@@1@0PAD@Z 10031ae0 f i stlport_vc6_static:locale_impl.obj
 0001:00030bd0       ?__get_integer@_STL@@YA_NAAPAD0HAAOH_NDABV?$basic_string@DV?$char_traits@D@_STL@@V?$allocator@D@2@@1@ABU__false_type@1@@Z 10031bd0 f i stlport_vc6_static:locale_impl.obj
 0001:00030d50       ?__copy_aux@_STL@@YA?AV?$ostreambuf_iterator@DV?$char_traits@D@_STL@@@1@PAD0V21@ABU__false_type@1@@Z 10031d50 f i stlport_vc6_static:locale_impl.obj
 0001:00030de0       ?__copy_aux@_STL@@YA?AV?$ostreambuf_iterator@DV?$char_traits@D@_STL@@@1@PBD0V21@ABU__false_type@1@@Z 10031de0 f i stlport_vc6_static:locale_impl.obj
 0001:00030e70       ?__get_integer@_STL@@YA_NAAV?$istreambuf_iterator@DV?$char_traits@D@_STL@@@1@0HAA_KH_NDABV?$basic_string@DV?$char_traits@D@_STL@@V?$allocator@D@2@@1@ABU__false_type@1@@Z 10031e70 f i stlport_vc6_static:locale_impl.obj
 0001:000310c0       ?__get_integer@_STL@@YA_NAAV?$istreambuf_iterator@DV?$char_traits@D@_STL@@@1@0HAA_JH_NDABV?$basic_string@DV?$char_traits@D@_STL@@V?$allocator@D@2@@1@ABU__true_type@1@@Z 100320c0 f i stlport_vc6_static:locale_impl.obj
 0001:00031300       ?__copy_sign@_STL@@YA?AV?$istreambuf_iterator@DV?$char_traits@D@_STL@@@1@V21@0AAV?$basic_string@DV?$char_traits@D@_STL@@V?$allocator@D@2@@1@DD@Z 10032300 f i stlport_vc6_static:locale_impl.obj
 0001:00031430       ?__copy_grouped_digits@_STL@@YA_NAAV?$istreambuf_iterator@DV?$char_traits@D@_STL@@@1@0AAV?$basic_string@DV?$char_traits@D@_STL@@V?$allocator@D@2@@1@PBDDABV31@AA_N@Z 10032430 f i stlport_vc6_static:locale_impl.obj
 0001:000315a0       ?__copy_digits@_STL@@YA_NAAV?$istreambuf_iterator@DV?$char_traits@D@_STL@@@1@0AAV?$basic_string@DV?$char_traits@D@_STL@@V?$allocator@D@2@@1@PBD@Z 100325a0 f i stlport_vc6_static:locale_impl.obj
 0001:000316d0       ?__get_integer@_STL@@YA_NAAV?$istreambuf_iterator@DV?$char_traits@D@_STL@@@1@0HAAKH_NDABV?$basic_string@DV?$char_traits@D@_STL@@V?$allocator@D@2@@1@ABU__false_type@1@@Z 100326d0 f i stlport_vc6_static:locale_impl.obj
 0001:00031890       ?__get_integer@_STL@@YA_NAAV?$istreambuf_iterator@DV?$char_traits@D@_STL@@@1@0HAAIH_NDABV?$basic_string@DV?$char_traits@D@_STL@@V?$allocator@D@2@@1@ABU__false_type@1@@Z 10032890 f i stlport_vc6_static:locale_impl.obj
 0001:00031a50       ?__get_integer@_STL@@YA_NAAV?$istreambuf_iterator@DV?$char_traits@D@_STL@@@1@0HAAGH_NDABV?$basic_string@DV?$char_traits@D@_STL@@V?$allocator@D@2@@1@ABU__false_type@1@@Z 10032a50 f i stlport_vc6_static:locale_impl.obj
 0001:00031c20       ?__get_integer@_STL@@YA_NAAV?$istreambuf_iterator@DV?$char_traits@D@_STL@@@1@0HAAJH_NDABV?$basic_string@DV?$char_traits@D@_STL@@V?$allocator@D@2@@1@ABU__true_type@1@@Z 10032c20 f i stlport_vc6_static:locale_impl.obj
 0001:00031de0       ?__put_float@_STL@@YA?AV?$ostreambuf_iterator@DV?$char_traits@D@_STL@@@1@PAD0V21@AAVios_base@1@DDDABV?$basic_string@DV?$char_traits@D@_STL@@V?$allocator@D@2@@1@@Z 10032de0 f i stlport_vc6_static:locale_impl.obj
 0001:000320d0       ?fill_n@_STL@@YA?AV?$ostreambuf_iterator@DV?$char_traits@D@_STL@@@1@V21@HABD@Z 100330d0 f i stlport_vc6_static:locale_impl.obj
 0001:00032160       ??E?$istreambuf_iterator@GV?$char_traits@G@_STL@@@_STL@@QAE?AV01@H@Z 10033160 f i stlport_vc6_static:locale_impl.obj
 0001:000321b0       ?mismatch@_STL@@YA?AU?$pair@V?$istreambuf_iterator@GV?$char_traits@G@_STL@@@_STL@@PAG@1@V?$istreambuf_iterator@GV?$char_traits@G@_STL@@@1@0PAG@Z 100331b0 f i stlport_vc6_static:locale_impl.obj
 0001:00032290       ?__get_integer@_STL@@YA_NAAPAG0HAAOH_NDABV?$basic_string@DV?$char_traits@D@_STL@@V?$allocator@D@2@@1@ABU__false_type@1@@Z 10033290 f i stlport_vc6_static:locale_impl.obj
 0001:00032410       ?__copy_aux@_STL@@YA?AV?$ostreambuf_iterator@GV?$char_traits@G@_STL@@@1@PAG0V21@ABU__false_type@1@@Z 10033410 f i stlport_vc6_static:locale_impl.obj
 0001:00032490       ?__copy_aux@_STL@@YA?AV?$ostreambuf_iterator@GV?$char_traits@G@_STL@@@1@PBG0V21@ABU__false_type@1@@Z 10033490 f i stlport_vc6_static:locale_impl.obj
 0001:00032510       ?__get_integer@_STL@@YA_NAAV?$istreambuf_iterator@GV?$char_traits@G@_STL@@@1@0HAA_KH_NDABV?$basic_string@DV?$char_traits@D@_STL@@V?$allocator@D@2@@1@ABU__false_type@1@@Z 10033510 f i stlport_vc6_static:locale_impl.obj
 0001:00032750       ?__get_integer@_STL@@YA_NAAV?$istreambuf_iterator@GV?$char_traits@G@_STL@@@1@0HAA_JH_NDABV?$basic_string@DV?$char_traits@D@_STL@@V?$allocator@D@2@@1@ABU__true_type@1@@Z 10033750 f i stlport_vc6_static:locale_impl.obj
 0001:00032990       ?__copy_sign@_STL@@YA?AV?$istreambuf_iterator@GV?$char_traits@G@_STL@@@1@V21@0AAV?$basic_string@DV?$char_traits@D@_STL@@V?$allocator@D@2@@1@GG@Z 10033990 f i stlport_vc6_static:locale_impl.obj
 0001:00032ac0       ?__copy_grouped_digits@_STL@@YA_NAAV?$istreambuf_iterator@GV?$char_traits@G@_STL@@@1@0AAV?$basic_string@DV?$char_traits@D@_STL@@V?$allocator@D@2@@1@PBGGABV31@AA_N@Z 10033ac0 f i stlport_vc6_static:locale_impl.obj
 0001:00032c60       ?__copy_digits@_STL@@YA_NAAV?$istreambuf_iterator@GV?$char_traits@G@_STL@@@1@0AAV?$basic_string@DV?$char_traits@D@_STL@@V?$allocator@D@2@@1@PBG@Z 10033c60 f i stlport_vc6_static:locale_impl.obj
 0001:00032db0       ?__get_integer@_STL@@YA_NAAV?$istreambuf_iterator@GV?$char_traits@G@_STL@@@1@0HAAKH_NDABV?$basic_string@DV?$char_traits@D@_STL@@V?$allocator@D@2@@1@ABU__false_type@1@@Z 10033db0 f i stlport_vc6_static:locale_impl.obj
 0001:00032f70       ?__get_integer@_STL@@YA_NAAV?$istreambuf_iterator@GV?$char_traits@G@_STL@@@1@0HAAIH_NDABV?$basic_string@DV?$char_traits@D@_STL@@V?$allocator@D@2@@1@ABU__false_type@1@@Z 10033f70 f i stlport_vc6_static:locale_impl.obj
 0001:00033130       ?__get_integer@_STL@@YA_NAAV?$istreambuf_iterator@GV?$char_traits@G@_STL@@@1@0HAAGH_NDABV?$basic_string@DV?$char_traits@D@_STL@@V?$allocator@D@2@@1@ABU__false_type@1@@Z 10034130 f i stlport_vc6_static:locale_impl.obj
 0001:00033300       ?__get_integer@_STL@@YA_NAAV?$istreambuf_iterator@GV?$char_traits@G@_STL@@@1@0HAAJH_NDABV?$basic_string@DV?$char_traits@D@_STL@@V?$allocator@D@2@@1@ABU__true_type@1@@Z 10034300 f i stlport_vc6_static:locale_impl.obj
 0001:000334c0       ?__put_float@_STL@@YA?AV?$ostreambuf_iterator@GV?$char_traits@G@_STL@@@1@PAD0V21@AAVios_base@1@GGGABV?$basic_string@DV?$char_traits@D@_STL@@V?$allocator@D@2@@1@@Z 100344c0 f i stlport_vc6_static:locale_impl.obj
 0001:00033830       ?fill_n@_STL@@YA?AV?$ostreambuf_iterator@GV?$char_traits@G@_STL@@@1@V21@HABG@Z 10034830 f i stlport_vc6_static:locale_impl.obj
 0001:000338a0       ??0?$pair@V?$istreambuf_iterator@DV?$char_traits@D@_STL@@@_STL@@_N@_STL@@QAE@ABV?$istreambuf_iterator@DV?$char_traits@D@_STL@@@1@AB_N@Z 100348a0 f i stlport_vc6_static:locale_impl.obj
 0001:000338c0       ??0?$pair@V?$istreambuf_iterator@GV?$char_traits@G@_STL@@@_STL@@_N@_STL@@QAE@ABV?$istreambuf_iterator@GV?$char_traits@G@_STL@@@1@AB_N@Z 100348c0 f i stlport_vc6_static:locale_impl.obj
 0001:000338e0       ?__copy@_STL@@YA?AV?$ostreambuf_iterator@DV?$char_traits@D@_STL@@@1@PAD0V21@ABUrandom_access_iterator_tag@1@PAH@Z 100348e0 f i stlport_vc6_static:locale_impl.obj
 0001:00033970       ?__copy@_STL@@YA?AV?$ostreambuf_iterator@DV?$char_traits@D@_STL@@@1@PBD0V21@ABUrandom_access_iterator_tag@1@PAH@Z 10034970 f i stlport_vc6_static:locale_impl.obj
 0001:00033a00       ?__match@_STL@@YAPAV?$basic_string@DV?$char_traits@D@_STL@@V?$allocator@D@2@@1@AAV?$istreambuf_iterator@DV?$char_traits@D@_STL@@@1@0PAV21@1PAH@Z 10034a00 f i stlport_vc6_static:locale_impl.obj
 0001:00033c10       ?__copy@_STL@@YA?AV?$ostreambuf_iterator@GV?$char_traits@G@_STL@@@1@PAG0V21@ABUrandom_access_iterator_tag@1@PAH@Z 10034c10 f i stlport_vc6_static:locale_impl.obj
 0001:00033c90       ?__copy@_STL@@YA?AV?$ostreambuf_iterator@GV?$char_traits@G@_STL@@@1@PBG0V21@ABUrandom_access_iterator_tag@1@PAH@Z 10034c90 f i stlport_vc6_static:locale_impl.obj
 0001:00033d10       ?__match@_STL@@YAPAV?$basic_string@DV?$char_traits@D@_STL@@V?$allocator@D@2@@1@AAV?$istreambuf_iterator@GV?$char_traits@G@_STL@@@1@0PAV21@1PAH@Z 10034d10 f i stlport_vc6_static:locale_impl.obj
 0001:00033f20       ?__find@_STL@@YAPADPAD0ABDABUrandom_access_iterator_tag@1@@Z 10034f20 f i stlport_vc6_static:locale_impl.obj
 0001:00033f90       ?__find@_STL@@YAPAGPAG0ABGABUrandom_access_iterator_tag@1@@Z 10034f90 f i stlport_vc6_static:locale_impl.obj
 0001:00034290       ??0Init@ios_base@_STL@@QAE@XZ 10035290 f   stlport_vc6_static:iostream.obj
 0001:000342b0       ??1Init@ios_base@_STL@@QAE@XZ 100352b0 f   stlport_vc6_static:iostream.obj
 0001:000342d0       ?_Stl_create_filebuf@_STL@@YAPAV?$basic_filebuf@DV?$char_traits@D@_STL@@@1@PAU_iobuf@@H@Z 100352d0 f   stlport_vc6_static:iostream.obj
 0001:00034460       ?_Stl_create_wfilebuf@_STL@@YAPAV?$basic_filebuf@GV?$char_traits@G@_STL@@@1@PAU_iobuf@@H@Z 10035460 f   stlport_vc6_static:iostream.obj
 0001:000345c0       ?_S_initialize@ios_base@_STL@@KAXXZ 100355c0 f   stlport_vc6_static:iostream.obj
 0001:00034d10       ??_Gstdio_istreambuf@_SgI@@UAEPAXI@Z 10035d10 f i stlport_vc6_static:iostream.obj
 0001:00034d10       ??_Estdio_istreambuf@_SgI@@UAEPAXI@Z 10035d10 f i stlport_vc6_static:iostream.obj
 0001:00034d30       ??_Estdio_ostreambuf@_SgI@@UAEPAXI@Z 10035d30 f i stlport_vc6_static:iostream.obj
 0001:00034d30       ??_Gstdio_ostreambuf@_SgI@@UAEPAXI@Z 10035d30 f i stlport_vc6_static:iostream.obj
 0001:00034d50       ?_S_uninitialize@ios_base@_STL@@KAXXZ 10035d50 f   stlport_vc6_static:iostream.obj
 0001:00035060       ?sync_with_stdio@ios_base@_STL@@SA_N_N@Z 10036060 f   stlport_vc6_static:iostream.obj
 0001:00035380       ??0?$basic_istream@DV?$char_traits@D@_STL@@@_STL@@QAE@PAV?$basic_streambuf@DV?$char_traits@D@_STL@@@1@@Z 10036380 f i stlport_vc6_static:iostream.obj
 0001:00035480       ??0?$basic_istream@GV?$char_traits@G@_STL@@@_STL@@QAE@PAV?$basic_streambuf@GV?$char_traits@G@_STL@@@1@@Z 10036480 f i stlport_vc6_static:iostream.obj
 0001:00035590       ??1?$basic_ios@GV?$char_traits@G@_STL@@@_STL@@UAE@XZ 10036590 f i stlport_vc6_static:iostream.obj
 0001:000355a0       ??_E?$basic_istream@GV?$char_traits@G@_STL@@@_STL@@UAEPAXI@Z 100365a0 f i stlport_vc6_static:iostream.obj
 0001:000355a0       ??_G?$basic_istream@GV?$char_traits@G@_STL@@@_STL@@UAEPAXI@Z 100365a0 f i stlport_vc6_static:iostream.obj
 0001:000355d0       ??_G?$basic_ios@GV?$char_traits@G@_STL@@@_STL@@UAEPAXI@Z 100365d0 f i stlport_vc6_static:iostream.obj
 0001:000355d0       ??_E?$basic_ios@GV?$char_traits@G@_STL@@@_STL@@UAEPAXI@Z 100365d0 f i stlport_vc6_static:iostream.obj
 0001:000355f0       ?clear@?$basic_ios@DV?$char_traits@D@_STL@@@_STL@@QAEXH@Z 100365f0 f i stlport_vc6_static:iostream.obj
 0001:00035610       ?clear@?$basic_ios@GV?$char_traits@G@_STL@@@_STL@@QAEXH@Z 10036610 f i stlport_vc6_static:iostream.obj
 0001:00035630       ??0?$basic_ios@DV?$char_traits@D@_STL@@@_STL@@IAE@XZ 10036630 f i stlport_vc6_static:iostream.obj
 0001:00035650       ?rdbuf@?$basic_ios@DV?$char_traits@D@_STL@@@_STL@@QAEPAV?$basic_streambuf@DV?$char_traits@D@_STL@@@2@PAV32@@Z 10036650 f i stlport_vc6_static:iostream.obj
 0001:00035680       ?init@?$basic_ios@GV?$char_traits@G@_STL@@@_STL@@IAEXPAV?$basic_streambuf@GV?$char_traits@G@_STL@@@2@@Z 10036680 f i stlport_vc6_static:iostream.obj
 0001:00035730       ??0?$basic_ostream@GV?$char_traits@G@_STL@@@_STL@@QAE@PAV?$basic_streambuf@GV?$char_traits@G@_STL@@@1@@Z 10036730 f i stlport_vc6_static:iostream.obj
 0001:00035840       ??1?$basic_streambuf@GV?$char_traits@G@_STL@@@_STL@@UAE@XZ 10036840 f i stlport_vc6_static:iostream.obj
 0001:00035850       ?setbuf@?$basic_streambuf@GV?$char_traits@G@_STL@@@_STL@@MAEPAV12@PAGH@Z 10036850 f i stlport_vc6_static:iostream.obj
 0001:00035860       ?seekoff@?$basic_streambuf@GV?$char_traits@G@_STL@@@_STL@@MAE?AV?$fpos@H@2@JHH@Z 10036860 f i stlport_vc6_static:iostream.obj
 0001:00035880       ?seekpos@?$basic_streambuf@GV?$char_traits@G@_STL@@@_STL@@MAE?AV?$fpos@H@2@V32@H@Z 10036880 f i stlport_vc6_static:iostream.obj
 0001:000358a0       ?sync@?$basic_streambuf@GV?$char_traits@G@_STL@@@_STL@@MAEHXZ 100368a0 f i stlport_vc6_static:iostream.obj
 0001:000358b0       ?showmanyc@?$basic_streambuf@GV?$char_traits@G@_STL@@@_STL@@MAEHXZ 100368b0 f i stlport_vc6_static:iostream.obj
 0001:000358c0       ?xsgetn@?$basic_streambuf@GV?$char_traits@G@_STL@@@_STL@@MAEHPAGH@Z 100368c0 f i stlport_vc6_static:iostream.obj
 0001:00035960       ?underflow@?$basic_streambuf@GV?$char_traits@G@_STL@@@_STL@@MAEGXZ 10036960 f i stlport_vc6_static:iostream.obj
 0001:00035970       ?uflow@?$basic_streambuf@GV?$char_traits@G@_STL@@@_STL@@MAEGXZ 10036970 f i stlport_vc6_static:iostream.obj
 0001:000359a0       ?pbackfail@?$basic_streambuf@GV?$char_traits@G@_STL@@@_STL@@MAEGG@Z 100369a0 f i stlport_vc6_static:iostream.obj
 0001:000359b0       ?xsputn@?$basic_streambuf@GV?$char_traits@G@_STL@@@_STL@@MAEHPBGH@Z 100369b0 f i stlport_vc6_static:iostream.obj
 0001:00035a60       ?_M_xsputnc@?$basic_streambuf@GV?$char_traits@G@_STL@@@_STL@@MAEHGH@Z 10036a60 f i stlport_vc6_static:iostream.obj
 0001:00035af0       ?overflow@?$basic_streambuf@GV?$char_traits@G@_STL@@@_STL@@MAEGG@Z 10036af0 f i stlport_vc6_static:iostream.obj
 0001:00035b00       ?imbue@?$basic_streambuf@GV?$char_traits@G@_STL@@@_STL@@MAEXABVlocale@2@@Z 10036b00 f i stlport_vc6_static:iostream.obj
 0001:00035b10       ?showmanyc@?$basic_filebuf@GV?$char_traits@G@_STL@@@_STL@@MAEHXZ 10036b10 f i stlport_vc6_static:iostream.obj
 0001:00035b70       ?underflow@?$basic_filebuf@GV?$char_traits@G@_STL@@@_STL@@MAEGXZ 10036b70 f i stlport_vc6_static:iostream.obj
 0001:00035d40       ?pbackfail@?$basic_filebuf@GV?$char_traits@G@_STL@@@_STL@@MAEGG@Z 10036d40 f i stlport_vc6_static:iostream.obj
 0001:00035df0       ?overflow@?$basic_filebuf@GV?$char_traits@G@_STL@@@_STL@@MAEGG@Z 10036df0 f i stlport_vc6_static:iostream.obj
 0001:00035fa0       ?setbuf@?$basic_filebuf@GV?$char_traits@G@_STL@@@_STL@@MAEPAV?$basic_streambuf@GV?$char_traits@G@_STL@@@2@PAGH@Z 10036fa0 f i stlport_vc6_static:iostream.obj
 0001:00036140       ?seekoff@?$basic_filebuf@GV?$char_traits@G@_STL@@@_STL@@MAE?AV?$fpos@H@2@JHH@Z 10037140 f i stlport_vc6_static:iostream.obj
 0001:00036620       ?seekpos@?$basic_filebuf@GV?$char_traits@G@_STL@@@_STL@@MAE?AV?$fpos@H@2@V32@H@Z 10037620 f i stlport_vc6_static:iostream.obj
 0001:00036710       ?sync@?$basic_filebuf@GV?$char_traits@G@_STL@@@_STL@@MAEHXZ 10037710 f i stlport_vc6_static:iostream.obj
 0001:00036730       ?imbue@?$basic_filebuf@GV?$char_traits@G@_STL@@@_STL@@MAEXABVlocale@2@@Z 10037730 f i stlport_vc6_static:iostream.obj
 0001:000367b0       ??_E?$basic_ostream@GV?$char_traits@G@_STL@@@_STL@@UAEPAXI@Z 100377b0 f i stlport_vc6_static:iostream.obj
 0001:000367b0       ??_G?$basic_ostream@GV?$char_traits@G@_STL@@@_STL@@UAEPAXI@Z 100377b0 f i stlport_vc6_static:iostream.obj
 0001:000367e0       ??_G?$basic_streambuf@GV?$char_traits@G@_STL@@@_STL@@UAEPAXI@Z 100377e0 f i stlport_vc6_static:iostream.obj
 0001:000367e0       ??_E?$basic_streambuf@GV?$char_traits@G@_STL@@@_STL@@UAEPAXI@Z 100377e0 f i stlport_vc6_static:iostream.obj
 0001:00036800       ??_G?$basic_filebuf@GV?$char_traits@G@_STL@@@_STL@@UAEPAXI@Z 10037800 f i stlport_vc6_static:iostream.obj
 0001:00036800       ??_E?$basic_filebuf@GV?$char_traits@G@_STL@@@_STL@@UAEPAXI@Z 10037800 f i stlport_vc6_static:iostream.obj
 0001:00036820       ??1?$basic_filebuf@GV?$char_traits@G@_STL@@@_STL@@UAE@XZ 10037820 f i stlport_vc6_static:iostream.obj
 0001:000369b0       ?unshift@?$codecvt@GDH@_STL@@QBE?AW4result@codecvt_base@2@AAHPAD1AAPAD@Z 100379b0 f i stlport_vc6_static:iostream.obj
 0001:000369d0       ?setg@?$basic_streambuf@GV?$char_traits@G@_STL@@@_STL@@IAEXPAG00@Z 100379d0 f i stlport_vc6_static:iostream.obj
 0001:000369f0       ?setp@?$basic_streambuf@GV?$char_traits@G@_STL@@@_STL@@IAEXPAG0@Z 100379f0 f i stlport_vc6_static:iostream.obj
 0001:00036a10       ??1?$_Filebuf_Tmp_Buf@G@_STL@@QAE@XZ 10037a10 f i stlport_vc6_static:iostream.obj
 0001:00036a20       ?imbue@?$basic_ios@GV?$char_traits@G@_STL@@@_STL@@QAE?AVlocale@2@ABV32@@Z 10037a20 f i stlport_vc6_static:iostream.obj
 0001:00036b80       ?grouping@?$numpunct@G@_STL@@QBE?AV?$basic_string@DV?$char_traits@D@_STL@@V?$allocator@D@2@@2@XZ 10037b80 f i stlport_vc6_static:iostream.obj
 0001:00036ba0       ?_M_exit_input_mode@?$basic_filebuf@GV?$char_traits@G@_STL@@@_STL@@AAEXXZ 10037ba0 f i stlport_vc6_static:iostream.obj
 0001:00036bd0       ?_M_allocate_buffers@?$basic_filebuf@GV?$char_traits@G@_STL@@@_STL@@AAE_NPAGH@Z 10037bd0 f i stlport_vc6_static:iostream.obj
 0001:00036cb0       ?_M_setup_codecvt@?$basic_filebuf@GV?$char_traits@G@_STL@@@_STL@@AAEXABVlocale@2@@Z 10037cb0 f i stlport_vc6_static:iostream.obj
 0001:00036d20       ?_M_exit_putback_mode@?$basic_filebuf@GV?$char_traits@G@_STL@@@_STL@@AAEXXZ 10037d20 f i stlport_vc6_static:iostream.obj
 0001:00036d40       ?pubimbue@?$basic_streambuf@GV?$char_traits@G@_STL@@@_STL@@QAE?AVlocale@2@ABV32@@Z 10037d40 f i stlport_vc6_static:iostream.obj
 0001:00036dd0       ?_M_unshift@?$basic_filebuf@GV?$char_traits@G@_STL@@@_STL@@AAE_NXZ 10037dd0 f i stlport_vc6_static:iostream.obj
 0001:00036e50       ??0failure@ios_base@_STL@@QAE@ABV?$basic_string@DV?$char_traits@D@_STL@@V?$allocator@D@2@@2@@Z 10037e50 f   stlport_vc6_static:ios.obj
 0001:00036e70       ??_Efailure@ios_base@_STL@@UAEPAXI@Z 10037e70 f i stlport_vc6_static:ios.obj
 0001:00036e70       ??_Gfailure@ios_base@_STL@@UAEPAXI@Z 10037e70 f i stlport_vc6_static:ios.obj
 0001:00036e90       ??1failure@ios_base@_STL@@UAE@XZ 10037e90 f   stlport_vc6_static:ios.obj
 0001:00036ea0       ?imbue@ios_base@_STL@@QAE?AVlocale@2@ABV32@@Z 10037ea0 f   stlport_vc6_static:ios.obj
 0001:00036f30       ?xalloc@ios_base@_STL@@SAHXZ 10037f30 f   stlport_vc6_static:ios.obj
 0001:00037040       ?iword@ios_base@_STL@@QAEAAJH@Z 10038040 f   stlport_vc6_static:ios.obj
 0001:000370f0       ?pword@ios_base@_STL@@QAEAAPAXH@Z 100380f0 f   stlport_vc6_static:ios.obj
 0001:000371a0       ?register_callback@ios_base@_STL@@QAEXP6AXW4event@12@AAV12@H@ZH@Z 100381a0 f   stlport_vc6_static:ios.obj
 0001:00037260       ?_M_invoke_callbacks@ios_base@_STL@@IAEXW4event@12@@Z 10038260 f   stlport_vc6_static:ios.obj
 0001:00037290       ?_M_throw_failure@ios_base@_STL@@IAEXXZ 10038290 f   stlport_vc6_static:ios.obj
 0001:00037340       ??0failure@ios_base@_STL@@QAE@ABV012@@Z 10038340 f i stlport_vc6_static:ios.obj
 0001:00037370       ?_M_copy_state@ios_base@_STL@@IAEXABV12@@Z 10038370 f   stlport_vc6_static:ios.obj
 0001:00037520       ??0ios_base@_STL@@IAE@XZ   10038520 f   stlport_vc6_static:ios.obj
 0001:00037650       ??_Eios_base@_STL@@UAEPAXI@Z 10038650 f i stlport_vc6_static:ios.obj
 0001:00037650       ??_Gios_base@_STL@@UAEPAXI@Z 10038650 f i stlport_vc6_static:ios.obj
 0001:00037670       ??1ios_base@_STL@@UAE@XZ   10038670 f   stlport_vc6_static:ios.obj
 0001:00037740       ?tie@?$basic_ios@DV?$char_traits@D@_STL@@@_STL@@QBEPAV?$basic_ostream@DV?$char_traits@D@_STL@@@2@XZ 10038740 f i stlport_vc6_static:ios.obj
 0001:00037750       ?tie@?$basic_ios@DV?$char_traits@D@_STL@@@_STL@@QAEPAV?$basic_ostream@DV?$char_traits@D@_STL@@@2@PAV32@@Z 10038750 f i stlport_vc6_static:ios.obj
 0001:00037760       ?rdbuf@?$basic_ios@DV?$char_traits@D@_STL@@@_STL@@QBEPAV?$basic_streambuf@DV?$char_traits@D@_STL@@@2@XZ 10038760 f i stlport_vc6_static:ios.obj
 0001:00037770       ?fill@?$basic_ios@DV?$char_traits@D@_STL@@@_STL@@QBEDXZ 10038770 f i stlport_vc6_static:ios.obj
 0001:00037780       ?fill@?$basic_ios@DV?$char_traits@D@_STL@@@_STL@@QAEDD@Z 10038780 f i stlport_vc6_static:ios.obj
 0001:00037790       ?setstate@?$basic_ios@DV?$char_traits@D@_STL@@@_STL@@QAEXH@Z 10038790 f i stlport_vc6_static:ios.obj
 0001:000377c0       ?exceptions@?$basic_ios@DV?$char_traits@D@_STL@@@_STL@@QBEHXZ 100387c0 f i stlport_vc6_static:ios.obj
 0001:000377d0       ?exceptions@?$basic_ios@DV?$char_traits@D@_STL@@@_STL@@QAEXH@Z 100387d0 f i stlport_vc6_static:ios.obj
 0001:00037800       ?_S_eof@?$basic_ios@DV?$char_traits@D@_STL@@@_STL@@SA_NH@Z 10038800 f i stlport_vc6_static:ios.obj
 0001:00037810       ?tie@?$basic_ios@GV?$char_traits@G@_STL@@@_STL@@QBEPAV?$basic_ostream@GV?$char_traits@G@_STL@@@2@XZ 10038810 f i stlport_vc6_static:ios.obj
 0001:00037820       ?tie@?$basic_ios@GV?$char_traits@G@_STL@@@_STL@@QAEPAV?$basic_ostream@GV?$char_traits@G@_STL@@@2@PAV32@@Z 10038820 f i stlport_vc6_static:ios.obj
 0001:00037830       ?rdbuf@?$basic_ios@GV?$char_traits@G@_STL@@@_STL@@QBEPAV?$basic_streambuf@GV?$char_traits@G@_STL@@@2@XZ 10038830 f i stlport_vc6_static:ios.obj
 0001:00037840       ?fill@?$basic_ios@GV?$char_traits@G@_STL@@@_STL@@QBEGXZ 10038840 f i stlport_vc6_static:ios.obj
 0001:00037850       ?fill@?$basic_ios@GV?$char_traits@G@_STL@@@_STL@@QAEGG@Z 10038850 f i stlport_vc6_static:ios.obj
 0001:00037860       ?setstate@?$basic_ios@GV?$char_traits@G@_STL@@@_STL@@QAEXH@Z 10038860 f i stlport_vc6_static:ios.obj
 0001:00037890       ?exceptions@?$basic_ios@GV?$char_traits@G@_STL@@@_STL@@QBEHXZ 10038890 f i stlport_vc6_static:ios.obj
 0001:000378a0       ?exceptions@?$basic_ios@GV?$char_traits@G@_STL@@@_STL@@QAEXH@Z 100388a0 f i stlport_vc6_static:ios.obj
 0001:000378d0       ?_S_eof@?$basic_ios@GV?$char_traits@G@_STL@@@_STL@@SA_NG@Z 100388d0 f i stlport_vc6_static:ios.obj
 0001:000378e0       ??0?$basic_ios@DV?$char_traits@D@_STL@@@_STL@@QAE@PAV?$basic_streambuf@DV?$char_traits@D@_STL@@@1@@Z 100388e0 f i stlport_vc6_static:ios.obj
 0001:000379a0       ?copyfmt@?$basic_ios@DV?$char_traits@D@_STL@@@_STL@@QAEAAV12@ABV12@@Z 100389a0 f i stlport_vc6_static:ios.obj
 0001:000379e0       ?_M_handle_exception@?$basic_ios@DV?$char_traits@D@_STL@@@_STL@@QAEXH@Z 100389e0 f i stlport_vc6_static:ios.obj
 0001:00037a00       ??0?$basic_ios@GV?$char_traits@G@_STL@@@_STL@@IAE@XZ 10038a00 f i stlport_vc6_static:ios.obj
 0001:00037a20       ??0?$basic_ios@GV?$char_traits@G@_STL@@@_STL@@QAE@PAV?$basic_streambuf@GV?$char_traits@G@_STL@@@1@@Z 10038a20 f i stlport_vc6_static:ios.obj
 0001:00037af0       ?rdbuf@?$basic_ios@GV?$char_traits@G@_STL@@@_STL@@QAEPAV?$basic_streambuf@GV?$char_traits@G@_STL@@@2@PAV32@@Z 10038af0 f i stlport_vc6_static:ios.obj
 0001:00037b20       ?copyfmt@?$basic_ios@GV?$char_traits@G@_STL@@@_STL@@QAEAAV12@ABV12@@Z 10038b20 f i stlport_vc6_static:ios.obj
 0001:00037b60       ?narrow@?$basic_ios@GV?$char_traits@G@_STL@@@_STL@@QBEDGD@Z 10038b60 f i stlport_vc6_static:ios.obj
 0001:00037b80       ?widen@?$basic_ios@GV?$char_traits@G@_STL@@@_STL@@QBEGD@Z 10038b80 f i stlport_vc6_static:ios.obj
 0001:00037b90       ?_M_handle_exception@?$basic_ios@GV?$char_traits@G@_STL@@@_STL@@QAEXH@Z 10038b90 f i stlport_vc6_static:ios.obj
 0001:00037bb0       ?narrow@?$basic_ios@DV?$char_traits@D@_STL@@@_STL@@QBEDDD@Z 10038bb0 f i stlport_vc6_static:ios.obj
 0001:00037bc0       ?widen@?$basic_ios@DV?$char_traits@D@_STL@@@_STL@@QBEDD@Z 10038bc0 f i stlport_vc6_static:ios.obj
 0001:00037bd0       ?__copy@_STL@@YAPAU?$pair@P6AXW4event@ios_base@_STL@@AAV23@H@ZH@1@PBU21@0PAU21@ABUrandom_access_iterator_tag@1@PAH@Z 10038bd0 f i stlport_vc6_static:ios.obj
 0001:00037c10       ?__copy@_STL@@YAPAJPBJ0PAJABUrandom_access_iterator_tag@1@PAH@Z 10038c10 f i stlport_vc6_static:ios.obj
 0001:00037c40       ??1?$basic_streambuf@DV?$char_traits@D@_STL@@@_STL@@UAE@XZ 10038c40 f   stlport_vc6_static:streambuf.obj
 0001:00037c50       ??0?$basic_streambuf@DV?$char_traits@D@_STL@@@_STL@@IAE@PAU_iobuf@@0@Z 10038c50 f   stlport_vc6_static:streambuf.obj
 0001:00037cc0       ?imbue@?$basic_streambuf@DV?$char_traits@D@_STL@@@_STL@@MAEXABVlocale@2@@Z 10038cc0 f   stlport_vc6_static:streambuf.obj
 0001:00037cd0       ?setbuf@?$basic_streambuf@DV?$char_traits@D@_STL@@@_STL@@MAEPAV12@PADH@Z 10038cd0 f   stlport_vc6_static:streambuf.obj
 0001:00037ce0       ?seekoff@?$basic_streambuf@DV?$char_traits@D@_STL@@@_STL@@MAE?AV?$fpos@H@2@JHH@Z 10038ce0 f   stlport_vc6_static:streambuf.obj
 0001:00037d00       ?seekpos@?$basic_streambuf@DV?$char_traits@D@_STL@@@_STL@@MAE?AV?$fpos@H@2@V32@H@Z 10038d00 f   stlport_vc6_static:streambuf.obj
 0001:00037d20       ?sync@?$basic_streambuf@DV?$char_traits@D@_STL@@@_STL@@MAEHXZ 10038d20 f   stlport_vc6_static:streambuf.obj
 0001:00037d30       ?showmanyc@?$basic_streambuf@DV?$char_traits@D@_STL@@@_STL@@MAEHXZ 10038d30 f   stlport_vc6_static:streambuf.obj
 0001:00037d40       ?xsgetn@?$basic_streambuf@DV?$char_traits@D@_STL@@@_STL@@MAEHPADH@Z 10038d40 f   stlport_vc6_static:streambuf.obj
 0001:00037de0       ?underflow@?$basic_streambuf@DV?$char_traits@D@_STL@@@_STL@@MAEHXZ 10038de0 f   stlport_vc6_static:streambuf.obj
 0001:00037df0       ?uflow@?$basic_streambuf@DV?$char_traits@D@_STL@@@_STL@@MAEHXZ 10038df0 f   stlport_vc6_static:streambuf.obj
 0001:00037e20       ?pbackfail@?$basic_streambuf@DV?$char_traits@D@_STL@@@_STL@@MAEHH@Z 10038e20 f   stlport_vc6_static:streambuf.obj
 0001:00037e30       ?xsputn@?$basic_streambuf@DV?$char_traits@D@_STL@@@_STL@@MAEHPBDH@Z 10038e30 f   stlport_vc6_static:streambuf.obj
 0001:00037ee0       ?_M_xsputnc@?$basic_streambuf@DV?$char_traits@D@_STL@@@_STL@@MAEHDH@Z 10038ee0 f   stlport_vc6_static:streambuf.obj
 0001:00037fa0       ?overflow@?$basic_streambuf@DV?$char_traits@D@_STL@@@_STL@@MAEHH@Z 10038fa0 f   stlport_vc6_static:streambuf.obj
 0001:00037fb0       ?_M_snextc_aux@?$basic_streambuf@DV?$char_traits@D@_STL@@@_STL@@AAEHXZ 10038fb0 f   stlport_vc6_static:streambuf.obj
 0001:00038010       ?pubimbue@?$basic_streambuf@DV?$char_traits@D@_STL@@@_STL@@QAE?AVlocale@2@ABV32@@Z 10039010 f   stlport_vc6_static:streambuf.obj
 0001:000380a0       ?eback@?$basic_streambuf@GV?$char_traits@G@_STL@@@_STL@@IBEPAGXZ 100390a0 f i stlport_vc6_static:streambuf.obj
 0001:000380b0       ?gptr@?$basic_streambuf@GV?$char_traits@G@_STL@@@_STL@@IBEPAGXZ 100390b0 f i stlport_vc6_static:streambuf.obj
 0001:000380c0       ?egptr@?$basic_streambuf@GV?$char_traits@G@_STL@@@_STL@@IBEPAGXZ 100390c0 f i stlport_vc6_static:streambuf.obj
 0001:000380d0       ?gbump@?$basic_streambuf@GV?$char_traits@G@_STL@@@_STL@@IAEXH@Z 100390d0 f i stlport_vc6_static:streambuf.obj
 0001:000380f0       ?_M_eback@?$basic_streambuf@GV?$char_traits@G@_STL@@@_STL@@QBEPAGXZ 100390f0 f i stlport_vc6_static:streambuf.obj
 0001:00038100       ?_M_gptr@?$basic_streambuf@GV?$char_traits@G@_STL@@@_STL@@QBEPAGXZ 10039100 f i stlport_vc6_static:streambuf.obj
 0001:00038110       ?_M_egptr@?$basic_streambuf@GV?$char_traits@G@_STL@@@_STL@@QBEPAGXZ 10039110 f i stlport_vc6_static:streambuf.obj
 0001:00038120       ?_M_gbump@?$basic_streambuf@GV?$char_traits@G@_STL@@@_STL@@QAEXH@Z 10039120 f i stlport_vc6_static:streambuf.obj
 0001:00038140       ?_M_setg@?$basic_streambuf@GV?$char_traits@G@_STL@@@_STL@@QAEXPAG00@Z 10039140 f i stlport_vc6_static:streambuf.obj
 0001:00038160       ?pbase@?$basic_streambuf@GV?$char_traits@G@_STL@@@_STL@@IBEPAGXZ 10039160 f i stlport_vc6_static:streambuf.obj
 0001:00038170       ?pptr@?$basic_streambuf@GV?$char_traits@G@_STL@@@_STL@@IBEPAGXZ 10039170 f i stlport_vc6_static:streambuf.obj
 0001:00038180       ?epptr@?$basic_streambuf@GV?$char_traits@G@_STL@@@_STL@@IBEPAGXZ 10039180 f i stlport_vc6_static:streambuf.obj
 0001:00038190       ?pbump@?$basic_streambuf@GV?$char_traits@G@_STL@@@_STL@@IAEXH@Z 10039190 f i stlport_vc6_static:streambuf.obj
 0001:000381b0       ?pubsetbuf@?$basic_streambuf@GV?$char_traits@G@_STL@@@_STL@@QAEPAV12@PAGH@Z 100391b0 f i stlport_vc6_static:streambuf.obj
 0001:000381d0       ?pubseekoff@?$basic_streambuf@GV?$char_traits@G@_STL@@@_STL@@QAE?AV?$fpos@H@2@JHH@Z 100391d0 f i stlport_vc6_static:streambuf.obj
 0001:000381f0       ?pubseekpos@?$basic_streambuf@GV?$char_traits@G@_STL@@@_STL@@QAE?AV?$fpos@H@2@V32@H@Z 100391f0 f i stlport_vc6_static:streambuf.obj
 0001:00038210       ?pubsync@?$basic_streambuf@GV?$char_traits@G@_STL@@@_STL@@QAEHXZ 10039210 f i stlport_vc6_static:streambuf.obj
 0001:00038220       ?sputn@?$basic_streambuf@GV?$char_traits@G@_STL@@@_STL@@QAEHPBGH@Z 10039220 f i stlport_vc6_static:streambuf.obj
 0001:00038240       ?_M_sputnc@?$basic_streambuf@GV?$char_traits@G@_STL@@@_STL@@QAEHGH@Z 10039240 f i stlport_vc6_static:streambuf.obj
 0001:00038260       ?in_avail@?$basic_streambuf@GV?$char_traits@G@_STL@@@_STL@@QAEHXZ 10039260 f i stlport_vc6_static:streambuf.obj
 0001:00038280       ?snextc@?$basic_streambuf@GV?$char_traits@G@_STL@@@_STL@@QAEGXZ 10039280 f i stlport_vc6_static:streambuf.obj
 0001:000382e0       ?sgetn@?$basic_streambuf@GV?$char_traits@G@_STL@@@_STL@@QAEHPAGH@Z 100392e0 f i stlport_vc6_static:streambuf.obj
 0001:00038300       ?sputbackc@?$basic_streambuf@GV?$char_traits@G@_STL@@@_STL@@QAEGG@Z 10039300 f i stlport_vc6_static:streambuf.obj
 0001:00038330       ?sungetc@?$basic_streambuf@GV?$char_traits@G@_STL@@@_STL@@QAEGXZ 10039330 f i stlport_vc6_static:streambuf.obj
 0001:00038350       ?getloc@?$basic_streambuf@GV?$char_traits@G@_STL@@@_STL@@QBE?AVlocale@2@XZ 10039350 f i stlport_vc6_static:streambuf.obj
 0001:00038370       ?stossc@?$basic_streambuf@GV?$char_traits@G@_STL@@@_STL@@QAEXXZ 10039370 f i stlport_vc6_static:streambuf.obj
 0001:00038390       ??0?$basic_streambuf@GV?$char_traits@G@_STL@@@_STL@@IAE@XZ 10039390 f i stlport_vc6_static:streambuf.obj
 0001:000383c0       ?_M_snextc_aux@?$basic_streambuf@GV?$char_traits@G@_STL@@@_STL@@AAEGXZ 100393c0 f i stlport_vc6_static:streambuf.obj
 0001:00038450       ?flag_to_openmode@_SgI@@YAHH@Z 10039450 f   stlport_vc6_static:fstream.obj
 0001:00038490       ?__is_regular_file@_SgI@@YA_NPAX@Z 10039490 f   stlport_vc6_static:fstream.obj
 0001:000384b0       ?__file_size@_SgI@@YAJPAX@Z 100394b0 f   stlport_vc6_static:fstream.obj
 0001:000384f0       ?_get_osfflags@_SgI@@YAHHPAX@Z 100394f0 f   stlport_vc6_static:fstream.obj
 0001:00038540       ??0_Filebuf_base@_STL@@QAE@XZ 10039540 f   stlport_vc6_static:fstream.obj
 0001:000385a0       ?_M_file_size@_Filebuf_base@_STL@@QAEJXZ 100395a0 f   stlport_vc6_static:fstream.obj
 0001:000385b0       ?_M_open@_Filebuf_base@_STL@@QAE_NPBDHJ@Z 100395b0 f   stlport_vc6_static:fstream.obj
 0001:000386f0       ?_M_open@_Filebuf_base@_STL@@QAE_NPBDH@Z 100396f0 f   stlport_vc6_static:fstream.obj
 0001:00038710       ?_M_open@_Filebuf_base@_STL@@QAE_NHH@Z 10039710 f   stlport_vc6_static:fstream.obj
 0001:00038780       ?_M_close@_Filebuf_base@_STL@@QAE_NXZ 10039780 f   stlport_vc6_static:fstream.obj
 0001:000387e0       ?_M_read@_Filebuf_base@_STL@@QAEHPADH@Z 100397e0 f   stlport_vc6_static:fstream.obj
 0001:000388d0       ?_M_write@_Filebuf_base@_STL@@QAE_NPADH@Z 100398d0 f   stlport_vc6_static:fstream.obj
 0001:00038a90       ?_M_seek@_Filebuf_base@_STL@@QAEJJH@Z 10039a90 f   stlport_vc6_static:fstream.obj
 0001:00038b40       ?_M_mmap@_Filebuf_base@_STL@@QAEPAXJJ@Z 10039b40 f   stlport_vc6_static:fstream.obj
 0001:00038bb0       ?_M_unmap@_Filebuf_base@_STL@@QAEXPAXJ@Z 10039bb0 f   stlport_vc6_static:fstream.obj
 0001:00038be0       ?_M_doit@?$_Underflow@DV?$char_traits@D@_STL@@@_STL@@SAHPAV?$basic_filebuf@DV?$char_traits@D@_STL@@@2@@Z 10039be0 f   stlport_vc6_static:fstream.obj
 0001:00038f00       ?is_open@?$basic_filebuf@DV?$char_traits@D@_STL@@@_STL@@QBE_NXZ 10039f00 f i stlport_vc6_static:fstream.obj
 0001:00038f10       ?open@?$basic_filebuf@DV?$char_traits@D@_STL@@@_STL@@QAEPAV12@PBDH@Z 10039f10 f i stlport_vc6_static:fstream.obj
 0001:00038f30       ?open@?$basic_filebuf@DV?$char_traits@D@_STL@@@_STL@@QAEPAV12@PBDHJ@Z 10039f30 f i stlport_vc6_static:fstream.obj
 0001:00038f60       ?fd@?$basic_filebuf@DV?$char_traits@D@_STL@@@_STL@@QBEPAXXZ 10039f60 f i stlport_vc6_static:fstream.obj
 0001:00038f70       ?open@?$basic_filebuf@DV?$char_traits@D@_STL@@@_STL@@QAEPAV12@HH@Z 10039f70 f i stlport_vc6_static:fstream.obj
 0001:00038f90       ?_M_open@?$basic_filebuf@DV?$char_traits@D@_STL@@@_STL@@QAEPAV12@HH@Z 10039f90 f i stlport_vc6_static:fstream.obj
 0001:00038fb0       ?_M_exit_putback_mode@?$basic_filebuf@DV?$char_traits@D@_STL@@@_STL@@AAEXXZ 10039fb0 f i stlport_vc6_static:fstream.obj
 0001:00038fe0       ?_M_seek_return@?$basic_filebuf@DV?$char_traits@D@_STL@@@_STL@@AAE?AV?$fpos@H@2@JH@Z 10039fe0 f i stlport_vc6_static:fstream.obj
 0001:00039050       ?_M_write@?$basic_filebuf@DV?$char_traits@D@_STL@@@_STL@@QAE_NPADH@Z 1003a050 f i stlport_vc6_static:fstream.obj
 0001:00039070       ?_M_do_noconv_input@?$basic_filebuf@DV?$char_traits@D@_STL@@@_STL@@QAEHXZ 1003a070 f i stlport_vc6_static:fstream.obj
 0001:000390a0       ??0?$basic_ifstream@DV?$char_traits@D@_STL@@@_STL@@QAE@XZ 1003a0a0 f i stlport_vc6_static:fstream.obj
 0001:000392a0       ??0?$basic_ifstream@DV?$char_traits@D@_STL@@@_STL@@QAE@PBDH@Z 1003a2a0 f i stlport_vc6_static:fstream.obj
 0001:00039510       ??0?$basic_ifstream@DV?$char_traits@D@_STL@@@_STL@@QAE@HH@Z 1003a510 f i stlport_vc6_static:fstream.obj
 0001:00039780       ??0?$basic_ifstream@DV?$char_traits@D@_STL@@@_STL@@QAE@PBDHJ@Z 1003a780 f i stlport_vc6_static:fstream.obj
 0001:000399f0       ??1?$basic_ifstream@DV?$char_traits@D@_STL@@@_STL@@UAE@XZ 1003a9f0 f i stlport_vc6_static:fstream.obj
 0001:00039b50       ?rdbuf@?$basic_ifstream@DV?$char_traits@D@_STL@@@_STL@@QBEPAV?$basic_filebuf@DV?$char_traits@D@_STL@@@2@XZ 1003ab50 f i stlport_vc6_static:fstream.obj
 0001:00039b60       ?is_open@?$basic_ifstream@DV?$char_traits@D@_STL@@@_STL@@QAE_NXZ 1003ab60 f i stlport_vc6_static:fstream.obj
 0001:00039b70       ?open@?$basic_ifstream@DV?$char_traits@D@_STL@@@_STL@@QAEXPBDH@Z 1003ab70 f i stlport_vc6_static:fstream.obj
 0001:00039bc0       ?close@?$basic_ifstream@DV?$char_traits@D@_STL@@@_STL@@QAEXXZ 1003abc0 f i stlport_vc6_static:fstream.obj
 0001:00039d70       ??0?$basic_ofstream@DV?$char_traits@D@_STL@@@_STL@@QAE@XZ 1003ad70 f i stlport_vc6_static:fstream.obj
 0001:00039f70       ??0?$basic_ofstream@DV?$char_traits@D@_STL@@@_STL@@QAE@PBDH@Z 1003af70 f i stlport_vc6_static:fstream.obj
 0001:0003a1e0       ??0?$basic_ofstream@DV?$char_traits@D@_STL@@@_STL@@QAE@HH@Z 1003b1e0 f i stlport_vc6_static:fstream.obj
 0001:0003a450       ??0?$basic_ofstream@DV?$char_traits@D@_STL@@@_STL@@QAE@PBDHJ@Z 1003b450 f i stlport_vc6_static:fstream.obj
 0001:0003a6c0       ??1?$basic_ofstream@DV?$char_traits@D@_STL@@@_STL@@UAE@XZ 1003b6c0 f i stlport_vc6_static:fstream.obj
 0001:0003a820       ?rdbuf@?$basic_ofstream@DV?$char_traits@D@_STL@@@_STL@@QBEPAV?$basic_filebuf@DV?$char_traits@D@_STL@@@2@XZ 1003b820 f i stlport_vc6_static:fstream.obj
 0001:0003a830       ?is_open@?$basic_ofstream@DV?$char_traits@D@_STL@@@_STL@@QAE_NXZ 1003b830 f i stlport_vc6_static:fstream.obj
 0001:0003a840       ?open@?$basic_ofstream@DV?$char_traits@D@_STL@@@_STL@@QAEXPBDH@Z 1003b840 f i stlport_vc6_static:fstream.obj
 0001:0003a890       ?close@?$basic_ofstream@DV?$char_traits@D@_STL@@@_STL@@QAEXXZ 1003b890 f i stlport_vc6_static:fstream.obj
 0001:0003aa40       ??0?$basic_fstream@DV?$char_traits@D@_STL@@@_STL@@QAE@PBDH@Z 1003ba40 f i stlport_vc6_static:fstream.obj
 0001:0003ac70       ??0?$basic_fstream@DV?$char_traits@D@_STL@@@_STL@@QAE@HH@Z 1003bc70 f i stlport_vc6_static:fstream.obj
 0001:0003aea0       ??0?$basic_fstream@DV?$char_traits@D@_STL@@@_STL@@QAE@PBDHJ@Z 1003bea0 f i stlport_vc6_static:fstream.obj
 0001:0003b0d0       ?rdbuf@?$basic_fstream@DV?$char_traits@D@_STL@@@_STL@@QBEPAV?$basic_filebuf@DV?$char_traits@D@_STL@@@2@XZ 1003c0d0 f i stlport_vc6_static:fstream.obj
 0001:0003b0e0       ?is_open@?$basic_fstream@DV?$char_traits@D@_STL@@@_STL@@QAE_NXZ 1003c0e0 f i stlport_vc6_static:fstream.obj
 0001:0003b0f0       ?open@?$basic_fstream@DV?$char_traits@D@_STL@@@_STL@@QAEXPBDH@Z 1003c0f0 f i stlport_vc6_static:fstream.obj
 0001:0003b140       ?close@?$basic_fstream@DV?$char_traits@D@_STL@@@_STL@@QAEXXZ 1003c140 f i stlport_vc6_static:fstream.obj
 0001:0003b2f0       ?is_open@?$basic_filebuf@GV?$char_traits@G@_STL@@@_STL@@QBE_NXZ 1003c2f0 f i stlport_vc6_static:fstream.obj
 0001:0003b300       ?open@?$basic_filebuf@GV?$char_traits@G@_STL@@@_STL@@QAEPAV12@PBDH@Z 1003c300 f i stlport_vc6_static:fstream.obj
 0001:0003b320       ?open@?$basic_filebuf@GV?$char_traits@G@_STL@@@_STL@@QAEPAV12@PBDHJ@Z 1003c320 f i stlport_vc6_static:fstream.obj
 0001:0003b350       ?fd@?$basic_filebuf@GV?$char_traits@G@_STL@@@_STL@@QBEPAXXZ 1003c350 f i stlport_vc6_static:fstream.obj
 0001:0003b360       ?open@?$basic_filebuf@GV?$char_traits@G@_STL@@@_STL@@QAEPAV12@HH@Z 1003c360 f i stlport_vc6_static:fstream.obj
 0001:0003b380       ?_M_open@?$basic_filebuf@GV?$char_traits@G@_STL@@@_STL@@QAEPAV12@HH@Z 1003c380 f i stlport_vc6_static:fstream.obj
 0001:0003b3a0       ?_M_seek_return@?$basic_filebuf@GV?$char_traits@G@_STL@@@_STL@@AAE?AV?$fpos@H@2@JH@Z 1003c3a0 f i stlport_vc6_static:fstream.obj
 0001:0003b410       ?_M_write@?$basic_filebuf@GV?$char_traits@G@_STL@@@_STL@@QAE_NPADH@Z 1003c410 f i stlport_vc6_static:fstream.obj
 0001:0003b430       ?_M_do_noconv_input@?$basic_filebuf@GV?$char_traits@G@_STL@@@_STL@@QAEGXZ 1003c430 f i stlport_vc6_static:fstream.obj
 0001:0003b450       ??0?$basic_ifstream@GV?$char_traits@G@_STL@@@_STL@@QAE@XZ 1003c450 f i stlport_vc6_static:fstream.obj
 0001:0003b620       ??0?$basic_ifstream@GV?$char_traits@G@_STL@@@_STL@@QAE@PBDH@Z 1003c620 f i stlport_vc6_static:fstream.obj
 0001:0003b860       ??0?$basic_ifstream@GV?$char_traits@G@_STL@@@_STL@@QAE@HH@Z 1003c860 f i stlport_vc6_static:fstream.obj
 0001:0003baa0       ??0?$basic_ifstream@GV?$char_traits@G@_STL@@@_STL@@QAE@PBDHJ@Z 1003caa0 f i stlport_vc6_static:fstream.obj
 0001:0003bcf0       ??1?$basic_ifstream@GV?$char_traits@G@_STL@@@_STL@@UAE@XZ 1003ccf0 f i stlport_vc6_static:fstream.obj
 0001:0003be30       ?rdbuf@?$basic_ifstream@GV?$char_traits@G@_STL@@@_STL@@QBEPAV?$basic_filebuf@GV?$char_traits@G@_STL@@@2@XZ 1003ce30 f i stlport_vc6_static:fstream.obj
 0001:0003be40       ?is_open@?$basic_ifstream@GV?$char_traits@G@_STL@@@_STL@@QAE_NXZ 1003ce40 f i stlport_vc6_static:fstream.obj
 0001:0003be50       ?open@?$basic_ifstream@GV?$char_traits@G@_STL@@@_STL@@QAEXPBDH@Z 1003ce50 f i stlport_vc6_static:fstream.obj
 0001:0003bea0       ?close@?$basic_ifstream@GV?$char_traits@G@_STL@@@_STL@@QAEXXZ 1003cea0 f i stlport_vc6_static:fstream.obj
 0001:0003c010       ??1?$basic_istream@GV?$char_traits@G@_STL@@@_STL@@UAE@XZ 1003d010 f i stlport_vc6_static:fstream.obj
 0001:0003c020       ??0?$basic_ofstream@GV?$char_traits@G@_STL@@@_STL@@QAE@XZ 1003d020 f i stlport_vc6_static:fstream.obj
 0001:0003c1f0       ??0?$basic_ofstream@GV?$char_traits@G@_STL@@@_STL@@QAE@PBDH@Z 1003d1f0 f i stlport_vc6_static:fstream.obj
 0001:0003c430       ??0?$basic_ofstream@GV?$char_traits@G@_STL@@@_STL@@QAE@HH@Z 1003d430 f i stlport_vc6_static:fstream.obj
 0001:0003c670       ??0?$basic_ofstream@GV?$char_traits@G@_STL@@@_STL@@QAE@PBDHJ@Z 1003d670 f i stlport_vc6_static:fstream.obj
 0001:0003c8c0       ??1?$basic_ofstream@GV?$char_traits@G@_STL@@@_STL@@UAE@XZ 1003d8c0 f i stlport_vc6_static:fstream.obj
 0001:0003ca00       ?rdbuf@?$basic_ofstream@GV?$char_traits@G@_STL@@@_STL@@QBEPAV?$basic_filebuf@GV?$char_traits@G@_STL@@@2@XZ 1003da00 f i stlport_vc6_static:fstream.obj
 0001:0003ca10       ?is_open@?$basic_ofstream@GV?$char_traits@G@_STL@@@_STL@@QAE_NXZ 1003da10 f i stlport_vc6_static:fstream.obj
 0001:0003ca20       ??0?$basic_streambuf@DV?$char_traits@D@_STL@@@_STL@@IAE@XZ 1003da20 f i stlport_vc6_static:fstream.obj
 0001:0003ca60       ?open@?$basic_ofstream@GV?$char_traits@G@_STL@@@_STL@@QAEXPBDH@Z 1003da60 f i stlport_vc6_static:fstream.obj
 0001:0003cab0       ?close@?$basic_ofstream@GV?$char_traits@G@_STL@@@_STL@@QAEXXZ 1003dab0 f i stlport_vc6_static:fstream.obj
 0001:0003cc20       ??0?$basic_fstream@GV?$char_traits@G@_STL@@@_STL@@QAE@XZ 1003dc20 f i stlport_vc6_static:fstream.obj
 0001:0003cdc0       ??0?$basic_fstream@GV?$char_traits@G@_STL@@@_STL@@QAE@PBDH@Z 1003ddc0 f i stlport_vc6_static:fstream.obj
 0001:0003cfe0       ??0?$basic_fstream@GV?$char_traits@G@_STL@@@_STL@@QAE@HH@Z 1003dfe0 f i stlport_vc6_static:fstream.obj
 0001:0003d200       ??0?$basic_fstream@GV?$char_traits@G@_STL@@@_STL@@QAE@PBDHJ@Z 1003e200 f i stlport_vc6_static:fstream.obj
 0001:0003d420       ??1?$basic_fstream@GV?$char_traits@G@_STL@@@_STL@@UAE@XZ 1003e420 f i stlport_vc6_static:fstream.obj
 0001:0003d580       ?rdbuf@?$basic_fstream@GV?$char_traits@G@_STL@@@_STL@@QBEPAV?$basic_filebuf@GV?$char_traits@G@_STL@@@2@XZ 1003e580 f i stlport_vc6_static:fstream.obj
 0001:0003d590       ?is_open@?$basic_fstream@GV?$char_traits@G@_STL@@@_STL@@QAE_NXZ 1003e590 f i stlport_vc6_static:fstream.obj
 0001:0003d5a0       ?open@?$basic_fstream@GV?$char_traits@G@_STL@@@_STL@@QAEXPBDH@Z 1003e5a0 f i stlport_vc6_static:fstream.obj
 0001:0003d5f0       ?close@?$basic_fstream@GV?$char_traits@G@_STL@@@_STL@@QAEXXZ 1003e5f0 f i stlport_vc6_static:fstream.obj
 0001:0003d760       ??_G?$basic_ifstream@DV?$char_traits@D@_STL@@@_STL@@UAEPAXI@Z 1003e760 f i stlport_vc6_static:fstream.obj
 0001:0003d760       ??_E?$basic_ifstream@DV?$char_traits@D@_STL@@@_STL@@UAEPAXI@Z 1003e760 f i stlport_vc6_static:fstream.obj
 0001:0003d7a0       ??_G?$basic_ofstream@DV?$char_traits@D@_STL@@@_STL@@UAEPAXI@Z 1003e7a0 f i stlport_vc6_static:fstream.obj
 0001:0003d7a0       ??_E?$basic_ofstream@DV?$char_traits@D@_STL@@@_STL@@UAEPAXI@Z 1003e7a0 f i stlport_vc6_static:fstream.obj
 0001:0003d7e0       ??_E?$basic_ifstream@GV?$char_traits@G@_STL@@@_STL@@UAEPAXI@Z 1003e7e0 f i stlport_vc6_static:fstream.obj
 0001:0003d7e0       ??_G?$basic_ifstream@GV?$char_traits@G@_STL@@@_STL@@UAEPAXI@Z 1003e7e0 f i stlport_vc6_static:fstream.obj
 0001:0003d820       ??_G?$basic_ofstream@GV?$char_traits@G@_STL@@@_STL@@UAEPAXI@Z 1003e820 f i stlport_vc6_static:fstream.obj
 0001:0003d820       ??_E?$basic_ofstream@GV?$char_traits@G@_STL@@@_STL@@UAEPAXI@Z 1003e820 f i stlport_vc6_static:fstream.obj
 0001:0003d860       ??_G?$basic_fstream@GV?$char_traits@G@_STL@@@_STL@@UAEPAXI@Z 1003e860 f i stlport_vc6_static:fstream.obj
 0001:0003d860       ??_E?$basic_fstream@GV?$char_traits@G@_STL@@@_STL@@UAEPAXI@Z 1003e860 f i stlport_vc6_static:fstream.obj
 0001:0003d8a0       ??_D?$basic_ifstream@DV?$char_traits@D@_STL@@@_STL@@QAEXXZ 1003e8a0 f i stlport_vc6_static:fstream.obj
 0001:0003d8c0       ??_D?$basic_ofstream@DV?$char_traits@D@_STL@@@_STL@@QAEXXZ 1003e8c0 f i stlport_vc6_static:fstream.obj
 0001:0003d8e0       ??_D?$basic_fstream@DV?$char_traits@D@_STL@@@_STL@@QAEXXZ 1003e8e0 f i stlport_vc6_static:fstream.obj
 0001:0003d900       ??_D?$basic_ifstream@GV?$char_traits@G@_STL@@@_STL@@QAEXXZ 1003e900 f i stlport_vc6_static:fstream.obj
 0001:0003d920       ??_D?$basic_ofstream@GV?$char_traits@G@_STL@@@_STL@@QAEXXZ 1003e920 f i stlport_vc6_static:fstream.obj
 0001:0003d940       ??_D?$basic_fstream@GV?$char_traits@G@_STL@@@_STL@@QAEXXZ 1003e940 f i stlport_vc6_static:fstream.obj
 0001:0003d960       ??0?$basic_filebuf@DV?$char_traits@D@_STL@@@_STL@@QAE@XZ 1003e960 f i stlport_vc6_static:fstream.obj
 0001:0003dad0       ?_M_switch_to_input_mode@?$basic_filebuf@DV?$char_traits@D@_STL@@@_STL@@AAE_NXZ 1003ead0 f i stlport_vc6_static:fstream.obj
 0001:0003dc00       ?_M_switch_to_output_mode@?$basic_filebuf@DV?$char_traits@D@_STL@@@_STL@@AAE_NXZ 1003ec00 f i stlport_vc6_static:fstream.obj
 0001:0003dd40       ?_M_input_error@?$basic_filebuf@DV?$char_traits@D@_STL@@@_STL@@AAEHXZ 1003ed40 f i stlport_vc6_static:fstream.obj
 0001:0003dd90       ?_M_underflow_aux@?$basic_filebuf@DV?$char_traits@D@_STL@@@_STL@@AAEHXZ 1003ed90 f i stlport_vc6_static:fstream.obj
 0001:0003df20       ?_M_output_error@?$basic_filebuf@DV?$char_traits@D@_STL@@@_STL@@AAEHXZ 1003ef20 f i stlport_vc6_static:fstream.obj
 0001:0003df40       ?_M_allocate_buffers@?$basic_filebuf@DV?$char_traits@D@_STL@@@_STL@@AAE_NXZ 1003ef40 f i stlport_vc6_static:fstream.obj
 0001:0003e030       ?_M_deallocate_buffers@?$basic_filebuf@DV?$char_traits@D@_STL@@@_STL@@AAEXXZ 1003f030 f i stlport_vc6_static:fstream.obj
 0001:0003e070       ?_M_seek_init@?$basic_filebuf@DV?$char_traits@D@_STL@@@_STL@@AAE_N_N@Z 1003f070 f i stlport_vc6_static:fstream.obj
 0001:0003e190       ?_M_doit@?$_Underflow@GV?$char_traits@G@_STL@@@_STL@@SAGPAV?$basic_filebuf@GV?$char_traits@G@_STL@@@2@@Z 1003f190 f i stlport_vc6_static:fstream.obj
 0001:0003e370       ??0?$basic_filebuf@GV?$char_traits@G@_STL@@@_STL@@QAE@XZ 1003f370 f i stlport_vc6_static:fstream.obj
 0001:0003e4a0       ?close@?$basic_filebuf@GV?$char_traits@G@_STL@@@_STL@@QAEPAV12@XZ 1003f4a0 f i stlport_vc6_static:fstream.obj
 0001:0003e5e0       ?_M_switch_to_input_mode@?$basic_filebuf@GV?$char_traits@G@_STL@@@_STL@@AAE_NXZ 1003f5e0 f i stlport_vc6_static:fstream.obj
 0001:0003e710       ?_M_switch_to_output_mode@?$basic_filebuf@GV?$char_traits@G@_STL@@@_STL@@AAE_NXZ 1003f710 f i stlport_vc6_static:fstream.obj
 0001:0003e850       ?_M_input_error@?$basic_filebuf@GV?$char_traits@G@_STL@@@_STL@@AAEGXZ 1003f850 f i stlport_vc6_static:fstream.obj
 0001:0003e890       ?_M_underflow_aux@?$basic_filebuf@GV?$char_traits@G@_STL@@@_STL@@AAEGXZ 1003f890 f i stlport_vc6_static:fstream.obj
 0001:0003e9d0       ?_M_output_error@?$basic_filebuf@GV?$char_traits@G@_STL@@@_STL@@AAEGXZ 1003f9d0 f i stlport_vc6_static:fstream.obj
 0001:0003e9f0       ?_M_allocate_buffers@?$basic_filebuf@GV?$char_traits@G@_STL@@@_STL@@AAE_NXZ 1003f9f0 f i stlport_vc6_static:fstream.obj
 0001:0003eae0       ?_M_deallocate_buffers@?$basic_filebuf@GV?$char_traits@G@_STL@@@_STL@@AAEXXZ 1003fae0 f i stlport_vc6_static:fstream.obj
 0001:0003eb20       ?_M_seek_init@?$basic_filebuf@GV?$char_traits@G@_STL@@@_STL@@AAE_N_N@Z 1003fb20 f i stlport_vc6_static:fstream.obj
 0001:0003ec30       ??1?$basic_ostream@GV?$char_traits@G@_STL@@@_STL@@UAE@XZ 1003fc30 f i stlport_vc6_static:fstream.obj
 0001:0003ec40       ??1?$basic_iostream@GV?$char_traits@G@_STL@@@_STL@@UAE@XZ 1003fc40 f i stlport_vc6_static:fstream.obj
 0001:0003ec80       ??_G?$basic_iostream@GV?$char_traits@G@_STL@@@_STL@@UAEPAXI@Z 1003fc80 f i stlport_vc6_static:fstream.obj
 0001:0003ec80       ??_E?$basic_iostream@GV?$char_traits@G@_STL@@@_STL@@UAEPAXI@Z 1003fc80 f i stlport_vc6_static:fstream.obj
 0001:0003ecb0       ??0?$messages@D@_STL@@QAE@PAV_Messages@1@@Z 1003fcb0 f   stlport_vc6_static:messages.obj
 0001:0003ece0       ??_G?$messages@D@_STL@@MAEPAXI@Z 1003fce0 f i stlport_vc6_static:messages.obj
 0001:0003ece0       ??_E?$messages@D@_STL@@MAEPAXI@Z 1003fce0 f i stlport_vc6_static:messages.obj
 0001:0003ed00       ??1?$messages@D@_STL@@MAE@XZ 1003fd00 f   stlport_vc6_static:messages.obj
 0001:0003ed70       ?do_open@?$messages@D@_STL@@MBEHABV?$basic_string@DV?$char_traits@D@_STL@@V?$allocator@D@2@@2@ABVlocale@2@@Z 1003fd70 f   stlport_vc6_static:messages.obj
 0001:0003ed90       ?do_get@?$messages@D@_STL@@MBE?AV?$basic_string@DV?$char_traits@D@_STL@@V?$allocator@D@2@@2@HHHABV32@@Z 1003fd90 f   stlport_vc6_static:messages.obj
 0001:0003edd0       ?do_close@?$messages@D@_STL@@MBEXH@Z 1003fdd0 f   stlport_vc6_static:messages.obj
 0001:0003ede0       ??0_Messages@_STL@@QAE@XZ  1003fde0 f   stlport_vc6_static:messages.obj
 0001:0003edf0       ??_E_Messages@_STL@@UAEPAXI@Z 1003fdf0 f i stlport_vc6_static:messages.obj
 0001:0003edf0       ??_G_Messages@_STL@@UAEPAXI@Z 1003fdf0 f i stlport_vc6_static:messages.obj
 0001:0003ee10       ??1_Messages@_STL@@UAE@XZ  1003fe10 f   stlport_vc6_static:messages.obj
 0001:0003ee20       ?do_open@_Messages@_STL@@UBEHABV?$basic_string@DV?$char_traits@D@_STL@@V?$allocator@D@2@@2@ABVlocale@2@@Z 1003fe20 f   stlport_vc6_static:messages.obj
 0001:0003ee30       ?do_get@_Messages@_STL@@UBE?AV?$basic_string@DV?$char_traits@D@_STL@@V?$allocator@D@2@@2@HHHABV32@@Z 1003fe30 f   stlport_vc6_static:messages.obj
 0001:0003eef0       ?do_close@_Messages@_STL@@UBEXH@Z 1003fef0 f   stlport_vc6_static:messages.obj
 0001:0003ef00       ??0?$messages@G@_STL@@QAE@PAV_Messages@1@@Z 1003ff00 f   stlport_vc6_static:messages.obj
 0001:0003ef30       ??_E?$messages@G@_STL@@MAEPAXI@Z 1003ff30 f i stlport_vc6_static:messages.obj
 0001:0003ef30       ??_G?$messages@G@_STL@@MAEPAXI@Z 1003ff30 f i stlport_vc6_static:messages.obj
 0001:0003ef50       ??1?$messages@G@_STL@@MAE@XZ 1003ff50 f   stlport_vc6_static:messages.obj
 0001:0003efc0       ?do_open@?$messages@G@_STL@@MBEHABV?$basic_string@DV?$char_traits@D@_STL@@V?$allocator@D@2@@2@ABVlocale@2@@Z 1003ffc0 f   stlport_vc6_static:messages.obj
 0001:0003efe0       ?do_get@?$messages@G@_STL@@MBE?AV?$basic_string@GV?$char_traits@G@_STL@@V?$allocator@G@2@@2@HHHABV32@@Z 1003ffe0 f   stlport_vc6_static:messages.obj
 0001:0003f020       ?do_close@?$messages@G@_STL@@MBEXH@Z 10040020 f   stlport_vc6_static:messages.obj
 0001:0003f030       ?do_get@_Messages@_STL@@UBE?AV?$basic_string@GV?$char_traits@G@_STL@@V?$allocator@G@2@@2@HHHABV32@@Z 10040030 f   stlport_vc6_static:messages.obj
 0001:0003f110       ??1?$codecvt@DDH@_STL@@MAE@XZ 10040110 f   stlport_vc6_static:codecvt.obj
 0001:0003f120       ?do_length@?$codecvt@DDH@_STL@@MBEHABHPBD1I@Z 10040120 f   stlport_vc6_static:codecvt.obj
 0001:0003f150       ?do_max_length@?$codecvt@DDH@_STL@@MBEHXZ 10040150 f   stlport_vc6_static:codecvt.obj
 0001:0003f160       ?do_always_noconv@?$codecvt@DDH@_STL@@MBE_NXZ 10040160 f   stlport_vc6_static:codecvt.obj
 0001:0003f170       ?do_encoding@?$codecvt@DDH@_STL@@MBEHXZ 10040170 f   stlport_vc6_static:codecvt.obj
 0001:0003f180       ?do_unshift@?$codecvt@DDH@_STL@@MBE?AW4result@codecvt_base@2@AAHPAD1AAPAD@Z 10040180 f   stlport_vc6_static:codecvt.obj
 0001:0003f1a0       ?do_in@?$codecvt@DDH@_STL@@MBE?AW4result@codecvt_base@2@AAHPBD1AAPBDPAD3AAPAD@Z 100401a0 f   stlport_vc6_static:codecvt.obj
 0001:0003f1c0       ?do_out@?$codecvt@DDH@_STL@@MBE?AW4result@codecvt_base@2@AAHPBD1AAPBDPAD3AAPAD@Z 100401c0 f   stlport_vc6_static:codecvt.obj
 0001:0003f1e0       ??1?$codecvt@GDH@_STL@@MAE@XZ 100401e0 f   stlport_vc6_static:codecvt.obj
 0001:0003f1f0       ?do_out@?$codecvt@GDH@_STL@@MBE?AW4result@codecvt_base@2@AAHPBG1AAPBGPAD3AAPAD@Z 100401f0 f   stlport_vc6_static:codecvt.obj
 0001:0003f260       ?do_in@?$codecvt@GDH@_STL@@MBE?AW4result@codecvt_base@2@AAHPBD1AAPBDPAG3AAPAG@Z 10040260 f   stlport_vc6_static:codecvt.obj
 0001:0003f2d0       ?do_unshift@?$codecvt@GDH@_STL@@MBE?AW4result@codecvt_base@2@AAHPAD1AAPAD@Z 100402d0 f   stlport_vc6_static:codecvt.obj
 0001:0003f2f0       ?do_encoding@?$codecvt@GDH@_STL@@MBEHXZ 100402f0 f   stlport_vc6_static:codecvt.obj
 0001:0003f300       ?do_always_noconv@?$codecvt@GDH@_STL@@MBE_NXZ 10040300 f   stlport_vc6_static:codecvt.obj
 0001:0003f310       ?do_length@?$codecvt@GDH@_STL@@MBEHABHPBD1I@Z 10040310 f   stlport_vc6_static:codecvt.obj
 0001:0003f340       ?do_max_length@?$codecvt@GDH@_STL@@MBEHXZ 10040340 f   stlport_vc6_static:codecvt.obj
 0001:0003f350       ??1?$collate@D@_STL@@MAE@XZ 10040350 f   stlport_vc6_static:collate.obj
 0001:0003f360       ?do_compare@?$collate@D@_STL@@MBEHPBD000@Z 10040360 f   stlport_vc6_static:collate.obj
 0001:0003f3c0       ?do_transform@?$collate@D@_STL@@MBE?AV?$basic_string@DV?$char_traits@D@_STL@@V?$allocator@D@2@@2@PBD0@Z 100403c0 f   stlport_vc6_static:collate.obj
 0001:0003f480       ?do_hash@?$collate@D@_STL@@MBEJPBD0@Z 10040480 f   stlport_vc6_static:collate.obj
 0001:0003f4a0       ??1?$collate@G@_STL@@MAE@XZ 100404a0 f   stlport_vc6_static:collate.obj
 0001:0003f4b0       ?do_compare@?$collate@G@_STL@@MBEHPBG000@Z 100404b0 f   stlport_vc6_static:collate.obj
 0001:0003f510       ?do_transform@?$collate@G@_STL@@MBE?AV?$basic_string@GV?$char_traits@G@_STL@@V?$allocator@G@2@@2@PBG0@Z 10040510 f   stlport_vc6_static:collate.obj
 0001:0003f5e0       ?do_hash@?$collate@G@_STL@@MBEJPBG0@Z 100405e0 f   stlport_vc6_static:collate.obj
 0001:0003f610       ?do_decimal_point@?$numpunct@D@_STL@@UBEDXZ 10040610 f   stlport_vc6_static:numpunct.obj
 0001:0003f620       ?do_thousands_sep@?$numpunct@D@_STL@@UBEDXZ 10040620 f   stlport_vc6_static:numpunct.obj
 0001:0003f630       ?do_grouping@?$numpunct@D@_STL@@UBE?AV?$basic_string@DV?$char_traits@D@_STL@@V?$allocator@D@2@@2@XZ 10040630 f   stlport_vc6_static:numpunct.obj
 0001:0003f700       ?do_truename@?$numpunct@D@_STL@@UBE?AV?$basic_string@DV?$char_traits@D@_STL@@V?$allocator@D@2@@2@XZ 10040700 f   stlport_vc6_static:numpunct.obj
 0001:0003f7d0       ?do_falsename@?$numpunct@D@_STL@@UBE?AV?$basic_string@DV?$char_traits@D@_STL@@V?$allocator@D@2@@2@XZ 100407d0 f   stlport_vc6_static:numpunct.obj
 0001:0003f8a0       ??1?$numpunct@D@_STL@@UAE@XZ 100408a0 f   stlport_vc6_static:numpunct.obj
 0001:0003fc10       ??1?$numpunct@G@_STL@@MAE@XZ 10040c10 f   stlport_vc6_static:numpunct.obj
 0001:0003fc20       ?do_decimal_point@?$numpunct@G@_STL@@MBEGXZ 10040c20 f   stlport_vc6_static:numpunct.obj
 0001:0003fc30       ?do_thousands_sep@?$numpunct@G@_STL@@MBEGXZ 10040c30 f   stlport_vc6_static:numpunct.obj
 0001:0003fc40       ?do_grouping@?$numpunct@G@_STL@@MBE?AV?$basic_string@DV?$char_traits@D@_STL@@V?$allocator@D@2@@2@XZ 10040c40 f   stlport_vc6_static:numpunct.obj
 0001:0003fd10       ?do_truename@?$numpunct@G@_STL@@MBE?AV?$basic_string@GV?$char_traits@G@_STL@@V?$allocator@G@2@@2@XZ 10040d10 f   stlport_vc6_static:numpunct.obj
 0001:0003fdf0       ?do_falsename@?$numpunct@G@_STL@@MBE?AV?$basic_string@GV?$char_traits@G@_STL@@V?$allocator@G@2@@2@XZ 10040df0 f   stlport_vc6_static:numpunct.obj
 0001:00040230       ??0?$ctype@D@_STL@@QAE@PBW4mask@ctype_base@1@_NI@Z 10041230 f   stlport_vc6_static:ctype.obj
 0001:00040280       ??_E?$ctype@D@_STL@@MAEPAXI@Z 10041280 f i stlport_vc6_static:ctype.obj
 0001:00040280       ??_G?$ctype@D@_STL@@MAEPAXI@Z 10041280 f i stlport_vc6_static:ctype.obj
 0001:000402a0       ??1?$ctype@D@_STL@@MAE@XZ  100412a0 f   stlport_vc6_static:ctype.obj
 0001:000402d0       ?scan_is@?$ctype@D@_STL@@QBEPBDW4mask@ctype_base@2@PBD1@Z 100412d0 f   stlport_vc6_static:ctype.obj
 0001:00040350       ?scan_not@?$ctype@D@_STL@@QBEPBDW4mask@ctype_base@2@PBD1@Z 10041350 f   stlport_vc6_static:ctype.obj
 0001:000403d0       ?do_toupper@?$ctype@D@_STL@@MBEDD@Z 100413d0 f   stlport_vc6_static:ctype.obj
 0001:000403f0       ?do_tolower@?$ctype@D@_STL@@MBEDD@Z 100413f0 f   stlport_vc6_static:ctype.obj
 0001:00040410       ?do_toupper@?$ctype@D@_STL@@MBEPBDPADPBD@Z 10041410 f   stlport_vc6_static:ctype.obj
 0001:00040440       ?do_tolower@?$ctype@D@_STL@@MBEPBDPADPBD@Z 10041440 f   stlport_vc6_static:ctype.obj
 0001:00040470       ?do_widen@?$ctype@D@_STL@@MBEDD@Z 10041470 f   stlport_vc6_static:ctype.obj
 0001:00040480       ?do_widen@?$ctype@D@_STL@@MBEPBDPBD0PAD@Z 10041480 f   stlport_vc6_static:ctype.obj
 0001:000404b0       ?do_narrow@?$ctype@D@_STL@@MBEDDD@Z 100414b0 f   stlport_vc6_static:ctype.obj
 0001:000404c0       ?do_narrow@?$ctype@D@_STL@@MBEPBDPBD0DPAD@Z 100414c0 f   stlport_vc6_static:ctype.obj
 0001:000404f0       ??1?$ctype@G@_STL@@MAE@XZ  100414f0 f   stlport_vc6_static:ctype.obj
 0001:00040500       ?do_is@?$ctype@G@_STL@@MBE_NW4mask@ctype_base@2@G@Z 10041500 f   stlport_vc6_static:ctype.obj
 0001:00040530       ?do_is@?$ctype@G@_STL@@MBEPBGPBG0PAW4mask@ctype_base@2@@Z 10041530 f   stlport_vc6_static:ctype.obj
 0001:00040570       ?do_scan_is@?$ctype@G@_STL@@MBEPBGW4mask@ctype_base@2@PBG1@Z 10041570 f   stlport_vc6_static:ctype.obj
 0001:00040680       ?do_scan_not@?$ctype@G@_STL@@MBEPBGW4mask@ctype_base@2@PBG1@Z 10041680 f   stlport_vc6_static:ctype.obj
 0001:000407a0       ?do_toupper@?$ctype@G@_STL@@MBEGG@Z 100417a0 f   stlport_vc6_static:ctype.obj
 0001:000407c0       ?do_toupper@?$ctype@G@_STL@@MBEPBGPAGPBG@Z 100417c0 f   stlport_vc6_static:ctype.obj
 0001:00040800       ?do_tolower@?$ctype@G@_STL@@MBEGG@Z 10041800 f   stlport_vc6_static:ctype.obj
 0001:00040820       ?do_tolower@?$ctype@G@_STL@@MBEPBGPAGPBG@Z 10041820 f   stlport_vc6_static:ctype.obj
 0001:00040860       ?do_widen@?$ctype@G@_STL@@MBEGD@Z 10041860 f   stlport_vc6_static:ctype.obj
 0001:00040870       ?do_widen@?$ctype@G@_STL@@MBEPBDPBD0PAG@Z 10041870 f   stlport_vc6_static:ctype.obj
 0001:000408a0       ?do_narrow@?$ctype@G@_STL@@MBEDGD@Z 100418a0 f   stlport_vc6_static:ctype.obj
 0001:000408c0       ?do_narrow@?$ctype@G@_STL@@MBEPBGPBG0DPAD@Z 100418c0 f   stlport_vc6_static:ctype.obj
 0001:00040b20       ??0?$moneypunct@D$00@_STL@@QAE@I@Z 10041b20 f   stlport_vc6_static:monetary.obj
 0001:00040bc0       ??_E?$moneypunct@D$00@_STL@@MAEPAXI@Z 10041bc0 f i stlport_vc6_static:monetary.obj
 0001:00040bc0       ??_G?$moneypunct@D$00@_STL@@MAEPAXI@Z 10041bc0 f i stlport_vc6_static:monetary.obj
 0001:00040be0       ??1?$moneypunct@D$00@_STL@@MAE@XZ 10041be0 f   stlport_vc6_static:monetary.obj
 0001:00040bf0       ?do_decimal_point@?$moneypunct@D$00@_STL@@MBEDXZ 10041bf0 f   stlport_vc6_static:monetary.obj
 0001:00040c00       ?do_thousands_sep@?$moneypunct@D$00@_STL@@MBEDXZ 10041c00 f   stlport_vc6_static:monetary.obj
 0001:00040c10       ?do_grouping@?$moneypunct@D$00@_STL@@MBE?AV?$basic_string@DV?$char_traits@D@_STL@@V?$allocator@D@2@@2@XZ 10041c10 f   stlport_vc6_static:monetary.obj
 0001:00040ce0       ?do_curr_symbol@?$moneypunct@D$00@_STL@@MBE?AV?$basic_string@DV?$char_traits@D@_STL@@V?$allocator@D@2@@2@XZ 10041ce0 f   stlport_vc6_static:monetary.obj
 0001:00040db0       ?do_positive_sign@?$moneypunct@D$00@_STL@@MBE?AV?$basic_string@DV?$char_traits@D@_STL@@V?$allocator@D@2@@2@XZ 10041db0 f   stlport_vc6_static:monetary.obj
 0001:00040e80       ?do_negative_sign@?$moneypunct@D$00@_STL@@MBE?AV?$basic_string@DV?$char_traits@D@_STL@@V?$allocator@D@2@@2@XZ 10041e80 f   stlport_vc6_static:monetary.obj
 0001:00040f50       ?do_pos_format@?$moneypunct@D$00@_STL@@MBE?AUpattern@money_base@2@XZ 10041f50 f   stlport_vc6_static:monetary.obj
 0001:00040f60       ?do_neg_format@?$moneypunct@D$00@_STL@@MBE?AUpattern@money_base@2@XZ 10041f60 f   stlport_vc6_static:monetary.obj
 0001:00040f70       ?do_frac_digits@?$moneypunct@D$00@_STL@@MBEHXZ 10041f70 f   stlport_vc6_static:monetary.obj
 0001:00040f80       ??0?$moneypunct@D$0A@@_STL@@QAE@I@Z 10041f80 f   stlport_vc6_static:monetary.obj
 0001:00040fc0       ??_G?$moneypunct@D$0A@@_STL@@MAEPAXI@Z 10041fc0 f i stlport_vc6_static:monetary.obj
 0001:00040fc0       ??_E?$moneypunct@D$0A@@_STL@@MAEPAXI@Z 10041fc0 f i stlport_vc6_static:monetary.obj
 0001:00040fe0       ??1?$moneypunct@D$0A@@_STL@@MAE@XZ 10041fe0 f   stlport_vc6_static:monetary.obj
 0001:00040ff0       ?do_decimal_point@?$moneypunct@D$0A@@_STL@@MBEDXZ 10041ff0 f   stlport_vc6_static:monetary.obj
 0001:00041000       ?do_thousands_sep@?$moneypunct@D$0A@@_STL@@MBEDXZ 10042000 f   stlport_vc6_static:monetary.obj
 0001:00041010       ?do_grouping@?$moneypunct@D$0A@@_STL@@MBE?AV?$basic_string@DV?$char_traits@D@_STL@@V?$allocator@D@2@@2@XZ 10042010 f   stlport_vc6_static:monetary.obj
 0001:000410e0       ?do_curr_symbol@?$moneypunct@D$0A@@_STL@@MBE?AV?$basic_string@DV?$char_traits@D@_STL@@V?$allocator@D@2@@2@XZ 100420e0 f   stlport_vc6_static:monetary.obj
 0001:000411b0       ?do_positive_sign@?$moneypunct@D$0A@@_STL@@MBE?AV?$basic_string@DV?$char_traits@D@_STL@@V?$allocator@D@2@@2@XZ 100421b0 f   stlport_vc6_static:monetary.obj
 0001:00041280       ?do_negative_sign@?$moneypunct@D$0A@@_STL@@MBE?AV?$basic_string@DV?$char_traits@D@_STL@@V?$allocator@D@2@@2@XZ 10042280 f   stlport_vc6_static:monetary.obj
 0001:00041350       ?do_pos_format@?$moneypunct@D$0A@@_STL@@MBE?AUpattern@money_base@2@XZ 10042350 f   stlport_vc6_static:monetary.obj
 0001:00041360       ?do_neg_format@?$moneypunct@D$0A@@_STL@@MBE?AUpattern@money_base@2@XZ 10042360 f   stlport_vc6_static:monetary.obj
 0001:00041370       ?do_frac_digits@?$moneypunct@D$0A@@_STL@@MBEHXZ 10042370 f   stlport_vc6_static:monetary.obj
 0001:00041380       ??0?$moneypunct@G$00@_STL@@QAE@I@Z 10042380 f   stlport_vc6_static:monetary.obj
 0001:000413c0       ??_G?$moneypunct@G$00@_STL@@MAEPAXI@Z 100423c0 f i stlport_vc6_static:monetary.obj
 0001:000413c0       ??_E?$moneypunct@G$00@_STL@@MAEPAXI@Z 100423c0 f i stlport_vc6_static:monetary.obj
 0001:000413e0       ??1?$moneypunct@G$00@_STL@@MAE@XZ 100423e0 f   stlport_vc6_static:monetary.obj
 0001:000413f0       ?do_decimal_point@?$moneypunct@G$00@_STL@@MBEGXZ 100423f0 f   stlport_vc6_static:monetary.obj
 0001:00041400       ?do_thousands_sep@?$moneypunct@G$00@_STL@@MBEGXZ 10042400 f   stlport_vc6_static:monetary.obj
 0001:00041410       ?do_grouping@?$moneypunct@G$00@_STL@@MBE?AV?$basic_string@DV?$char_traits@D@_STL@@V?$allocator@D@2@@2@XZ 10042410 f   stlport_vc6_static:monetary.obj
 0001:000414e0       ?do_curr_symbol@?$moneypunct@G$00@_STL@@MBE?AV?$basic_string@GV?$char_traits@G@_STL@@V?$allocator@G@2@@2@XZ 100424e0 f   stlport_vc6_static:monetary.obj
 0001:000415c0       ?do_positive_sign@?$moneypunct@G$00@_STL@@MBE?AV?$basic_string@GV?$char_traits@G@_STL@@V?$allocator@G@2@@2@XZ 100425c0 f   stlport_vc6_static:monetary.obj
 0001:000416a0       ?do_negative_sign@?$moneypunct@G$00@_STL@@MBE?AV?$basic_string@GV?$char_traits@G@_STL@@V?$allocator@G@2@@2@XZ 100426a0 f   stlport_vc6_static:monetary.obj
 0001:00041780       ?do_frac_digits@?$moneypunct@G$00@_STL@@MBEHXZ 10042780 f   stlport_vc6_static:monetary.obj
 0001:00041790       ?do_pos_format@?$moneypunct@G$00@_STL@@MBE?AUpattern@money_base@2@XZ 10042790 f   stlport_vc6_static:monetary.obj
 0001:000417a0       ?do_neg_format@?$moneypunct@G$00@_STL@@MBE?AUpattern@money_base@2@XZ 100427a0 f   stlport_vc6_static:monetary.obj
 0001:000417b0       ??0?$moneypunct@G$0A@@_STL@@QAE@I@Z 100427b0 f   stlport_vc6_static:monetary.obj
 0001:000417f0       ??_G?$moneypunct@G$0A@@_STL@@MAEPAXI@Z 100427f0 f i stlport_vc6_static:monetary.obj
 0001:000417f0       ??_E?$moneypunct@G$0A@@_STL@@MAEPAXI@Z 100427f0 f i stlport_vc6_static:monetary.obj
 0001:00041810       ??1?$moneypunct@G$0A@@_STL@@MAE@XZ 10042810 f   stlport_vc6_static:monetary.obj
 0001:00041820       ?do_decimal_point@?$moneypunct@G$0A@@_STL@@MBEGXZ 10042820 f   stlport_vc6_static:monetary.obj
 0001:00041830       ?do_thousands_sep@?$moneypunct@G$0A@@_STL@@MBEGXZ 10042830 f   stlport_vc6_static:monetary.obj
 0001:00041840       ?do_grouping@?$moneypunct@G$0A@@_STL@@MBE?AV?$basic_string@DV?$char_traits@D@_STL@@V?$allocator@D@2@@2@XZ 10042840 f   stlport_vc6_static:monetary.obj
 0001:00041910       ?do_curr_symbol@?$moneypunct@G$0A@@_STL@@MBE?AV?$basic_string@GV?$char_traits@G@_STL@@V?$allocator@G@2@@2@XZ 10042910 f   stlport_vc6_static:monetary.obj
 0001:000419f0       ?do_positive_sign@?$moneypunct@G$0A@@_STL@@MBE?AV?$basic_string@GV?$char_traits@G@_STL@@V?$allocator@G@2@@2@XZ 100429f0 f   stlport_vc6_static:monetary.obj
 0001:00041ad0       ?do_negative_sign@?$moneypunct@G$0A@@_STL@@MBE?AV?$basic_string@GV?$char_traits@G@_STL@@V?$allocator@G@2@@2@XZ 10042ad0 f   stlport_vc6_static:monetary.obj
 0001:00041bb0       ?do_frac_digits@?$moneypunct@G$0A@@_STL@@MBEHXZ 10042bb0 f   stlport_vc6_static:monetary.obj
 0001:00041bc0       ?do_pos_format@?$moneypunct@G$0A@@_STL@@MBE?AUpattern@money_base@2@XZ 10042bc0 f   stlport_vc6_static:monetary.obj
 0001:00041bd0       ?do_neg_format@?$moneypunct@G$0A@@_STL@@MBE?AUpattern@money_base@2@XZ 10042bd0 f   stlport_vc6_static:monetary.obj
 0001:00041be0       ??0?$money_get@DV?$istreambuf_iterator@DV?$char_traits@D@_STL@@@_STL@@@_STL@@QAE@I@Z 10042be0 f i stlport_vc6_static:monetary.obj
 0001:00041c00       ?get@?$money_get@DV?$istreambuf_iterator@DV?$char_traits@D@_STL@@@_STL@@@_STL@@QBE?AV?$istreambuf_iterator@DV?$char_traits@D@_STL@@@2@V32@0_NAAVios_base@2@AAHAAO@Z 10042c00 f i stlport_vc6_static:monetary.obj
 0001:00041c40       ?get@?$money_get@DV?$istreambuf_iterator@DV?$char_traits@D@_STL@@@_STL@@@_STL@@QBE?AV?$istreambuf_iterator@DV?$char_traits@D@_STL@@@2@V32@0_NAAVios_base@2@AAHAAV?$basic_string@DV?$char_traits@D@_STL@@V?$allocator@D@2@@2@@Z 10042c40 f i stlport_vc6_static:monetary.obj
 0001:00041c80       ??0?$money_put@DV?$ostreambuf_iterator@DV?$char_traits@D@_STL@@@_STL@@@_STL@@QAE@I@Z 10042c80 f i stlport_vc6_static:monetary.obj
 0001:00041ca0       ?put@?$money_put@DV?$ostreambuf_iterator@DV?$char_traits@D@_STL@@@_STL@@@_STL@@QBE?AV?$ostreambuf_iterator@DV?$char_traits@D@_STL@@@2@V32@_NAAVios_base@2@DO@Z 10042ca0 f i stlport_vc6_static:monetary.obj
 0001:00041ce0       ?put@?$money_put@DV?$ostreambuf_iterator@DV?$char_traits@D@_STL@@@_STL@@@_STL@@QBE?AV?$ostreambuf_iterator@DV?$char_traits@D@_STL@@@2@V32@_NAAVios_base@2@DABV?$basic_string@DV?$char_traits@D@_STL@@V?$allocator@D@2@@2@@Z 10042ce0 f i stlport_vc6_static:monetary.obj
 0001:00041d10       ??0?$money_get@GV?$istreambuf_iterator@GV?$char_traits@G@_STL@@@_STL@@@_STL@@QAE@I@Z 10042d10 f i stlport_vc6_static:monetary.obj
 0001:00041d30       ?get@?$money_get@GV?$istreambuf_iterator@GV?$char_traits@G@_STL@@@_STL@@@_STL@@QBE?AV?$istreambuf_iterator@GV?$char_traits@G@_STL@@@2@V32@0_NAAVios_base@2@AAHAAO@Z 10042d30 f i stlport_vc6_static:monetary.obj
 0001:00041d70       ?get@?$money_get@GV?$istreambuf_iterator@GV?$char_traits@G@_STL@@@_STL@@@_STL@@QBE?AV?$istreambuf_iterator@GV?$char_traits@G@_STL@@@2@V32@0_NAAVios_base@2@AAHAAV?$basic_string@GV?$char_traits@G@_STL@@V?$allocator@G@2@@2@@Z 10042d70 f i stlport_vc6_static:monetary.obj
 0001:00041db0       ??0?$money_put@GV?$ostreambuf_iterator@GV?$char_traits@G@_STL@@@_STL@@@_STL@@QAE@I@Z 10042db0 f i stlport_vc6_static:monetary.obj
 0001:00041dd0       ?put@?$money_put@GV?$ostreambuf_iterator@GV?$char_traits@G@_STL@@@_STL@@@_STL@@QBE?AV?$ostreambuf_iterator@GV?$char_traits@G@_STL@@@2@V32@_NAAVios_base@2@GO@Z 10042dd0 f i stlport_vc6_static:monetary.obj
 0001:00041e10       ?put@?$money_put@GV?$ostreambuf_iterator@GV?$char_traits@G@_STL@@@_STL@@@_STL@@QBE?AV?$ostreambuf_iterator@GV?$char_traits@G@_STL@@@2@V32@_NAAVios_base@2@GABV?$basic_string@GV?$char_traits@G@_STL@@V?$allocator@G@2@@2@@Z 10042e10 f i stlport_vc6_static:monetary.obj
 0001:00041e40       ?_Init_timeinfo@_STL@@YAXAAV_Time_Info@1@@Z 10042e40 f   stlport_vc6_static:time_facets.obj
 0001:00042000       ?_Init_timeinfo@_STL@@YAXAAV_Time_Info@1@PAU_Locale_time@@@Z 10043000 f   stlport_vc6_static:time_facets.obj
 0001:000422e0       ?__write_formatted_time@_STL@@YAPADPADDDABV_Time_Info@1@PBUtm@@@Z 100432e0 f   stlport_vc6_static:time_facets.obj
 0001:000428f0       ?__get_date_order@_STL@@YA?AW4dateorder@time_base@1@PAU_Locale_time@@@Z 100438f0 f   stlport_vc6_static:time_facets.obj
 0001:000429c0       ??0?$time_get@DV?$istreambuf_iterator@DV?$char_traits@D@_STL@@@_STL@@@_STL@@QAE@I@Z 100439c0 f i stlport_vc6_static:time_facets.obj
 0001:00042bb0       ?date_order@?$time_get@DV?$istreambuf_iterator@DV?$char_traits@D@_STL@@@_STL@@@_STL@@QBE?AW4dateorder@time_base@2@XZ 10043bb0 f i stlport_vc6_static:time_facets.obj
 0001:00042bc0       ?get_time@?$time_get@DV?$istreambuf_iterator@DV?$char_traits@D@_STL@@@_STL@@@_STL@@QBE?AV?$istreambuf_iterator@DV?$char_traits@D@_STL@@@2@V32@0AAVios_base@2@AAHPAUtm@@@Z 10043bc0 f i stlport_vc6_static:time_facets.obj
 0001:00042c00       ?get_date@?$time_get@DV?$istreambuf_iterator@DV?$char_traits@D@_STL@@@_STL@@@_STL@@QBE?AV?$istreambuf_iterator@DV?$char_traits@D@_STL@@@2@V32@0AAVios_base@2@AAHPAUtm@@@Z 10043c00 f i stlport_vc6_static:time_facets.obj
 0001:00042c40       ?get_weekday@?$time_get@DV?$istreambuf_iterator@DV?$char_traits@D@_STL@@@_STL@@@_STL@@QBE?AV?$istreambuf_iterator@DV?$char_traits@D@_STL@@@2@V32@0AAVios_base@2@AAHPAUtm@@@Z 10043c40 f i stlport_vc6_static:time_facets.obj
 0001:00042c80       ?get_monthname@?$time_get@DV?$istreambuf_iterator@DV?$char_traits@D@_STL@@@_STL@@@_STL@@QBE?AV?$istreambuf_iterator@DV?$char_traits@D@_STL@@@2@V32@0AAVios_base@2@AAHPAUtm@@@Z 10043c80 f i stlport_vc6_static:time_facets.obj
 0001:00042cc0       ?get_year@?$time_get@DV?$istreambuf_iterator@DV?$char_traits@D@_STL@@@_STL@@@_STL@@QBE?AV?$istreambuf_iterator@DV?$char_traits@D@_STL@@@2@V32@0AAVios_base@2@AAHPAUtm@@@Z 10043cc0 f i stlport_vc6_static:time_facets.obj
 0001:00042d00       ??0?$time_get@DV?$istreambuf_iterator@DV?$char_traits@D@_STL@@@_STL@@@_STL@@IAE@PAU_Locale_time@@I@Z 10043d00 f i stlport_vc6_static:time_facets.obj
 0001:00042ed0       ??0?$time_put@DV?$ostreambuf_iterator@DV?$char_traits@D@_STL@@@_STL@@@_STL@@QAE@I@Z 10043ed0 f i stlport_vc6_static:time_facets.obj
 0001:000430c0       ?put@?$time_put@DV?$ostreambuf_iterator@DV?$char_traits@D@_STL@@@_STL@@@_STL@@QBE?AV?$ostreambuf_iterator@DV?$char_traits@D@_STL@@@2@V32@AAVios_base@2@DPBUtm@@DD@Z 100440c0 f i stlport_vc6_static:time_facets.obj
 0001:00043100       ??0?$time_put@DV?$ostreambuf_iterator@DV?$char_traits@D@_STL@@@_STL@@@_STL@@IAE@PAU_Locale_time@@I@Z 10044100 f i stlport_vc6_static:time_facets.obj
 0001:000432d0       ??0?$time_get@GV?$istreambuf_iterator@GV?$char_traits@G@_STL@@@_STL@@@_STL@@QAE@I@Z 100442d0 f i stlport_vc6_static:time_facets.obj
 0001:000434c0       ?date_order@?$time_get@GV?$istreambuf_iterator@GV?$char_traits@G@_STL@@@_STL@@@_STL@@QBE?AW4dateorder@time_base@2@XZ 100444c0 f i stlport_vc6_static:time_facets.obj
 0001:000434d0       ?get_time@?$time_get@GV?$istreambuf_iterator@GV?$char_traits@G@_STL@@@_STL@@@_STL@@QBE?AV?$istreambuf_iterator@GV?$char_traits@G@_STL@@@2@V32@0AAVios_base@2@AAHPAUtm@@@Z 100444d0 f i stlport_vc6_static:time_facets.obj
 0001:00043510       ?get_date@?$time_get@GV?$istreambuf_iterator@GV?$char_traits@G@_STL@@@_STL@@@_STL@@QBE?AV?$istreambuf_iterator@GV?$char_traits@G@_STL@@@2@V32@0AAVios_base@2@AAHPAUtm@@@Z 10044510 f i stlport_vc6_static:time_facets.obj
 0001:00043550       ?get_weekday@?$time_get@GV?$istreambuf_iterator@GV?$char_traits@G@_STL@@@_STL@@@_STL@@QBE?AV?$istreambuf_iterator@GV?$char_traits@G@_STL@@@2@V32@0AAVios_base@2@AAHPAUtm@@@Z 10044550 f i stlport_vc6_static:time_facets.obj
 0001:00043590       ?get_monthname@?$time_get@GV?$istreambuf_iterator@GV?$char_traits@G@_STL@@@_STL@@@_STL@@QBE?AV?$istreambuf_iterator@GV?$char_traits@G@_STL@@@2@V32@0AAVios_base@2@AAHPAUtm@@@Z 10044590 f i stlport_vc6_static:time_facets.obj
 0001:000435d0       ?get_year@?$time_get@GV?$istreambuf_iterator@GV?$char_traits@G@_STL@@@_STL@@@_STL@@QBE?AV?$istreambuf_iterator@GV?$char_traits@G@_STL@@@2@V32@0AAVios_base@2@AAHPAUtm@@@Z 100445d0 f i stlport_vc6_static:time_facets.obj
 0001:00043610       ??0?$time_get@GV?$istreambuf_iterator@GV?$char_traits@G@_STL@@@_STL@@@_STL@@IAE@PAU_Locale_time@@I@Z 10044610 f i stlport_vc6_static:time_facets.obj
 0001:000437e0       ??0?$time_put@GV?$ostreambuf_iterator@GV?$char_traits@G@_STL@@@_STL@@@_STL@@QAE@I@Z 100447e0 f i stlport_vc6_static:time_facets.obj
 0001:000439d0       ?put@?$time_put@GV?$ostreambuf_iterator@GV?$char_traits@G@_STL@@@_STL@@@_STL@@QBE?AV?$ostreambuf_iterator@GV?$char_traits@G@_STL@@@2@V32@AAVios_base@2@GPBUtm@@DD@Z 100449d0 f i stlport_vc6_static:time_facets.obj
 0001:00043a10       ??0?$time_put@GV?$ostreambuf_iterator@GV?$char_traits@G@_STL@@@_STL@@@_STL@@IAE@PAU_Locale_time@@I@Z 10044a10 f i stlport_vc6_static:time_facets.obj
 0001:00043be0       ?copy@_STL@@YA?AV?$back_insert_iterator@V?$basic_string@DV?$char_traits@D@_STL@@V?$allocator@D@2@@_STL@@@1@PBD0V21@@Z 10044be0 f i stlport_vc6_static:time_facets.obj
 0001:00043c60       ?put@?$time_put@DV?$ostreambuf_iterator@DV?$char_traits@D@_STL@@@_STL@@@_STL@@QBE?AV?$ostreambuf_iterator@DV?$char_traits@D@_STL@@@2@V32@AAVios_base@2@DPBUtm@@PBD3@Z 10044c60 f i stlport_vc6_static:time_facets.obj
 0001:00043da0       ?put@?$time_put@GV?$ostreambuf_iterator@GV?$char_traits@G@_STL@@@_STL@@@_STL@@QBE?AV?$ostreambuf_iterator@GV?$char_traits@G@_STL@@@2@V32@AAVios_base@2@GPBUtm@@PBG3@Z 10044da0 f i stlport_vc6_static:time_facets.obj
 0001:00043eb0       ?__copy_aux@_STL@@YA?AV?$back_insert_iterator@V?$basic_string@DV?$char_traits@D@_STL@@V?$allocator@D@2@@_STL@@@1@PBD0V21@ABU__false_type@1@@Z 10044eb0 f i stlport_vc6_static:time_facets.obj
 0001:00043f30       ?__copy@_STL@@YA?AV?$back_insert_iterator@V?$basic_string@DV?$char_traits@D@_STL@@V?$allocator@D@2@@_STL@@@1@PBD0V21@ABUrandom_access_iterator_tag@1@PAH@Z 10044f30 f i stlport_vc6_static:time_facets.obj
 0001:00043fb0       ?__copy@_STL@@YAPADPBD0PADABUrandom_access_iterator_tag@1@PAH@Z 10044fb0 f i stlport_vc6_static:time_facets.obj
 0001:00043fe0       ?_Initialize_get_digit@_STL@@YAXPAG0ABV?$ctype@G@1@@Z 10044fe0 f   stlport_vc6_static:num_get.obj
 0001:00044020       ?__get_digit@_STL@@YAHGPBG0G@Z 10045020 f   stlport_vc6_static:num_get.obj
 0001:00044120       ?__valid_grouping@_STL@@YA_NPBD000@Z 10045120 f   stlport_vc6_static:num_get.obj
 0001:00044170       ?__get_fdigit@_STL@@YA_NAAGPBG@Z 10045170 f   stlport_vc6_static:num_get.obj
 0001:00044200       ?__get_fdigit_or_sep@_STL@@YA_NAAGGPBG@Z 10045200 f   stlport_vc6_static:num_get.obj
 0001:00044230       ??0?$istreambuf_iterator@GV?$char_traits@G@_STL@@@_STL@@QAE@PAV?$basic_streambuf@GV?$char_traits@G@_STL@@@1@@Z 10045230 f i stlport_vc6_static:num_get.obj
 0001:00044250       ??D?$istreambuf_iterator@GV?$char_traits@G@_STL@@@_STL@@QBEGXZ 10045250 f i stlport_vc6_static:num_get.obj
 0001:00044290       ??E?$istreambuf_iterator@GV?$char_traits@G@_STL@@@_STL@@QAEAAV01@XZ 10045290 f i stlport_vc6_static:num_get.obj
 0001:000442c0       ?_M_init@?$istreambuf_iterator@GV?$char_traits@G@_STL@@@_STL@@AAEXPAV?$basic_streambuf@GV?$char_traits@G@_STL@@@2@@Z 100452c0 f i stlport_vc6_static:num_get.obj
 0001:000442e0       ?_M_bumpc@?$istreambuf_iterator@GV?$char_traits@G@_STL@@@_STL@@AAEXXZ 100452e0 f i stlport_vc6_static:num_get.obj
 0001:00044310       ??0?$num_get@GV?$istreambuf_iterator@GV?$char_traits@G@_STL@@@_STL@@@_STL@@QAE@I@Z 10045310 f i stlport_vc6_static:num_get.obj
 0001:00044330       ?get@?$num_get@GV?$istreambuf_iterator@GV?$char_traits@G@_STL@@@_STL@@@_STL@@QBE?AV?$istreambuf_iterator@GV?$char_traits@G@_STL@@@2@V32@0AAVios_base@2@AAHAA_N@Z 10045330 f i stlport_vc6_static:num_get.obj
 0001:00044370       ?get@?$num_get@GV?$istreambuf_iterator@GV?$char_traits@G@_STL@@@_STL@@@_STL@@QBE?AV?$istreambuf_iterator@GV?$char_traits@G@_STL@@@2@V32@0AAVios_base@2@AAHAAJ@Z 10045370 f i stlport_vc6_static:num_get.obj
 0001:000443b0       ?get@?$num_get@GV?$istreambuf_iterator@GV?$char_traits@G@_STL@@@_STL@@@_STL@@QBE?AV?$istreambuf_iterator@GV?$char_traits@G@_STL@@@2@V32@0AAVios_base@2@AAHAAG@Z 100453b0 f i stlport_vc6_static:num_get.obj
 0001:000443f0       ?get@?$num_get@GV?$istreambuf_iterator@GV?$char_traits@G@_STL@@@_STL@@@_STL@@QBE?AV?$istreambuf_iterator@GV?$char_traits@G@_STL@@@2@V32@0AAVios_base@2@AAHAAI@Z 100453f0 f i stlport_vc6_static:num_get.obj
 0001:00044430       ?get@?$num_get@GV?$istreambuf_iterator@GV?$char_traits@G@_STL@@@_STL@@@_STL@@QBE?AV?$istreambuf_iterator@GV?$char_traits@G@_STL@@@2@V32@0AAVios_base@2@AAHAAK@Z 10045430 f i stlport_vc6_static:num_get.obj
 0001:00044470       ?get@?$num_get@GV?$istreambuf_iterator@GV?$char_traits@G@_STL@@@_STL@@@_STL@@QBE?AV?$istreambuf_iterator@GV?$char_traits@G@_STL@@@2@V32@0AAVios_base@2@AAHAA_J@Z 10045470 f i stlport_vc6_static:num_get.obj
 0001:000444b0       ?get@?$num_get@GV?$istreambuf_iterator@GV?$char_traits@G@_STL@@@_STL@@@_STL@@QBE?AV?$istreambuf_iterator@GV?$char_traits@G@_STL@@@2@V32@0AAVios_base@2@AAHAA_K@Z 100454b0 f i stlport_vc6_static:num_get.obj
 0001:000444f0       ?get@?$num_get@GV?$istreambuf_iterator@GV?$char_traits@G@_STL@@@_STL@@@_STL@@QBE?AV?$istreambuf_iterator@GV?$char_traits@G@_STL@@@2@V32@0AAVios_base@2@AAHAAM@Z 100454f0 f i stlport_vc6_static:num_get.obj
 0001:00044530       ?get@?$num_get@GV?$istreambuf_iterator@GV?$char_traits@G@_STL@@@_STL@@@_STL@@QBE?AV?$istreambuf_iterator@GV?$char_traits@G@_STL@@@2@V32@0AAVios_base@2@AAHAAN@Z 10045530 f i stlport_vc6_static:num_get.obj
 0001:00044570       ?get@?$num_get@GV?$istreambuf_iterator@GV?$char_traits@G@_STL@@@_STL@@@_STL@@QBE?AV?$istreambuf_iterator@GV?$char_traits@G@_STL@@@2@V32@0AAVios_base@2@AAHAAO@Z 10045570 f i stlport_vc6_static:num_get.obj
 0001:000445b0       ?get@?$num_get@GV?$istreambuf_iterator@GV?$char_traits@G@_STL@@@_STL@@@_STL@@QBE?AV?$istreambuf_iterator@GV?$char_traits@G@_STL@@@2@V32@0AAVios_base@2@AAHAAPAX@Z 100455b0 f i stlport_vc6_static:num_get.obj
 0001:000445f0       ??0?$istreambuf_iterator@DV?$char_traits@D@_STL@@@_STL@@QAE@PAV?$basic_streambuf@DV?$char_traits@D@_STL@@@1@@Z 100455f0 f i stlport_vc6_static:num_get.obj
 0001:00044610       ??D?$istreambuf_iterator@DV?$char_traits@D@_STL@@@_STL@@QBEDXZ 10045610 f i stlport_vc6_static:num_get.obj
 0001:00044650       ??E?$istreambuf_iterator@DV?$char_traits@D@_STL@@@_STL@@QAEAAV01@XZ 10045650 f i stlport_vc6_static:num_get.obj
 0001:00044680       ?_M_init@?$istreambuf_iterator@DV?$char_traits@D@_STL@@@_STL@@AAEXPAV?$basic_streambuf@DV?$char_traits@D@_STL@@@2@@Z 10045680 f i stlport_vc6_static:num_get.obj
 0001:000446a0       ?_M_bumpc@?$istreambuf_iterator@DV?$char_traits@D@_STL@@@_STL@@AAEXXZ 100456a0 f i stlport_vc6_static:num_get.obj
 0001:000446d0       ??0?$num_get@DV?$istreambuf_iterator@DV?$char_traits@D@_STL@@@_STL@@@_STL@@QAE@I@Z 100456d0 f i stlport_vc6_static:num_get.obj
 0001:000446f0       ?get@?$num_get@DV?$istreambuf_iterator@DV?$char_traits@D@_STL@@@_STL@@@_STL@@QBE?AV?$istreambuf_iterator@DV?$char_traits@D@_STL@@@2@V32@0AAVios_base@2@AAHAA_N@Z 100456f0 f i stlport_vc6_static:num_get.obj
 0001:00044730       ?get@?$num_get@DV?$istreambuf_iterator@DV?$char_traits@D@_STL@@@_STL@@@_STL@@QBE?AV?$istreambuf_iterator@DV?$char_traits@D@_STL@@@2@V32@0AAVios_base@2@AAHAAJ@Z 10045730 f i stlport_vc6_static:num_get.obj
 0001:00044770       ?get@?$num_get@DV?$istreambuf_iterator@DV?$char_traits@D@_STL@@@_STL@@@_STL@@QBE?AV?$istreambuf_iterator@DV?$char_traits@D@_STL@@@2@V32@0AAVios_base@2@AAHAAG@Z 10045770 f i stlport_vc6_static:num_get.obj
 0001:000447b0       ?get@?$num_get@DV?$istreambuf_iterator@DV?$char_traits@D@_STL@@@_STL@@@_STL@@QBE?AV?$istreambuf_iterator@DV?$char_traits@D@_STL@@@2@V32@0AAVios_base@2@AAHAAI@Z 100457b0 f i stlport_vc6_static:num_get.obj
 0001:000447f0       ?get@?$num_get@DV?$istreambuf_iterator@DV?$char_traits@D@_STL@@@_STL@@@_STL@@QBE?AV?$istreambuf_iterator@DV?$char_traits@D@_STL@@@2@V32@0AAVios_base@2@AAHAAK@Z 100457f0 f i stlport_vc6_static:num_get.obj
 0001:00044830       ?get@?$num_get@DV?$istreambuf_iterator@DV?$char_traits@D@_STL@@@_STL@@@_STL@@QBE?AV?$istreambuf_iterator@DV?$char_traits@D@_STL@@@2@V32@0AAVios_base@2@AAHAA_J@Z 10045830 f i stlport_vc6_static:num_get.obj
 0001:00044870       ?get@?$num_get@DV?$istreambuf_iterator@DV?$char_traits@D@_STL@@@_STL@@@_STL@@QBE?AV?$istreambuf_iterator@DV?$char_traits@D@_STL@@@2@V32@0AAVios_base@2@AAHAA_K@Z 10045870 f i stlport_vc6_static:num_get.obj
 0001:000448b0       ?get@?$num_get@DV?$istreambuf_iterator@DV?$char_traits@D@_STL@@@_STL@@@_STL@@QBE?AV?$istreambuf_iterator@DV?$char_traits@D@_STL@@@2@V32@0AAVios_base@2@AAHAAM@Z 100458b0 f i stlport_vc6_static:num_get.obj
 0001:000448f0       ?get@?$num_get@DV?$istreambuf_iterator@DV?$char_traits@D@_STL@@@_STL@@@_STL@@QBE?AV?$istreambuf_iterator@DV?$char_traits@D@_STL@@@2@V32@0AAVios_base@2@AAHAAN@Z 100458f0 f i stlport_vc6_static:num_get.obj
 0001:00044930       ?get@?$num_get@DV?$istreambuf_iterator@DV?$char_traits@D@_STL@@@_STL@@@_STL@@QBE?AV?$istreambuf_iterator@DV?$char_traits@D@_STL@@@2@V32@0AAVios_base@2@AAHAAO@Z 10045930 f i stlport_vc6_static:num_get.obj
 0001:00044970       ?get@?$num_get@DV?$istreambuf_iterator@DV?$char_traits@D@_STL@@@_STL@@@_STL@@QBE?AV?$istreambuf_iterator@DV?$char_traits@D@_STL@@@2@V32@0AAVios_base@2@AAHAAPAX@Z 10045970 f i stlport_vc6_static:num_get.obj
 0001:000449b0       ??0?$istreambuf_iterator@GV?$char_traits@G@_STL@@@_STL@@QAE@AAV?$basic_istream@GV?$char_traits@G@_STL@@@1@@Z 100459b0 f i stlport_vc6_static:num_get.obj
 0001:000449d0       ??0?$istreambuf_iterator@DV?$char_traits@D@_STL@@@_STL@@QAE@AAV?$basic_istream@DV?$char_traits@D@_STL@@@1@@Z 100459d0 f i stlport_vc6_static:num_get.obj
 0001:000449f0       ?__write_integer@_STL@@YAPADPADHJ@Z 100459f0 f   stlport_vc6_static:num_put.obj
 0001:00044b60       ?__insert_grouping@_STL@@YAHPAD0ABV?$basic_string@DV?$char_traits@D@_STL@@V?$allocator@D@2@@1@DDDH@Z 10045b60 f   stlport_vc6_static:num_put.obj
 0001:00044c10       ?__insert_grouping@_STL@@YAHPAG0ABV?$basic_string@DV?$char_traits@D@_STL@@V?$allocator@D@2@@1@GGGH@Z 10045c10 f   stlport_vc6_static:num_put.obj
 0001:00044cd0       ??0?$ostreambuf_iterator@DV?$char_traits@D@_STL@@@_STL@@QAE@PAV?$basic_streambuf@DV?$char_traits@D@_STL@@@1@@Z 10045cd0 f i stlport_vc6_static:num_put.obj
 0001:00044cf0       ??D?$ostreambuf_iterator@DV?$char_traits@D@_STL@@@_STL@@QAEAAV01@XZ 10045cf0 f i stlport_vc6_static:num_put.obj
 0001:00044d00       ??E?$ostreambuf_iterator@DV?$char_traits@D@_STL@@@_STL@@QAEAAV01@XZ 10045d00 f i stlport_vc6_static:num_put.obj
 0001:00044d10       ??E?$ostreambuf_iterator@DV?$char_traits@D@_STL@@@_STL@@QAEAAV01@H@Z 10045d10 f i stlport_vc6_static:num_put.obj
 0001:00044d20       ?failed@?$ostreambuf_iterator@DV?$char_traits@D@_STL@@@_STL@@QBE_NXZ 10045d20 f i stlport_vc6_static:num_put.obj
 0001:00044d30       ??0?$num_put@DV?$ostreambuf_iterator@DV?$char_traits@D@_STL@@@_STL@@@_STL@@QAE@I@Z 10045d30 f i stlport_vc6_static:num_put.obj
 0001:00044d50       ?put@?$num_put@DV?$ostreambuf_iterator@DV?$char_traits@D@_STL@@@_STL@@@_STL@@QBE?AV?$ostreambuf_iterator@DV?$char_traits@D@_STL@@@2@V32@AAVios_base@2@D_N@Z 10045d50 f i stlport_vc6_static:num_put.obj
 0001:00044d80       ?put@?$num_put@DV?$ostreambuf_iterator@DV?$char_traits@D@_STL@@@_STL@@@_STL@@QBE?AV?$ostreambuf_iterator@DV?$char_traits@D@_STL@@@2@V32@AAVios_base@2@DJ@Z 10045d80 f i stlport_vc6_static:num_put.obj
 0001:00044db0       ?put@?$num_put@DV?$ostreambuf_iterator@DV?$char_traits@D@_STL@@@_STL@@@_STL@@QBE?AV?$ostreambuf_iterator@DV?$char_traits@D@_STL@@@2@V32@AAVios_base@2@DK@Z 10045db0 f i stlport_vc6_static:num_put.obj
 0001:00044de0       ?put@?$num_put@DV?$ostreambuf_iterator@DV?$char_traits@D@_STL@@@_STL@@@_STL@@QBE?AV?$ostreambuf_iterator@DV?$char_traits@D@_STL@@@2@V32@AAVios_base@2@D_J@Z 10045de0 f i stlport_vc6_static:num_put.obj
 0001:00044e10       ?put@?$num_put@DV?$ostreambuf_iterator@DV?$char_traits@D@_STL@@@_STL@@@_STL@@QBE?AV?$ostreambuf_iterator@DV?$char_traits@D@_STL@@@2@V32@AAVios_base@2@D_K@Z 10045e10 f i stlport_vc6_static:num_put.obj
 0001:00044e40       ?put@?$num_put@DV?$ostreambuf_iterator@DV?$char_traits@D@_STL@@@_STL@@@_STL@@QBE?AV?$ostreambuf_iterator@DV?$char_traits@D@_STL@@@2@V32@AAVios_base@2@DN@Z 10045e40 f i stlport_vc6_static:num_put.obj
 0001:00044e70       ?put@?$num_put@DV?$ostreambuf_iterator@DV?$char_traits@D@_STL@@@_STL@@@_STL@@QBE?AV?$ostreambuf_iterator@DV?$char_traits@D@_STL@@@2@V32@AAVios_base@2@DO@Z 10045e70 f i stlport_vc6_static:num_put.obj
 0001:00044ea0       ?put@?$num_put@DV?$ostreambuf_iterator@DV?$char_traits@D@_STL@@@_STL@@@_STL@@QBE?AV?$ostreambuf_iterator@DV?$char_traits@D@_STL@@@2@V32@AAVios_base@2@DPBX@Z 10045ea0 f i stlport_vc6_static:num_put.obj
 0001:00044ed0       ??0?$ostreambuf_iterator@GV?$char_traits@G@_STL@@@_STL@@QAE@PAV?$basic_streambuf@GV?$char_traits@G@_STL@@@1@@Z 10045ed0 f i stlport_vc6_static:num_put.obj
 0001:00044ef0       ??D?$ostreambuf_iterator@GV?$char_traits@G@_STL@@@_STL@@QAEAAV01@XZ 10045ef0 f i stlport_vc6_static:num_put.obj
 0001:00044f00       ??E?$ostreambuf_iterator@GV?$char_traits@G@_STL@@@_STL@@QAEAAV01@XZ 10045f00 f i stlport_vc6_static:num_put.obj
 0001:00044f10       ??E?$ostreambuf_iterator@GV?$char_traits@G@_STL@@@_STL@@QAEAAV01@H@Z 10045f10 f i stlport_vc6_static:num_put.obj
 0001:00044f20       ?failed@?$ostreambuf_iterator@GV?$char_traits@G@_STL@@@_STL@@QBE_NXZ 10045f20 f i stlport_vc6_static:num_put.obj
 0001:00044f30       ??0?$num_put@GV?$ostreambuf_iterator@GV?$char_traits@G@_STL@@@_STL@@@_STL@@QAE@I@Z 10045f30 f i stlport_vc6_static:num_put.obj
 0001:00044f50       ?put@?$num_put@GV?$ostreambuf_iterator@GV?$char_traits@G@_STL@@@_STL@@@_STL@@QBE?AV?$ostreambuf_iterator@GV?$char_traits@G@_STL@@@2@V32@AAVios_base@2@G_N@Z 10045f50 f i stlport_vc6_static:num_put.obj
 0001:00044f80       ?put@?$num_put@GV?$ostreambuf_iterator@GV?$char_traits@G@_STL@@@_STL@@@_STL@@QBE?AV?$ostreambuf_iterator@GV?$char_traits@G@_STL@@@2@V32@AAVios_base@2@GJ@Z 10045f80 f i stlport_vc6_static:num_put.obj
 0001:00044fb0       ?put@?$num_put@GV?$ostreambuf_iterator@GV?$char_traits@G@_STL@@@_STL@@@_STL@@QBE?AV?$ostreambuf_iterator@GV?$char_traits@G@_STL@@@2@V32@AAVios_base@2@GK@Z 10045fb0 f i stlport_vc6_static:num_put.obj
 0001:00044fe0       ?put@?$num_put@GV?$ostreambuf_iterator@GV?$char_traits@G@_STL@@@_STL@@@_STL@@QBE?AV?$ostreambuf_iterator@GV?$char_traits@G@_STL@@@2@V32@AAVios_base@2@G_J@Z 10045fe0 f i stlport_vc6_static:num_put.obj
 0001:00045010       ?put@?$num_put@GV?$ostreambuf_iterator@GV?$char_traits@G@_STL@@@_STL@@@_STL@@QBE?AV?$ostreambuf_iterator@GV?$char_traits@G@_STL@@@2@V32@AAVios_base@2@G_K@Z 10046010 f i stlport_vc6_static:num_put.obj
 0001:00045040       ?put@?$num_put@GV?$ostreambuf_iterator@GV?$char_traits@G@_STL@@@_STL@@@_STL@@QBE?AV?$ostreambuf_iterator@GV?$char_traits@G@_STL@@@2@V32@AAVios_base@2@GN@Z 10046040 f i stlport_vc6_static:num_put.obj
 0001:00045070       ?put@?$num_put@GV?$ostreambuf_iterator@GV?$char_traits@G@_STL@@@_STL@@@_STL@@QBE?AV?$ostreambuf_iterator@GV?$char_traits@G@_STL@@@2@V32@AAVios_base@2@GO@Z 10046070 f i stlport_vc6_static:num_put.obj
 0001:000450a0       ?put@?$num_put@GV?$ostreambuf_iterator@GV?$char_traits@G@_STL@@@_STL@@@_STL@@QBE?AV?$ostreambuf_iterator@GV?$char_traits@G@_STL@@@2@V32@AAVios_base@2@GPBX@Z 100460a0 f i stlport_vc6_static:num_put.obj
 0001:000450d0       ??0?$ostreambuf_iterator@DV?$char_traits@D@_STL@@@_STL@@QAE@AAV?$basic_ostream@DV?$char_traits@D@_STL@@@1@@Z 100460d0 f i stlport_vc6_static:num_put.obj
 0001:000450f0       ??0?$ostreambuf_iterator@GV?$char_traits@G@_STL@@@_STL@@QAE@AAV?$basic_ostream@GV?$char_traits@G@_STL@@@1@@Z 100460f0 f i stlport_vc6_static:num_put.obj
 0001:00045110       ?_Initialize_get_float@_STL@@YAXABV?$ctype@G@1@AAG111PAG@Z 10046110 f   stlport_vc6_static:num_get_float.obj
 0001:000451a0       ?_Stl_mult64@_STL@@YAX_K0AA_K1@Z 100461a0 f   stlport_vc6_static:num_get_float.obj
 0001:00045250       ?_Stl_norm_and_round@_STL@@YAXAA_KAAH_K2@Z 10046250 f   stlport_vc6_static:num_get_float.obj
 0001:00045350       ?_Stl_tenscale@_STL@@YAXAA_KHAAH@Z 10046350 f   stlport_vc6_static:num_get_float.obj
 0001:000454f0       ?_Stl_atod@_STL@@YANPADHH@Z 100464f0 f   stlport_vc6_static:num_get_float.obj
 0001:000457c0       ?_Stl_string_to_double@_STL@@YANPBD@Z 100467c0 f   stlport_vc6_static:num_get_float.obj
 0001:00045930       ?_Stl_string_to_long_double@_STL@@YAOPBD@Z 10046930 f   stlport_vc6_static:num_get_float.obj
 0001:00045ab0       ?__string_to_float@_STL@@YAXABV?$basic_string@DV?$char_traits@D@_STL@@V?$allocator@D@2@@1@AAM@Z 10046ab0 f   stlport_vc6_static:num_get_float.obj
 0001:00045ad0       ?__string_to_float@_STL@@YAXABV?$basic_string@DV?$char_traits@D@_STL@@V?$allocator@D@2@@1@AAN@Z 10046ad0 f   stlport_vc6_static:num_get_float.obj
 0001:00045af0       ?__string_to_float@_STL@@YAXABV?$basic_string@DV?$char_traits@D@_STL@@V?$allocator@D@2@@1@AAO@Z 10046af0 f   stlport_vc6_static:num_get_float.obj
 0001:00045b10       ?__format_float_scientific@_STL@@YAXPADPBDHH_NHH2@Z 10046b10 f   stlport_vc6_static:num_put_float.obj
 0001:00045c20       ?__format_float_fixed@_STL@@YAXPADPBDHH_NHH2@Z 10046c20 f   stlport_vc6_static:num_put_float.obj
 0001:00045d20       ?__format_nan_or_inf@_STL@@YAXPADNH@Z 10046d20 f   stlport_vc6_static:num_put_float.obj
 0001:00045de0       ?__write_float@_STL@@YAPADPADHHN@Z 10046de0 f   stlport_vc6_static:num_put_float.obj
 0001:00046010       ?__write_float@_STL@@YAPADPADHHO@Z 10047010 f   stlport_vc6_static:num_put_float.obj
 0001:00046240       ?__convert_float_buffer@_STL@@YAPAGPBD0PAGABV?$ctype@G@1@G@Z 10047240 f   stlport_vc6_static:num_put_float.obj
 0001:000462a0       ?__adjust_float_buffer@_STL@@YAXPAD0D@Z 100472a0 f   stlport_vc6_static:num_put_float.obj
 0001:000462c0       ??0stdio_streambuf_base@_SgI@@QAE@PAU_iobuf@@@Z 100472c0 f   stlport_vc6_static:stdio_streambuf.obj
 0001:000462e0       ??_Estdio_streambuf_base@_SgI@@UAEPAXI@Z 100472e0 f i stlport_vc6_static:stdio_streambuf.obj
 0001:000462e0       ??_Gstdio_streambuf_base@_SgI@@UAEPAXI@Z 100472e0 f i stlport_vc6_static:stdio_streambuf.obj
 0001:00046300       ??1stdio_streambuf_base@_SgI@@UAE@XZ 10047300 f   stlport_vc6_static:stdio_streambuf.obj
 0001:00046320       ?setbuf@stdio_streambuf_base@_SgI@@MAEPAV?$basic_streambuf@DV?$char_traits@D@_STL@@@_STL@@PADH@Z 10047320 f   stlport_vc6_static:stdio_streambuf.obj
 0001:00046360       ?seekoff@stdio_streambuf_base@_SgI@@MAE?AV?$fpos@H@_STL@@JHH@Z 10047360 f   stlport_vc6_static:stdio_streambuf.obj
 0001:000463e0       ?seekpos@stdio_streambuf_base@_SgI@@MAE?AV?$fpos@H@_STL@@V34@H@Z 100473e0 f   stlport_vc6_static:stdio_streambuf.obj
 0001:00046430       ?sync@stdio_streambuf_base@_SgI@@MAEHXZ 10047430 f   stlport_vc6_static:stdio_streambuf.obj
 0001:00046450       ??1stdio_istreambuf@_SgI@@UAE@XZ 10047450 f   stlport_vc6_static:stdio_streambuf.obj
 0001:00046460       ?showmanyc@stdio_istreambuf@_SgI@@MAEHXZ 10047460 f   stlport_vc6_static:stdio_streambuf.obj
 0001:000464e0       ?underflow@stdio_istreambuf@_SgI@@MAEHXZ 100474e0 f   stlport_vc6_static:stdio_streambuf.obj
 0001:00046510       ?uflow@stdio_istreambuf@_SgI@@MAEHXZ 10047510 f   stlport_vc6_static:stdio_streambuf.obj
 0001:00046530       ?pbackfail@stdio_istreambuf@_SgI@@MAEHH@Z 10047530 f   stlport_vc6_static:stdio_streambuf.obj
 0001:00046570       ??1stdio_ostreambuf@_SgI@@UAE@XZ 10047570 f   stlport_vc6_static:stdio_streambuf.obj
 0001:00046580       ?showmanyc@stdio_ostreambuf@_SgI@@MAEHXZ 10047580 f   stlport_vc6_static:stdio_streambuf.obj
 0001:00046590       ?overflow@stdio_ostreambuf@_SgI@@MAEHH@Z 10047590 f   stlport_vc6_static:stdio_streambuf.obj
 0001:000465f0       __Locale_ctype_create      100475f0 f   stlport_vc6_static:c_locale.obj
 0001:00046a70       __Locale_numeric_create    10047a70 f   stlport_vc6_static:c_locale.obj
 0001:00046b60       __Locale_time_create       10047b60 f   stlport_vc6_static:c_locale.obj
 0001:00046d80       __Locale_collate_create    10047d80 f   stlport_vc6_static:c_locale.obj
 0001:00046e00       __Locale_monetary_create   10047e00 f   stlport_vc6_static:c_locale.obj
 0001:00046fa0       __Locale_messages_create   10047fa0 f   stlport_vc6_static:c_locale.obj
 0001:00046fc0       __Locale_common_default    10047fc0 f   stlport_vc6_static:c_locale.obj
 0001:00047090       __Locale_ctype_default     10048090 f   stlport_vc6_static:c_locale.obj
 0001:000470a0       __Locale_numeric_default   100480a0 f   stlport_vc6_static:c_locale.obj
 0001:000470b0       __Locale_time_default      100480b0 f   stlport_vc6_static:c_locale.obj
 0001:000470c0       __Locale_collate_default   100480c0 f   stlport_vc6_static:c_locale.obj
 0001:000470d0       __Locale_monetary_default  100480d0 f   stlport_vc6_static:c_locale.obj
 0001:000470e0       __Locale_messages_default  100480e0 f   stlport_vc6_static:c_locale.obj
 0001:000470f0       __Locale_ctype_name        100480f0 f   stlport_vc6_static:c_locale.obj
 0001:00047120       __Locale_numeric_name      10048120 f   stlport_vc6_static:c_locale.obj
 0001:00047140       __Locale_time_name         10048140 f   stlport_vc6_static:c_locale.obj
 0001:00047160       __Locale_collate_name      10048160 f   stlport_vc6_static:c_locale.obj
 0001:00047180       __Locale_monetary_name     10048180 f   stlport_vc6_static:c_locale.obj
 0001:000471a0       __Locale_messages_name     100481a0 f   stlport_vc6_static:c_locale.obj
 0001:000471c0       __Locale_ctype_destroy     100481c0 f   stlport_vc6_static:c_locale.obj
 0001:000471d0       __Locale_numeric_destroy   100481d0 f   stlport_vc6_static:c_locale.obj
 0001:00047200       __Locale_time_destroy      10048200 f   stlport_vc6_static:c_locale.obj
 0001:00047280       __Locale_collate_destroy   10048280 f   stlport_vc6_static:c_locale.obj
 0001:00047290       __Locale_monetary_destroy  10048290 f   stlport_vc6_static:c_locale.obj
 0001:000472c0       __Locale_messages_destroy  100482c0 f   stlport_vc6_static:c_locale.obj
 0001:000472d0       __Locale_extract_ctype_name 100482d0 f   stlport_vc6_static:c_locale.obj
 0001:00047350       __Locale_extract_numeric_name 10048350 f   stlport_vc6_static:c_locale.obj
 0001:000473d0       __Locale_extract_time_name 100483d0 f   stlport_vc6_static:c_locale.obj
 0001:00047450       __Locale_extract_collate_name 10048450 f   stlport_vc6_static:c_locale.obj
 0001:000474d0       __Locale_extract_monetary_name 100484d0 f   stlport_vc6_static:c_locale.obj
 0001:00047550       __Locale_extract_messages_name 10048550 f   stlport_vc6_static:c_locale.obj
 0001:000475a0       __Locale_compose_name      100485a0 f   stlport_vc6_static:c_locale.obj
 0001:000479c0       __Locale_ctype_table       100489c0 f   stlport_vc6_static:c_locale.obj
 0001:000479d0       __Locale_toupper           100489d0 f   stlport_vc6_static:c_locale.obj
 0001:00047ad0       __Locale_tolower           10048ad0 f   stlport_vc6_static:c_locale.obj
 0001:00047bd0       __Locale_wchar_ctype       10048bd0 f   stlport_vc6_static:c_locale.obj
 0001:00047c10       __Locale_wchar_tolower     10048c10 f   stlport_vc6_static:c_locale.obj
 0001:00047c40       __Locale_wchar_toupper     10048c40 f   stlport_vc6_static:c_locale.obj
 0001:00047c70       __Locale_mb_cur_max        10048c70 f   stlport_vc6_static:c_locale.obj
 0001:00047ca0       __Locale_mb_cur_min        10048ca0 f   stlport_vc6_static:c_locale.obj
 0001:00047cb0       __Locale_is_stateless      10048cb0 f   stlport_vc6_static:c_locale.obj
 0001:00047ce0       __Locale_btowc             10048ce0 f   stlport_vc6_static:c_locale.obj
 0001:00047d10       __Locale_wctob             10048d10 f   stlport_vc6_static:c_locale.obj
 0001:00047d50       __Locale_mbtowc            10048d50 f   stlport_vc6_static:c_locale.obj
 0001:00047ef0       __Locale_wctomb            10048ef0 f   stlport_vc6_static:c_locale.obj
 0001:00047f50       __Locale_unshift           10048f50 f   stlport_vc6_static:c_locale.obj
 0001:00047f90       __Locale_strcmp            10048f90 f   stlport_vc6_static:c_locale.obj
 0001:00048080       __Locale_strwcmp           10049080 f   stlport_vc6_static:c_locale.obj
 0001:000480c0       __Locale_strxfrm           100490c0 f   stlport_vc6_static:c_locale.obj
 0001:00048170       __Locale_strwxfrm          10049170 f   stlport_vc6_static:c_locale.obj
 0001:000481a0       __Locale_decimal_point     100491a0 f   stlport_vc6_static:c_locale.obj
 0001:000481b0       __Locale_thousands_sep     100491b0 f   stlport_vc6_static:c_locale.obj
 0001:000481c0       __Locale_grouping          100491c0 f   stlport_vc6_static:c_locale.obj
 0001:000481e0       __Locale_true              100491e0 f   stlport_vc6_static:c_locale.obj
 0001:000481f0       __Locale_false             100491f0 f   stlport_vc6_static:c_locale.obj
 0001:00048200       __Locale_int_curr_symbol   10049200 f   stlport_vc6_static:c_locale.obj
 0001:00048210       __Locale_currency_symbol   10049210 f   stlport_vc6_static:c_locale.obj
 0001:00048220       __Locale_mon_decimal_point 10049220 f   stlport_vc6_static:c_locale.obj
 0001:00048230       __Locale_mon_thousands_sep 10049230 f   stlport_vc6_static:c_locale.obj
 0001:00048240       __Locale_mon_grouping      10049240 f   stlport_vc6_static:c_locale.obj
 0001:00048260       __Locale_positive_sign     10049260 f   stlport_vc6_static:c_locale.obj
 0001:00048270       __Locale_negative_sign     10049270 f   stlport_vc6_static:c_locale.obj
 0001:00048280       __Locale_int_frac_digits   10049280 f   stlport_vc6_static:c_locale.obj
 0001:00048290       __Locale_frac_digits       10049290 f   stlport_vc6_static:c_locale.obj
 0001:000482a0       __Locale_p_cs_precedes     100492a0 f   stlport_vc6_static:c_locale.obj
 0001:000482d0       __Locale_p_sep_by_space    100492d0 f   stlport_vc6_static:c_locale.obj
 0001:00048300       __Locale_p_sign_posn       10049300 f   stlport_vc6_static:c_locale.obj
 0001:00048330       __Locale_n_cs_precedes     10049330 f   stlport_vc6_static:c_locale.obj
 0001:00048360       __Locale_n_sep_by_space    10049360 f   stlport_vc6_static:c_locale.obj
 0001:00048390       __Locale_n_sign_posn       10049390 f   stlport_vc6_static:c_locale.obj
 0001:000483c0       __Locale_full_monthname    100493c0 f   stlport_vc6_static:c_locale.obj
 0001:000483d0       __Locale_abbrev_monthname  100493d0 f   stlport_vc6_static:c_locale.obj
 0001:000483e0       __Locale_full_dayofweek    100493e0 f   stlport_vc6_static:c_locale.obj
 0001:000483f0       __Locale_abbrev_dayofweek  100493f0 f   stlport_vc6_static:c_locale.obj
 0001:00048400       __Locale_d_t_fmt           10049400 f   stlport_vc6_static:c_locale.obj
 0001:000484a0       __Locale_long_d_t_fmt      100494a0 f   stlport_vc6_static:c_locale.obj
 0001:00048540       ___ConvertDate             10049540 f   stlport_vc6_static:c_locale.obj
 0001:000486e0       __Locale_d_fmt             100496e0 f   stlport_vc6_static:c_locale.obj
 0001:00048720       __Locale_long_d_fmt        10049720 f   stlport_vc6_static:c_locale.obj
 0001:00048760       __Locale_t_fmt             10049760 f   stlport_vc6_static:c_locale.obj
 0001:00048910       __Locale_am_str            10049910 f   stlport_vc6_static:c_locale.obj
 0001:00048950       __Locale_pm_str            10049950 f   stlport_vc6_static:c_locale.obj
 0001:00048990       __Locale_t_fmt_ampm        10049990 f   stlport_vc6_static:c_locale.obj
 0001:00048a90       __Locale_catopen           10049a90 f   stlport_vc6_static:c_locale.obj
 0001:00048aa0       __Locale_catclose          10049aa0 f   stlport_vc6_static:c_locale.obj
 0001:00048ab0       __Locale_catgets           10049ab0 f   stlport_vc6_static:c_locale.obj
 0001:00049360       ??2@YAPAXI@Z               1004a360 f   LIBCMT:new.obj
 0001:0004936e       _time                      1004a36e f   LIBCMT:time.obj
 0001:0004944a       __purecall                 1004a44a f   LIBCMT:purevirt.obj
 0001:00049453       ?_JumpToContinuation@@YGXPAXPAUEHRegistrationNode@@@Z 1004a453 f   LIBCMT:trnsctrl.obj
 0001:00049487       ?_CallMemberFunction0@@YGXPAX0@Z 1004a487 f   LIBCMT:trnsctrl.obj
 0001:0004948e       ?_CallMemberFunction1@@YGXPAX00@Z 1004a48e f   LIBCMT:trnsctrl.obj
 0001:00049495       ?_CallMemberFunction2@@YGXPAX00H@Z 1004a495 f   LIBCMT:trnsctrl.obj
 0001:0004949c       ?_UnwindNestedFrames@@YGXPAUEHRegistrationNode@@PAUEHExceptionRecord@@@Z 1004a49c f   LIBCMT:trnsctrl.obj
 0001:000494eb       ___CxxFrameHandler         1004a4eb f   LIBCMT:trnsctrl.obj
 0001:00049521       ___CxxLongjmpUnwind@4      1004a521 f   LIBCMT:trnsctrl.obj
 0001:0004953b       ?_CallCatchBlock2@@YAPAXPAUEHRegistrationNode@@PBU_s_FuncInfo@@PAXHK@Z 1004a53b f   LIBCMT:trnsctrl.obj
 0001:000495b4       ?_CallSETranslator@@YAHPAUEHExceptionRecord@@PAUEHRegistrationNode@@PAX2PBU_s_FuncInfo@@H1@Z 1004a5b4 f   LIBCMT:trnsctrl.obj
 0001:000496df       ?_GetRangeOfTrysToCheck@@YAPBU_s_TryBlockMapEntry@@PBU_s_FuncInfo@@HHPAI1@Z 1004a6df f   LIBCMT:trnsctrl.obj
 0001:0004975c       __global_unwind2           1004a75c f   LIBCMT:exsup.obj
 0001:0004979e       __local_unwind2            1004a79e f   LIBCMT:exsup.obj
 0001:000497f6       __NLG_Return2              1004a7f6 f   LIBCMT:exsup.obj
 0001:00049806       __abnormal_termination     1004a806 f   LIBCMT:exsup.obj
 0001:00049829       __NLG_Notify1              1004a829 f   LIBCMT:exsup.obj
 0001:00049832       __NLG_Notify               1004a832 f   LIBCMT:exsup.obj
 0001:00049845       __NLG_Dispatch             1004a845 f   LIBCMT:exsup.obj
 0001:0004984a       ??3@YAXPAX@Z               1004a84a f   LIBCMT:delete.obj
 0001:00049855       ??1type_info@@UAE@XZ       1004a855 f   LIBCMT:typinfo.obj
 0001:0004987e       ??_Etype_info@@UAEPAXI@Z   1004a87e f i LIBCMT:typinfo.obj
 0001:0004987e       ??_Gtype_info@@UAEPAXI@Z   1004a87e f i LIBCMT:typinfo.obj
 0001:0004989a       ??8type_info@@QBEHABV0@@Z  1004a89a f   LIBCMT:typinfo.obj
 0001:000498b5       ??9type_info@@QBEHABV0@@Z  1004a8b5 f   LIBCMT:typinfo.obj
 0001:000498d1       ?before@type_info@@QBEHABV1@@Z 1004a8d1 f   LIBCMT:typinfo.obj
 0001:000498f0       ?raw_name@type_info@@QBEPBDXZ 1004a8f0 f   LIBCMT:typinfo.obj
 0001:000498f4       ??0type_info@@AAE@ABV0@@Z  1004a8f4 f   LIBCMT:typinfo.obj
 0001:000498ff       ??4type_info@@AAEAAV0@ABV0@@Z 1004a8ff f   LIBCMT:typinfo.obj
 0001:00049910       _memmove                   1004a910 f   LIBCMT:memmove.obj
 0001:00049c45       __CxxThrowException@8      1004ac45 f   LIBCMT:throw.obj
 0001:00049c7f       __CRT_INIT@12              1004ac7f f   LIBCMT:dllcrt0.obj
 0001:00049d58       __DllMainCRTStartup@12     1004ad58 f   LIBCMT:dllcrt0.obj
 0001:00049df5       __amsg_exit                1004adf5 f   LIBCMT:dllcrt0.obj
 0001:00049e28       __onexit                   1004ae28 f   LIBCMT:onexit.obj
 0001:00049ea6       _atexit                    1004aea6 f   LIBCMT:onexit.obj
 0001:00049eb8       ___onexitinit              1004aeb8 f   LIBCMT:onexit.obj
 0001:00049ee7       __toupper                  1004aee7 f   LIBCMT:toupper.obj
 0001:00049eef       _toupper                   1004aeef f   LIBCMT:toupper.obj
 0001:00049f5e       __toupper_lk               1004af5e f   LIBCMT:toupper.obj
 0001:0004a02a       _isalpha                   1004b02a f   LIBCMT:_ctype.obj
 0001:0004a058       _isupper                   1004b058 f   LIBCMT:_ctype.obj
 0001:0004a080       _islower                   1004b080 f   LIBCMT:_ctype.obj
 0001:0004a0a8       _isdigit                   1004b0a8 f   LIBCMT:_ctype.obj
 0001:0004a0d0       _isxdigit                  1004b0d0 f   LIBCMT:_ctype.obj
 0001:0004a0fd       _isspace                   1004b0fd f   LIBCMT:_ctype.obj
 0001:0004a125       _ispunct                   1004b125 f   LIBCMT:_ctype.obj
 0001:0004a14d       _isalnum                   1004b14d f   LIBCMT:_ctype.obj
 0001:0004a17b       _isprint                   1004b17b f   LIBCMT:_ctype.obj
 0001:0004a1a9       _isgraph                   1004b1a9 f   LIBCMT:_ctype.obj
 0001:0004a1d7       _iscntrl                   1004b1d7 f   LIBCMT:_ctype.obj
 0001:0004a1ff       ___isascii                 1004b1ff f   LIBCMT:_ctype.obj
 0001:0004a20c       ___toascii                 1004b20c f   LIBCMT:_ctype.obj
 0001:0004a214       ___iscsymf                 1004b214 f   LIBCMT:_ctype.obj
 0001:0004a251       ___iscsym                  1004b251 f   LIBCMT:_ctype.obj
 0001:0004a28e       _atol                      1004b28e f   LIBCMT:atox.obj
 0001:0004a319       _atoi                      1004b319 f   LIBCMT:atox.obj
 0001:0004a324       __atoi64                   1004b324 f   LIBCMT:atox.obj
 0001:0004a3de       _strtok                    1004b3de f   LIBCMT:strtok.obj
 0001:0004a482       _sprintf                   1004b482 f   LIBCMT:sprintf.obj
 0001:0004a4d4       _free                      1004b4d4 f   LIBCMT:free.obj
 0001:0004a5bd       _malloc                    1004b5bd f   LIBCMT:malloc.obj
 0001:0004a5cf       __nh_malloc                1004b5cf f   LIBCMT:malloc.obj
 0001:0004a5fb       __heap_alloc               1004b5fb f   LIBCMT:malloc.obj
 0001:0004a6f7       __beginthreadex            1004b6f7 f   LIBCMT:threadex.obj
 0001:0004a828       __endthreadex              1004b828 f   LIBCMT:threadex.obj
 0001:0004a85a       ??0exception@@QAE@XZ       1004b85a f   LIBCMT:stdexcpt.obj
 0001:0004a86b       ??_Gexception@@UAEPAXI@Z   1004b86b f i LIBCMT:stdexcpt.obj
 0001:0004a86b       ??_Eexception@@UAEPAXI@Z   1004b86b f i LIBCMT:stdexcpt.obj
 0001:0004a887       ??0exception@@QAE@ABQBD@Z  1004b887 f   LIBCMT:stdexcpt.obj
 0001:0004a8c4       ??0exception@@QAE@ABV0@@Z  1004b8c4 f   LIBCMT:stdexcpt.obj
 0001:0004a90e       ??4exception@@QAEAAV0@ABV0@@Z 1004b90e f   LIBCMT:stdexcpt.obj
 0001:0004a92d       ??1exception@@UAE@XZ       1004b92d f   LIBCMT:stdexcpt.obj
 0001:0004a943       ?what@exception@@UBEPBDXZ  1004b943 f   LIBCMT:stdexcpt.obj
 0001:0004a950       _strncpy                   1004b950 f   LIBCMT:strncpy.obj
 0001:0004aa4e       __vsnprintf                1004ba4e f   LIBCMT:vsnprint.obj
 0001:0004aaa0       __alloca_probe             1004baa0 f   LIBCMT:chkstk.obj
 0001:0004aaa0       __chkstk                   1004baa0 f   LIBCMT:chkstk.obj
 0001:0004aacf       _abort                     1004bacf f   LIBCMT:abort.obj
 0001:0004aaf0       _strncat                   1004baf0 f   LIBCMT:strncat.obj
 0001:0004ac13       _setlocale                 1004bc13 f   LIBCMT:setlocal.obj
 0001:0004b02d       __expandlocale             1004c02d f   LIBCMT:setlocal.obj
 0001:0004b145       ___init_dummy              1004c145 f   LIBCMT:setlocal.obj
 0001:0004b148       __strcats                  1004c148 f   LIBCMT:setlocal.obj
 0001:0004b16d       ___lc_strtolc              1004c16d f   LIBCMT:setlocal.obj
 0001:0004b239       ___lc_lctostr              1004c239 f   LIBCMT:setlocal.obj
 0001:0004b28c       ??_M@YGXPAXIHP6EX0@Z@Z     1004c28c f   LIBCMT:ehvecdtr.obj
 0001:0004b30c       ?__ArrayUnwind@@YGXPAXIHP6EX0@Z@Z 1004c30c f   LIBCMT:ehvecdtr.obj
 0001:0004b380       ??_L@YGXPAXIHP6EX0@Z1@Z    1004c380 f   LIBCMT:ehvecctr.obj
 0001:0004b410       __aullshr                  1004c410 f   LIBCMT:ullshr.obj
 0001:0004b430       __aulldiv                  1004c430 f   LIBCMT:ulldiv.obj
 0001:0004b4a0       __aullrem                  1004c4a0 f   LIBCMT:ullrem.obj
 0001:0004b520       __alldiv                   1004c520 f   LIBCMT:lldiv.obj
 0001:0004b5d0       __allrem                   1004c5d0 f   LIBCMT:llrem.obj
 0001:0004b682       __fpmath                   1004c682 f   LIBCMT:fpinit.obj
 0001:0004b699       __fpclear                  1004c699 f   LIBCMT:fpinit.obj
 0001:0004b69a       __cfltcvt_init             1004c69a f   LIBCMT:fpinit.obj
 0001:0004b6d2       ___setfflag                1004c6d2 f   LIBCMT:fpinit.obj
 0001:0004b6f0       __allmul                   1004c6f0 f   LIBCMT:llmul.obj
 0001:0004b724       ___initstdio               1004c724 f   LIBCMT:_file.obj
 0001:0004b7cc       ___endstdio                1004c7cc f   LIBCMT:_file.obj
 0001:0004b7e0       __lock_file                1004c7e0 f   LIBCMT:_file.obj
 0001:0004b80f       __lock_file2               1004c80f f   LIBCMT:_file.obj
 0001:0004b832       __unlock_file              1004c832 f   LIBCMT:_file.obj
 0001:0004b861       __unlock_file2             1004c861 f   LIBCMT:_file.obj
 0001:0004b884       _realloc                   1004c884 f   LIBCMT:realloc.obj
 0001:0004bbb3       __ioinit                   1004cbb3 f   LIBCMT:ioinit.obj
 0001:0004bd6f       __ioterm                   1004cd6f f   LIBCMT:ioinit.obj
 0001:0004bdc3       __alloc_osfhnd             1004cdc3 f   LIBCMT:osfinfo.obj
 0001:0004bee6       __set_osfhnd               1004cee6 f   LIBCMT:osfinfo.obj
 0001:0004bf62       __free_osfhnd              1004cf62 f   LIBCMT:osfinfo.obj
 0001:0004bfe1       __get_osfhandle            1004cfe1 f   LIBCMT:osfinfo.obj
 0001:0004c023       __open_osfhandle           1004d023 f   LIBCMT:osfinfo.obj
 0001:0004c0ca       __lock_fhandle             1004d0ca f   LIBCMT:osfinfo.obj
 0001:0004c129       __unlock_fhandle           1004d129 f   LIBCMT:osfinfo.obj
 0001:0004c150       _memchr                    1004d150 f   LIBCMT:memchr.obj
 0001:0004c200       __allshl                   1004d200 f   LIBCMT:llshl.obj
 0001:0004c21f       __copysign                 1004d21f f   LIBCMT:ieeemisc.obj
 0001:0004c240       __chgsign                  1004d240 f   LIBCMT:ieeemisc.obj
 0001:0004c265       __scalb                    1004d265 f   LIBCMT:ieeemisc.obj
 0001:0004c27b       __logb                     1004d27b f   LIBCMT:ieeemisc.obj
 0001:0004c362       __nextafter                1004d362 f   LIBCMT:ieeemisc.obj
 0001:0004c5f7       __finite                   1004d5f7 f   LIBCMT:ieeemisc.obj
 0001:0004c60b       __isnan                    1004d60b f   LIBCMT:ieeemisc.obj
 0001:0004c639       __fpclass                  1004d639 f   LIBCMT:ieeemisc.obj
 0001:0004c6cb       __fcvt                     1004d6cb f   LIBCMT:fcvt.obj
 0001:0004c6fe       __ecvt                     1004d6fe f   LIBCMT:fcvt.obj
 0001:0004c73b       __fpcvt                    1004d73b f   LIBCMT:fcvt.obj
 0001:0004c798       _fflush                    1004d798 f   LIBCMT:fflush.obj
 0001:0004c7c7       __fflush_lk                1004d7c7 f   LIBCMT:fflush.obj
 0001:0004c7f5       __flush                    1004d7f5 f   LIBCMT:fflush.obj
 0001:0004c851       __flushall                 1004d851 f   LIBCMT:fflush.obj
 0001:0004c8fe       _setvbuf                   1004d8fe f   LIBCMT:setvbuf.obj
 0001:0004c9ad       _fgetpos                   1004d9ad f   LIBCMT:fgetpos.obj
 0001:0004c9cf       _fseek                     1004d9cf f   LIBCMT:fseek.obj
 0001:0004c9fb       __fseek_lk                 1004d9fb f   LIBCMT:fseek.obj
 0001:0004ca88       _fsetpos                   1004da88 f   LIBCMT:fsetpos.obj
 0001:0004caa0       _ftell                     1004daa0 f   LIBCMT:ftell.obj
 0001:0004cac2       __ftell_lk                 1004dac2 f   LIBCMT:ftell.obj
 0001:0004cc23       _feof                      1004dc23 f   LIBCMT:feoferr.obj
 0001:0004cc2e       _ferror                    1004dc2e f   LIBCMT:feoferr.obj
 0001:0004cc39       _ungetc                    1004dc39 f   LIBCMT:ungetc.obj
 0001:0004cc62       __ungetc_lk                1004dc62 f   LIBCMT:ungetc.obj
 0001:0004ccd0       _fgetc                     1004dcd0 f   LIBCMT:fgetc.obj
 0001:0004cd01       _getc                      1004dd01 f   LIBCMT:fgetc.obj
 0001:0004cd0c       _fputc                     1004dd0c f   LIBCMT:fputc.obj
 0001:0004cd47       _putc                      1004dd47 f   LIBCMT:fputc.obj
 0001:0004cd60       _strcspn                   1004dd60 f   LIBCMT:strcspn.obj
 0001:0004cdb0       _strchr                    1004ddb0 f   LIBCMT:strchr.obj
 0001:0004cdb6       ___from_strstr_to_strchr   1004ddb6 f   LIBCMT:strchr.obj
 0001:0004ce70       _strstr                    1004de70 f   LIBCMT:strstr.obj
 0001:0004cef0       ___loctotime_t             1004def0 f   LIBCMT:dtoxtime.obj
 0001:0004cfb2       ___InternalCxxFrameHandler 1004dfb2 f   LIBCMT:frame.obj
 0001:0004d307       ___FrameUnwindToState      1004e307 f   LIBCMT:frame.obj
 0001:0004d73f       ?_DestructExceptionObject@@YAXPAUEHExceptionRecord@@E@Z 1004e73f f   LIBCMT:frame.obj
 0001:0004d7d0       __CallSettingFrame@12      1004e7d0 f   LIBCMT:lowhelpr.obj
 0001:0004d7f7       __NLG_Return               1004e7f7 f   LIBCMT:lowhelpr.obj
 0001:0004d81c       __mtinit                   1004e81c f   LIBCMT:tidtable.obj
 0001:0004d870       __mtterm                   1004e870 f   LIBCMT:tidtable.obj
 0001:0004d88e       __initptd                  1004e88e f   LIBCMT:tidtable.obj
 0001:0004d8a1       __getptd                   1004e8a1 f   LIBCMT:tidtable.obj
 0001:0004d908       __freeptd                  1004e908 f   LIBCMT:tidtable.obj
 0001:0004d9a8       ___threadid                1004e9a8 f   LIBCMT:tidtable.obj
 0001:0004d9ae       ___threadhandle            1004e9ae f   LIBCMT:tidtable.obj
 0001:0004d9b4       ?terminate@@YAXXZ          1004e9b4 f   LIBCMT:hooks.obj
 0001:0004da15       ?unexpected@@YAXXZ         1004ea15 f   LIBCMT:hooks.obj
 0001:0004da2d       ?_inconsistency@@YAXXZ     1004ea2d f   LIBCMT:hooks.obj
 0001:0004da83       __mtinitlocks              1004ea83 f   LIBCMT:mlock.obj
 0001:0004daac       __mtdeletelocks            1004eaac f   LIBCMT:mlock.obj
 0001:0004db18       __lock                     1004eb18 f   LIBCMT:mlock.obj
 0001:0004db79       __unlock                   1004eb79 f   LIBCMT:mlock.obj
 0001:0004db8e       __lockerr_exit             1004eb8e f   LIBCMT:mlock.obj
 0001:0004dbb0       _strcmp                    1004ebb0 f   LIBCMT:strcmp.obj
 0001:0004dc34       ?__CxxUnhandledExceptionFilter@@YGJPAU_EXCEPTION_POINTERS@@@Z 1004ec34 f   LIBCMT:unhandld.obj
 0001:0004dc7a       ?__CxxSetUnhandledExceptionFilter@@YAXXZ 1004ec7a f   LIBCMT:unhandld.obj
 0001:0004dc8b       ?__CxxRestoreUnhandledExceptionFilter@@YAXXZ 1004ec8b f   LIBCMT:unhandld.obj
 0001:0004dc98       __cinit                    1004ec98 f   LIBCMT:crt0dat.obj
 0001:0004dcc5       _exit                      1004ecc5 f   LIBCMT:crt0dat.obj
 0001:0004dcd6       __exit                     1004ecd6 f   LIBCMT:crt0dat.obj
 0001:0004dce7       __cexit                    1004ece7 f   LIBCMT:crt0dat.obj
 0001:0004dcf6       __c_exit                   1004ecf6 f   LIBCMT:crt0dat.obj
 0001:0004ddaa       __lockexit                 1004edaa f   LIBCMT:crt0dat.obj
 0001:0004ddb3       __unlockexit               1004edb3 f   LIBCMT:crt0dat.obj
 0001:0004ddd6       __setenvp                  1004edd6 f   LIBCMT:stdenvp.obj
 0001:0004de8f       __setargv                  1004ee8f f   LIBCMT:stdargv.obj
 0001:0004e0dc       ___crtGetEnvironmentStringsA 1004f0dc f   LIBCMT:a_env.obj
 0001:0004e20e       __GetLinkerVersion         1004f20e f   LIBCMT:heapinit.obj
 0001:0004e23b       ___heap_select             1004f23b f   LIBCMT:heapinit.obj
 0001:0004e383       __heap_init                1004f383 f   LIBCMT:heapinit.obj
 0001:0004e3e0       __heap_term                1004f3e0 f   LIBCMT:heapinit.obj
 0001:0004e488       __FF_MSGBANNER             1004f488 f   LIBCMT:crt0msg.obj
 0001:0004e4c1       __NMSG_WRITE               1004f4c1 f   LIBCMT:crt0msg.obj
 0001:0004e614       __GET_RTERRMSG             1004f614 f   LIBCMT:crt0msg.obj
 0001:0004e645       __msize                    1004f645 f   LIBCMT:msize.obj
 0001:0004e733       ___crtLCMapStringA         1004f733 f   LIBCMT:a_map.obj
 0001:0004e982       __isctype                  1004f982 f   LIBCMT:isctype.obj
 0001:0004e9f7       __flsbuf                   1004f9f7 f   LIBCMT:_flsbuf.obj
 0001:0004eb0f       __output                   1004fb0f f   LIBCMT:output.obj
 0001:0004f376       __get_sbh_threshold        10050376 f   LIBCMT:sbheap.obj
 0001:0004f395       __set_sbh_threshold        10050395 f   LIBCMT:sbheap.obj
 0001:0004f448       ___sbh_heap_init           10050448 f   LIBCMT:sbheap.obj
 0001:0004f490       ___sbh_find_block          10050490 f   LIBCMT:sbheap.obj
 0001:0004f4bb       ___sbh_free_block          100504bb f   LIBCMT:sbheap.obj
 0001:0004f7e4       ___sbh_alloc_block         100507e4 f   LIBCMT:sbheap.obj
 0001:0004faed       ___sbh_alloc_new_region    10050aed f   LIBCMT:sbheap.obj
 0001:0004fb9e       ___sbh_alloc_new_group     10050b9e f   LIBCMT:sbheap.obj
 0001:0004fc99       ___sbh_resize_block        10050c99 f   LIBCMT:sbheap.obj
 0001:0004ff8f       ___sbh_heapmin             10050f8f f   LIBCMT:sbheap.obj
 0001:00050060       ___sbh_heap_check          10051060 f   LIBCMT:sbheap.obj
 0001:0005038f       __get_old_sbh_threshold    1005138f f   LIBCMT:sbheap.obj
 0001:00050395       __set_old_sbh_threshold    10051395 f   LIBCMT:sbheap.obj
 0001:000503b1       ___old_sbh_new_region      100513b1 f   LIBCMT:sbheap.obj
 0001:000504f5       ___old_sbh_release_region  100514f5 f   LIBCMT:sbheap.obj
 0001:0005054b       ___old_sbh_decommit_pages  1005154b f   LIBCMT:sbheap.obj
 0001:0005060d       ___old_sbh_find_block      1005160d f   LIBCMT:sbheap.obj
 0001:00050664       ___old_sbh_free_block      10051664 f   LIBCMT:sbheap.obj
 0001:000506a9       ___old_sbh_alloc_block     100516a9 f   LIBCMT:sbheap.obj
 0001:000508b1       ___old_sbh_alloc_block_from_page 100518b1 f   LIBCMT:sbheap.obj
 0001:000509d5       ___old_sbh_resize_block    100519d5 f   LIBCMT:sbheap.obj
 0001:00050a7e       ___old_sbh_heap_check      10051a7e f   LIBCMT:sbheap.obj
 0001:00050be4       __except_handler3          10051be4 f   LIBCMT:exsup3.obj
 0001:00050ca1       __seh_longjmp_unwind@4     10051ca1 f   LIBCMT:exsup3.obj
 0001:00050cbc       ?_set_new_handler@@YAP6AHI@ZP6AHI@Z@Z 10051cbc f   LIBCMT:handler.obj
 0001:00050ce0       ?_query_new_handler@@YAP6AHI@ZXZ 10051ce0 f   LIBCMT:handler.obj
 0001:00050ce6       __callnewh                 10051ce6 f   LIBCMT:handler.obj
 0001:00050d01       __dosmaperr                10051d01 f   LIBCMT:dosmap.obj
 0001:00050d74       __errno                    10051d74 f   LIBCMT:dosmap.obj
 0001:00050d7d       ___doserrno                10051d7d f   LIBCMT:dosmap.obj
 0001:00050d86       _calloc                    10051d86 f   LIBCMT:calloc.obj
 0001:00050ec3       __XcptFilter               10051ec3 f   LIBCMT:winxfltr.obj
 0001:00051040       _strcpy                    10052040 f   LIBCMT:strcat.obj
 0001:00051050       _strcat                    10052050 f   LIBCMT:strcat.obj
 0001:00051130       _strlen                    10052130 f   LIBCMT:strlen.obj
 0001:000511ab       _signal                    100521ab f   LIBCMT:winsig.obj
 0001:0005138f       _raise                     1005238f f   LIBCMT:winsig.obj
 0001:0005154e       ___fpecode                 1005254e f   LIBCMT:winsig.obj
 0001:00051557       ___pxcptinfoptrs           10052557 f   LIBCMT:winsig.obj
 0001:00051560       ___init_time               10052560 f   LIBCMT:inittime.obj
 0001:00051acf       ___init_numeric            10052acf f   LIBCMT:initnum.obj
 0001:00051cdb       ___init_monetary           10052cdb f   LIBCMT:initmon.obj
 0001:00051f4d       ___init_ctype              10052f4d f   LIBCMT:initctyp.obj
 0001:00052192       ___init_collate            10053192 f   LIBCMT:initcoll.obj
 0001:000521a0       _strncmp                   100531a0 f   LIBCMT:strncmp.obj
 0001:000521e0       _strpbrk                   100531e0 f   LIBCMT:strpbrk.obj
 0001:00052220       _memcpy                    10053220 f   LIBCMT:memcpy.obj
 0001:00052555       ___get_qualified_locale    10053555 f   LIBCMT:getqloc.obj
 0001:00052e00       _memset                    10053e00 f   LIBCMT:memset.obj
 0001:00052e58       __setdefaultprecision      10053e58 f   LIBCMT:fp8.obj
 0001:00052e6a       __ms_p5_test_fdiv          10053e6a f   LIBCMT:testfdiv.obj
 0001:00052ea8       __ms_p5_mp_test_fdiv       10053ea8 f   LIBCMT:testfdiv.obj
 0001:00052ed1       __forcdecpt                10053ed1 f   LIBCMT:cvt.obj
 0001:00052f2b       __cropzeros                10053f2b f   LIBCMT:cvt.obj
 0001:00052f79       __positive                 10053f79 f   LIBCMT:cvt.obj
 0001:00052f91       __fassign                  10053f91 f   LIBCMT:cvt.obj
 0001:00052fcf       __cftoe                    10053fcf f   LIBCMT:cvt.obj
 0001:000530f2       __cftof                    100540f2 f   LIBCMT:cvt.obj
 0001:000531ee       __cftog                    100541ee f   LIBCMT:cvt.obj
 0001:00053281       __cfltcvt                  10054281 f   LIBCMT:cvt.obj
 0001:000532f7       __fcloseall                100542f7 f   LIBCMT:closeall.obj
 0001:00053378       _ldexp                     10054378 f   LIBCMT:ldexp.obj
 0001:0005355e       __set_exp                  1005455e f   LIBCMT:util.obj
 0001:00053587       __get_exp                  10054587 f   LIBCMT:util.obj
 0001:0005359b       __add_exp                  1005459b f   LIBCMT:util.obj
 0001:000535c7       __set_bexp                 100545c7 f   LIBCMT:util.obj
 0001:000535eb       __sptype                   100545eb f   LIBCMT:util.obj
 0001:00053645       __decomp                   10054645 f   LIBCMT:util.obj
 0001:00053706       __handle_qnan1             10054706 f   LIBCMT:fpexcept.obj
 0001:0005375a       __handle_qnan2             1005475a f   LIBCMT:fpexcept.obj
 0001:000537ba       __except1                  100547ba f   LIBCMT:fpexcept.obj
 0001:00053852       __except2                  10054852 f   LIBCMT:fpexcept.obj
 0001:000538f7       __raise_exc                100548f7 f   LIBCMT:fpexcept.obj
 0001:00053baa       __handle_exc               10054baa f   LIBCMT:fpexcept.obj
 0001:00053dc1       __umatherr                 10054dc1 f   LIBCMT:fpexcept.obj
 0001:00053e49       __set_errno                10054e49 f   LIBCMT:fpexcept.obj
 0001:00053e96       __errcode                  10054e96 f   LIBCMT:fpexcept.obj
 0001:00053ec3       __statfp                   10054ec3 f   LIBCMT:fpctrl.obj
 0001:00053ed1       __clrfp                    10054ed1 f   LIBCMT:fpctrl.obj
 0001:00053ee0       __ctrlfp                   10054ee0 f   LIBCMT:fpctrl.obj
 0001:00053f03       __set_statfp               10054f03 f   LIBCMT:fpctrl.obj
 0001:00053f59       __fltout2                  10054f59 f   LIBCMT:cfout.obj
 0001:00053fb5       ___dtold                   10054fb5 f   LIBCMT:cfout.obj
 0001:0005406b       __fptostr                  1005506b f   LIBCMT:_fptostr.obj
 0001:000540e2       __commit                   100550e2 f   LIBCMT:commit.obj
 0001:00054175       __write                    10055175 f   LIBCMT:write.obj
 0001:000541da       __write_lk                 100551da f   LIBCMT:write.obj
 0001:00054365       __freebuf                  10055365 f   LIBCMT:_freebuf.obj
 0001:00054390       __ftelli64                 10055390 f   LIBCMT:ftelli64.obj
 0001:000543b8       __ftelli64_lk              100553b8 f   LIBCMT:ftelli64.obj
 0001:00054548       __lseek                    10055548 f   LIBCMT:lseek.obj
 0001:000545ad       __lseek_lk                 100555ad f   LIBCMT:lseek.obj
 0001:00054620       __fseeki64                 10055620 f   LIBCMT:fseeki64.obj
 0001:0005464f       __fseeki64_lk              1005564f f   LIBCMT:fseeki64.obj
 0001:000546e0       __getbuf                   100556e0 f   LIBCMT:_getbuf.obj
 0001:00054724       __filbuf                   10055724 f   LIBCMT:_filbuf.obj
 0001:00054800       ___tzset                   10055800 f   LIBCMT:tzset.obj
 0001:0005482e       __tzset                    1005582e f   LIBCMT:tzset.obj
 0001:00054acb       __isindst                  10055acb f   LIBCMT:tzset.obj
 0001:00054dd8       ?_ValidateRead@@YAHPBXI@Z  10055dd8 f   LIBCMT:validate.obj
 0001:00054df4       ?_ValidateWrite@@YAHPAXI@Z 10055df4 f   LIBCMT:validate.obj
 0001:00054e10       ?_ValidateExecute@@YAHP6GHXZ@Z 10055e10 f   LIBCMT:validate.obj
 0001:00054e28       __setmbcp                  10055e28 f   LIBCMT:mbctype.obj
 0001:00055200       __getmbcp                  10056200 f   LIBCMT:mbctype.obj
 0001:00055210       ___initmbctable            10056210 f   LIBCMT:mbctype.obj
 0001:0005522c       _strtol                    1005622c f   LIBCMT:strtol.obj
 0001:00055448       _strtoul                   10056448 f   LIBCMT:strtol.obj
 0001:0005545f       ___crtMessageBoxA          1005645f f   LIBCMT:crtmbox.obj
 0001:000554e8       ___crtGetStringTypeA       100564e8 f   LIBCMT:a_str.obj
 0001:00055631       __isatty                   10056631 f   LIBCMT:isatty.obj
 0001:0005565a       _wctomb                    1005665a f   LIBCMT:wctomb.obj
 0001:000556b3       __wctomb_lk                100566b3 f   LIBCMT:wctomb.obj
 0001:0005571c       __Getdays                  1005671c f   LIBCMT:strftime.obj
 0001:000557ab       __Getmonths                100567ab f   LIBCMT:strftime.obj
 0001:00055840       __Gettnames                10056840 f   LIBCMT:strftime.obj
 0001:00055a72       _strftime                  10056a72 f   LIBCMT:strftime.obj
 0001:00055a8d       __Strftime                 10056a8d f   LIBCMT:strftime.obj
 0001:00056363       ___getlocaleinfo           10057363 f   LIBCMT:inithelp.obj
 0001:0005649b       _localeconv                1005749b f   LIBCMT:lconv.obj
 0001:000564a1       ___crtGetStringTypeW       100574a1 f   LIBCMT:w_str.obj
 0001:00056666       __itoa                     10057666 f   LIBCMT:xtoa.obj
 0001:000566ef       __ltoa                     100576ef f   LIBCMT:xtoa.obj
 0001:00056719       __ultoa                    10057719 f   LIBCMT:xtoa.obj
 0001:00056734       __i64toa                   10057734 f   LIBCMT:xtoa.obj
 0001:000567eb       __ui64toa                  100577eb f   LIBCMT:xtoa.obj
 0001:00056810       __strcmpi                  10057810 f   LIBCMT:stricmp.obj
 0001:00056810       __stricmp                  10057810 f   LIBCMT:stricmp.obj
 0001:000568e0       __strnicmp                 100578e0 f   LIBCMT:strnicmp.obj
 0001:000569e1       __statusfp                 100579e1 f   LIBCMT:ieee87.obj
 0001:000569f4       __clearfp                  100579f4 f   LIBCMT:ieee87.obj
 0001:00056a08       __control87                10057a08 f   LIBCMT:ieee87.obj
 0001:00056a3d       __controlfp                10057a3d f   LIBCMT:ieee87.obj
 0001:00056a53       __fpreset                  10057a53 f   LIBCMT:ieee87.obj
 0001:00056bce       __tolower                  10057bce f   LIBCMT:tolower.obj
 0001:00056bd6       _tolower                   10057bd6 f   LIBCMT:tolower.obj
 0001:00056c45       __tolower_lk               10057c45 f   LIBCMT:tolower.obj
 0001:00056d10       __ZeroTail                 10057d10 f   LIBCMT:intrncvt.obj
 0001:00056d59       __IncMan                   10057d59 f   LIBCMT:intrncvt.obj
 0001:00056daf       __RoundMan                 10057daf f   LIBCMT:intrncvt.obj
 0001:00056e3b       __CopyMan                  10057e3b f   LIBCMT:intrncvt.obj
 0001:00056e56       __FillZeroMan              10057e56 f   LIBCMT:intrncvt.obj
 0001:00056e62       __IsZeroMan                10057e62 f   LIBCMT:intrncvt.obj
 0001:00056e7d       __ShrMan                   10057e7d f   LIBCMT:intrncvt.obj
 0001:00056f0a       __ld12cvt                  10057f0a f   LIBCMT:intrncvt.obj
 0001:00057076       __ld12tod                  10058076 f   LIBCMT:intrncvt.obj
 0001:0005708c       __ld12tof                  1005808c f   LIBCMT:intrncvt.obj
 0001:000570a2       __ld12told                 100580a2 f   LIBCMT:intrncvt.obj
 0001:0005711c       __atodbl                   1005811c f   LIBCMT:intrncvt.obj
 0001:00057149       __atoldbl                  10058149 f   LIBCMT:intrncvt.obj
 0001:00057177       __atoflt                   10058177 f   LIBCMT:intrncvt.obj
 0001:000571a4       __fptrap                   100581a4 f   LIBCMT:crt0fp.obj
 0001:000571ad       _fclose                    100581ad f   LIBCMT:fclose.obj
 0001:000571de       __fclose_lk                100581de f   LIBCMT:fclose.obj
 0001:0005722a       __matherr                  1005822a f   LIBCMT:matherr.obj
 0001:0005722d       _$I10_OUTPUT               1005822d f   LIBCMT:x10fout.obj
 0001:000574c0       __lseeki64                 100584c0 f   LIBCMT:lseeki64.obj
 0001:00057531       __lseeki64_lk              10058531 f   LIBCMT:lseeki64.obj
 0001:000575b6       __read                     100585b6 f   LIBCMT:read.obj
 0001:0005761b       __read_lk                  1005861b f   LIBCMT:read.obj
 0001:000577f4       _getenv                    100587f4 f   LIBCMT:getenv.obj
 0001:00057815       __getenv_lk                10058815 f   LIBCMT:getenv.obj
 0001:00057892       ___crtGetLocaleInfoW       10058892 f   LIBCMT:w_loc.obj
 0001:000579a5       ___crtGetLocaleInfoA       100589a5 f   LIBCMT:a_loc.obj
 0001:00057ac3       ___addl                    10058ac3 f   LIBCMT:mantold.obj
 0001:00057ae4       ___add_12                  10058ae4 f   LIBCMT:mantold.obj
 0001:00057b42       ___shl_12                  10058b42 f   LIBCMT:mantold.obj
 0001:00057b70       ___shr_12                  10058b70 f   LIBCMT:mantold.obj
 0001:00057b9d       ___mtold12                 10058b9d f   LIBCMT:mantold.obj
 0001:00057c64       ___strgtold12              10058c64 f   LIBCMT:strgtold.obj
 0001:00058135       ___STRINGTOLD              10059135 f   LIBCMT:strgtold.obj
 0001:00058171       __close                    10059171 f   LIBCMT:close.obj
 0001:000581ce       __close_lk                 100591ce f   LIBCMT:close.obj
 0001:00058251       ___ld12mul                 10059251 f   LIBCMT:tenpow.obj
 0001:00058471       ___multtenpow12            10059471 f   LIBCMT:tenpow.obj
 0001:000584ed       __mbsnbicoll               100594ed f   LIBCMT:mbsnbico.obj
 0001:0005852c       ___wtomb_environ           1005952c f   LIBCMT:wtombenv.obj
 0001:0005859a       ___crtCompareStringA       1005959a f   LIBCMT:a_cmp.obj
 0001:00058842       ___crtsetenv               10059842 f   LIBCMT:setenv.obj
 0001:00058a88       __mbschr                   10059a88 f   LIBCMT:mbschr.obj
 0001:00058b1f       __strdup                   10059b1f f   LIBCMT:strdup.obj
 0001:00058b50       _closesocket@4             10059b50 f   ws2_32:WS2_32.dll
 0001:00058b56       _WSAGetLastError@0         10059b56 f   ws2_32:WS2_32.dll
 0001:00058b5c       _setsockopt@20             10059b5c f   ws2_32:WS2_32.dll
 0001:00058b62       _WSASocketA@24             10059b62 f   ws2_32:WS2_32.dll
 0001:00058b68       _WSAEnumNetworkEvents@12   10059b68 f   ws2_32:WS2_32.dll
 0001:00058b6e       _WSAWaitForMultipleEvents@20 10059b6e f   ws2_32:WS2_32.dll
 0001:00058b74       _WSARecv@28                10059b74 f   ws2_32:WS2_32.dll
 0001:00058b7a       _select@20                 10059b7a f   ws2_32:WS2_32.dll
 0001:00058b80       _WSASend@28                10059b80 f   ws2_32:WS2_32.dll
 0001:00058b86       _recv@16                   10059b86 f   ws2_32:WS2_32.dll
 0001:00058b8c       _gethostbyname@4           10059b8c f   ws2_32:WS2_32.dll
 0001:00058b92       _gethostname@8             10059b92 f   ws2_32:WS2_32.dll
 0001:00058b98       _WSACloseEvent@4           10059b98 f   ws2_32:WS2_32.dll
 0001:00058b9e       _WSAEventSelect@12         10059b9e f   ws2_32:WS2_32.dll
 0001:00058ba4       _WSACreateEvent@0          10059ba4 f   ws2_32:WS2_32.dll
 0001:00058baa       _WSAStartup@8              10059baa f   ws2_32:WS2_32.dll
 0001:00058bb0       _WSACleanup@0              10059bb0 f   ws2_32:WS2_32.dll
 0001:00058bb6       _shutdown@8                10059bb6 f   ws2_32:WS2_32.dll
 0001:00058bbc       _listen@8                  10059bbc f   ws2_32:WS2_32.dll
 0001:00058bc2       _bind@12                   10059bc2 f   ws2_32:WS2_32.dll
 0001:00058bc8       _connect@12                10059bc8 f   ws2_32:WS2_32.dll
 0001:00058bce       _htonl@4                   10059bce f   ws2_32:WS2_32.dll
 0001:00058bd4       _htons@4                   10059bd4 f   ws2_32:WS2_32.dll
 0001:00058bda       _inet_addr@4               10059bda f   ws2_32:WS2_32.dll
 0001:00058be0       _VerQueryValueA@16         10059be0 f   Version:VERSION.dll
 0001:00058be6       _GetFileVersionInfoA@16    10059be6 f   Version:VERSION.dll
 0001:00058bec       _GetFileVersionInfoSizeA@8 10059bec f   Version:VERSION.dll
 0001:00058bf2       _GetLastError@0            10059bf2 f   kernel32:KERNEL32.dll
 0001:00058bf8       _WaitForMultipleObjects@16 10059bf8 f   kernel32:KERNEL32.dll
 0001:00058bfe       _FormatMessageA@28         10059bfe f   kernel32:KERNEL32.dll
 0001:00058c04       _GetCurrentDirectoryA@8    10059c04 f   kernel32:KERNEL32.dll
 0001:00058c0a       _GetModuleFileNameA@12     10059c0a f   kernel32:KERNEL32.dll
 0001:00058c10       _GetSystemTime@4           10059c10 f   kernel32:KERNEL32.dll
 0001:00058c16       _GetLocalTime@4            10059c16 f   kernel32:KERNEL32.dll
 0001:00058c1c       _GetComputerNameA@8        10059c1c f   kernel32:KERNEL32.dll
 0001:00058c22       _SetLastError@4            10059c22 f   kernel32:KERNEL32.dll
 0001:00058c28       _CloseHandle@4             10059c28 f   kernel32:KERNEL32.dll
 0001:00058c2e       _WaitForSingleObject@8     10059c2e f   kernel32:KERNEL32.dll
 0001:00058c34       _TerminateThread@8         10059c34 f   kernel32:KERNEL32.dll
 0001:00058c3a       _CreateEventA@16           10059c3a f   kernel32:KERNEL32.dll
 0001:00058c40       _ResetEvent@4              10059c40 f   kernel32:KERNEL32.dll
 0001:00058c46       _SetEvent@4                10059c46 f   kernel32:KERNEL32.dll
 0001:00058c4c       _PulseEvent@4              10059c4c f   kernel32:KERNEL32.dll
 0001:00058c52       _Sleep@4                   10059c52 f   kernel32:KERNEL32.dll
 0001:00058c58       _InterlockedExchange@8     10059c58 f   kernel32:KERNEL32.dll
 0001:00058c5e       _OutputDebugStringA@4      10059c5e f   kernel32:KERNEL32.dll
 0001:00058c64       _GetFileType@4             10059c64 f   kernel32:KERNEL32.dll
 0001:00058c6a       _GetFileSize@8             10059c6a f   kernel32:KERNEL32.dll
 0001:00058c70       _GetSystemInfo@4           10059c70 f   kernel32:KERNEL32.dll
 0001:00058c76       _SetFilePointer@16         10059c76 f   kernel32:KERNEL32.dll
 0001:00058c7c       _SetEndOfFile@4            10059c7c f   kernel32:KERNEL32.dll
 0001:00058c82       _CreateFileA@28            10059c82 f   kernel32:KERNEL32.dll
 0001:00058c88       _ReadFile@20               10059c88 f   kernel32:KERNEL32.dll
 0001:00058c8e       _WriteFile@20              10059c8e f   kernel32:KERNEL32.dll
 0001:00058c94       _MapViewOfFile@20          10059c94 f   kernel32:KERNEL32.dll
 0001:00058c9a       _CreateFileMappingA@24     10059c9a f   kernel32:KERNEL32.dll
 0001:00058ca0       _UnmapViewOfFile@4         10059ca0 f   kernel32:KERNEL32.dll
 0001:00058ca6       _WideCharToMultiByte@32    10059ca6 f   kernel32:KERNEL32.dll
 0001:00058cac       _GetStringTypeA@20         10059cac f   kernel32:KERNEL32.dll
 0001:00058cb2       _GetStringTypeW@16         10059cb2 f   kernel32:KERNEL32.dll
 0001:00058cb8       _MultiByteToWideChar@24    10059cb8 f   kernel32:KERNEL32.dll
 0001:00058cbe       _GetVersionExA@4           10059cbe f   kernel32:KERNEL32.dll
 0001:00058cc4       _GetCPInfo@8               10059cc4 f   kernel32:KERNEL32.dll
 0001:00058cca       _GetLocaleInfoA@16         10059cca f   kernel32:KERNEL32.dll
 0001:00058cd0       _LCMapStringA@24           10059cd0 f   kernel32:KERNEL32.dll
 0001:00058cd6       _LCMapStringW@24           10059cd6 f   kernel32:KERNEL32.dll
 0001:00058cdc       _CompareStringA@24         10059cdc f   kernel32:KERNEL32.dll
 0001:00058ce2       _CompareStringW@24         10059ce2 f   kernel32:KERNEL32.dll
 0001:00058ce8       _lstrcmpiA@8               10059ce8 f   kernel32:KERNEL32.dll
 0001:00058cee       _EnumSystemLocalesA@8      10059cee f   kernel32:KERNEL32.dll
 0001:00058cf4       _GetTimeZoneInformation@4  10059cf4 f   kernel32:KERNEL32.dll
 0001:00058cfa       _RtlUnwind@16              10059cfa f   kernel32:KERNEL32.dll
 0001:00058d00       _RaiseException@16         10059d00 f   kernel32:KERNEL32.dll
 0001:00058d06       _GetCommandLineA@0         10059d06 f   kernel32:KERNEL32.dll
 0001:00058d0c       _GetVersion@0              10059d0c f   kernel32:KERNEL32.dll
 0001:00058d12       _HeapFree@12               10059d12 f   kernel32:KERNEL32.dll
 0001:00058d18       _HeapAlloc@12              10059d18 f   kernel32:KERNEL32.dll
 0001:00058d1e       _CreateThread@24           10059d1e f   kernel32:KERNEL32.dll
 0001:00058d24       _GetCurrentThreadId@0      10059d24 f   kernel32:KERNEL32.dll
 0001:00058d2a       _TlsSetValue@8             10059d2a f   kernel32:KERNEL32.dll
 0001:00058d30       _TlsGetValue@4             10059d30 f   kernel32:KERNEL32.dll
 0001:00058d36       _ExitThread@4              10059d36 f   kernel32:KERNEL32.dll
 0001:00058d3c       _HeapReAlloc@16            10059d3c f   kernel32:KERNEL32.dll
 0001:00058d42       _SetHandleCount@4          10059d42 f   kernel32:KERNEL32.dll
 0001:00058d48       _GetStdHandle@4            10059d48 f   kernel32:KERNEL32.dll
 0001:00058d4e       _GetStartupInfoA@4         10059d4e f   kernel32:KERNEL32.dll
 0001:00058d54       _SetStdHandle@8            10059d54 f   kernel32:KERNEL32.dll
 0001:00058d5a       _TlsAlloc@0                10059d5a f   kernel32:KERNEL32.dll
 0001:00058d60       _TlsFree@4                 10059d60 f   kernel32:KERNEL32.dll
 0001:00058d66       _GetCurrentThread@0        10059d66 f   kernel32:KERNEL32.dll
 0001:00058d6c       _ExitProcess@4             10059d6c f   kernel32:KERNEL32.dll
 0001:00058d72       _FatalAppExitA@8           10059d72 f   kernel32:KERNEL32.dll
 0001:00058d78       _SetUnhandledExceptionFilter@4 10059d78 f   kernel32:KERNEL32.dll
 0001:00058d7e       _TerminateProcess@8        10059d7e f   kernel32:KERNEL32.dll
 0001:00058d84       _GetCurrentProcess@0       10059d84 f   kernel32:KERNEL32.dll
 0001:00058d8a       _FreeEnvironmentStringsA@4 10059d8a f   kernel32:KERNEL32.dll
 0001:00058d90       _FreeEnvironmentStringsW@4 10059d90 f   kernel32:KERNEL32.dll
 0001:00058d96       _GetEnvironmentStrings@0   10059d96 f   kernel32:KERNEL32.dll
 0001:00058d9c       _GetEnvironmentStringsW@0  10059d9c f   kernel32:KERNEL32.dll
 0001:00058da2       _GetModuleHandleA@4        10059da2 f   kernel32:KERNEL32.dll
 0001:00058da8       _GetEnvironmentVariableA@12 10059da8 f   kernel32:KERNEL32.dll
 0001:00058dae       _HeapDestroy@4             10059dae f   kernel32:KERNEL32.dll
 0001:00058db4       _HeapCreate@12             10059db4 f   kernel32:KERNEL32.dll
 0001:00058dba       _VirtualFree@12            10059dba f   kernel32:KERNEL32.dll
 0001:00058dc0       _HeapSize@12               10059dc0 f   kernel32:KERNEL32.dll
 0001:00058dc6       _VirtualAlloc@16           10059dc6 f   kernel32:KERNEL32.dll
 0001:00058dcc       _IsBadWritePtr@8           10059dcc f   kernel32:KERNEL32.dll
 0001:00058dd2       _UnhandledExceptionFilter@4 10059dd2 f   kernel32:KERNEL32.dll
 0001:00058dd8       _SetConsoleCtrlHandler@8   10059dd8 f   kernel32:KERNEL32.dll
 0001:00058dde       _IsValidLocale@8           10059dde f   kernel32:KERNEL32.dll
 0001:00058de4       _IsValidCodePage@4         10059de4 f   kernel32:KERNEL32.dll
 0001:00058dea       _GetUserDefaultLCID@0      10059dea f   kernel32:KERNEL32.dll
 0001:00058df0       _GetProcAddress@8          10059df0 f   kernel32:KERNEL32.dll
 0001:00058df6       _FlushFileBuffers@4        10059df6 f   kernel32:KERNEL32.dll
 0001:00058dfc       _IsBadReadPtr@8            10059dfc f   kernel32:KERNEL32.dll
 0001:00058e02       _IsBadCodePtr@4            10059e02 f   kernel32:KERNEL32.dll
 0001:00058e08       _GetACP@0                  10059e08 f   kernel32:KERNEL32.dll
 0001:00058e0e       _GetOEMCP@0                10059e0e f   kernel32:KERNEL32.dll
 0001:00058e14       _LoadLibraryA@4            10059e14 f   kernel32:KERNEL32.dll
 0001:00058e1a       _GetLocaleInfoW@16         10059e1a f   kernel32:KERNEL32.dll
 0001:00058e20       _SetEnvironmentVariableA@8 10059e20 f   kernel32:KERNEL32.dll
 0001:00058e26       _MessageBoxA@16            10059e26 f   user32:USER32.dll
 0001:00058e2c       _MessageBeep@4             10059e2c f   user32:USER32.dll
 0001:00058e32       _wsprintfA                 10059e32 f   user32:USER32.dll
 0001:00058e38       _GetUserNameA@8            10059e38 f   advapi32:ADVAPI32.dll
 0001:00058e3e       __fstat                    10059e3e f   LIBCMT:fstat.obj
 0001:00058e3e       _fstat                     10059e3e f   LIBCMT:fstat.obj
 0001:000590d2       _FileTimeToSystemTime@8    1005a0d2 f   kernel32:KERNEL32.dll
 0001:000590d8       _FileTimeToLocalFileTime@8 1005a0d8 f   kernel32:KERNEL32.dll
 0001:000590de       _GetFileInformationByHandle@8 1005a0de f   kernel32:KERNEL32.dll
 0001:000590e4       _PeekNamedPipe@24          1005a0e4 f   kernel32:KERNEL32.dll
 0002:00000000       __imp__GetUserNameA@8      1005f000     advapi32:ADVAPI32.dll
 0002:00000004       \177ADVAPI32_NULL_THUNK_DATA 1005f004     advapi32:ADVAPI32.dll
 0002:00000008       __imp__LeaveCriticalSection@4 1005f008     kernel32:KERNEL32.dll
 0002:0000000c       __imp__EnterCriticalSection@4 1005f00c     kernel32:KERNEL32.dll
 0002:00000010       __imp__InterlockedIncrement@4 1005f010     kernel32:KERNEL32.dll
 0002:00000014       __imp__DeleteCriticalSection@4 1005f014     kernel32:KERNEL32.dll
 0002:00000018       __imp__GetFileInformationByHandle@8 1005f018     kernel32:KERNEL32.dll
 0002:0000001c       __imp__FileTimeToLocalFileTime@8 1005f01c     kernel32:KERNEL32.dll
 0002:00000020       __imp__FileTimeToSystemTime@8 1005f020     kernel32:KERNEL32.dll
 0002:00000024       __imp__InterlockedDecrement@4 1005f024     kernel32:KERNEL32.dll
 0002:00000028       __imp__InitializeCriticalSection@4 1005f028     kernel32:KERNEL32.dll
 0002:0000002c       __imp__SetEnvironmentVariableA@8 1005f02c     kernel32:KERNEL32.dll
 0002:00000030       __imp__GetLocaleInfoW@16   1005f030     kernel32:KERNEL32.dll
 0002:00000034       __imp__LoadLibraryA@4      1005f034     kernel32:KERNEL32.dll
 0002:00000038       __imp__GetOEMCP@0          1005f038     kernel32:KERNEL32.dll
 0002:0000003c       __imp__GetACP@0            1005f03c     kernel32:KERNEL32.dll
 0002:00000040       __imp__IsBadCodePtr@4      1005f040     kernel32:KERNEL32.dll
 0002:00000044       __imp__IsBadReadPtr@8      1005f044     kernel32:KERNEL32.dll
 0002:00000048       __imp__FlushFileBuffers@4  1005f048     kernel32:KERNEL32.dll
 0002:0000004c       __imp__GetProcAddress@8    1005f04c     kernel32:KERNEL32.dll
 0002:00000050       __imp__GetUserDefaultLCID@0 1005f050     kernel32:KERNEL32.dll
 0002:00000054       __imp__IsValidCodePage@4   1005f054     kernel32:KERNEL32.dll
 0002:00000058       __imp__IsValidLocale@8     1005f058     kernel32:KERNEL32.dll
 0002:0000005c       __imp__SetConsoleCtrlHandler@8 1005f05c     kernel32:KERNEL32.dll
 0002:00000060       __imp__UnhandledExceptionFilter@4 1005f060     kernel32:KERNEL32.dll
 0002:00000064       __imp__IsBadWritePtr@8     1005f064     kernel32:KERNEL32.dll
 0002:00000068       __imp__VirtualAlloc@16     1005f068     kernel32:KERNEL32.dll
 0002:0000006c       __imp__HeapSize@12         1005f06c     kernel32:KERNEL32.dll
 0002:00000070       __imp__VirtualFree@12      1005f070     kernel32:KERNEL32.dll
 0002:00000074       __imp__HeapCreate@12       1005f074     kernel32:KERNEL32.dll
 0002:00000078       __imp__HeapDestroy@4       1005f078     kernel32:KERNEL32.dll
 0002:0000007c       __imp__GetEnvironmentVariableA@12 1005f07c     kernel32:KERNEL32.dll
 0002:00000080       __imp__GetModuleHandleA@4  1005f080     kernel32:KERNEL32.dll
 0002:00000084       __imp__GetEnvironmentStringsW@0 1005f084     kernel32:KERNEL32.dll
 0002:00000088       __imp__GetEnvironmentStrings@0 1005f088     kernel32:KERNEL32.dll
 0002:0000008c       __imp__GetLastError@0      1005f08c     kernel32:KERNEL32.dll
 0002:00000090       __imp__WaitForMultipleObjects@16 1005f090     kernel32:KERNEL32.dll
 0002:00000094       __imp__FormatMessageA@28   1005f094     kernel32:KERNEL32.dll
 0002:00000098       __imp__GetCurrentDirectoryA@8 1005f098     kernel32:KERNEL32.dll
 0002:0000009c       __imp__GetModuleFileNameA@12 1005f09c     kernel32:KERNEL32.dll
 0002:000000a0       __imp__GetSystemTime@4     1005f0a0     kernel32:KERNEL32.dll
 0002:000000a4       __imp__GetLocalTime@4      1005f0a4     kernel32:KERNEL32.dll
 0002:000000a8       __imp__GetComputerNameA@8  1005f0a8     kernel32:KERNEL32.dll
 0002:000000ac       __imp__SetLastError@4      1005f0ac     kernel32:KERNEL32.dll
 0002:000000b0       __imp__CloseHandle@4       1005f0b0     kernel32:KERNEL32.dll
 0002:000000b4       __imp__WaitForSingleObject@8 1005f0b4     kernel32:KERNEL32.dll
 0002:000000b8       __imp__TerminateThread@8   1005f0b8     kernel32:KERNEL32.dll
 0002:000000bc       __imp__CreateEventA@16     1005f0bc     kernel32:KERNEL32.dll
 0002:000000c0       __imp__ResetEvent@4        1005f0c0     kernel32:KERNEL32.dll
 0002:000000c4       __imp__SetEvent@4          1005f0c4     kernel32:KERNEL32.dll
 0002:000000c8       __imp__PulseEvent@4        1005f0c8     kernel32:KERNEL32.dll
 0002:000000cc       __imp__Sleep@4             1005f0cc     kernel32:KERNEL32.dll
 0002:000000d0       __imp__InterlockedExchange@8 1005f0d0     kernel32:KERNEL32.dll
 0002:000000d4       __imp__OutputDebugStringA@4 1005f0d4     kernel32:KERNEL32.dll
 0002:000000d8       __imp__GetFileType@4       1005f0d8     kernel32:KERNEL32.dll
 0002:000000dc       __imp__GetFileSize@8       1005f0dc     kernel32:KERNEL32.dll
 0002:000000e0       __imp__GetSystemInfo@4     1005f0e0     kernel32:KERNEL32.dll
 0002:000000e4       __imp__SetFilePointer@16   1005f0e4     kernel32:KERNEL32.dll
 0002:000000e8       __imp__SetEndOfFile@4      1005f0e8     kernel32:KERNEL32.dll
 0002:000000ec       __imp__CreateFileA@28      1005f0ec     kernel32:KERNEL32.dll
 0002:000000f0       __imp__ReadFile@20         1005f0f0     kernel32:KERNEL32.dll
 0002:000000f4       __imp__WriteFile@20        1005f0f4     kernel32:KERNEL32.dll
 0002:000000f8       __imp__MapViewOfFile@20    1005f0f8     kernel32:KERNEL32.dll
 0002:000000fc       __imp__CreateFileMappingA@24 1005f0fc     kernel32:KERNEL32.dll
 0002:00000100       __imp__UnmapViewOfFile@4   1005f100     kernel32:KERNEL32.dll
 0002:00000104       __imp__WideCharToMultiByte@32 1005f104     kernel32:KERNEL32.dll
 0002:00000108       __imp__GetStringTypeA@20   1005f108     kernel32:KERNEL32.dll
 0002:0000010c       __imp__GetStringTypeW@16   1005f10c     kernel32:KERNEL32.dll
 0002:00000110       __imp__MultiByteToWideChar@24 1005f110     kernel32:KERNEL32.dll
 0002:00000114       __imp__GetVersionExA@4     1005f114     kernel32:KERNEL32.dll
 0002:00000118       __imp__GetCPInfo@8         1005f118     kernel32:KERNEL32.dll
 0002:0000011c       __imp__GetLocaleInfoA@16   1005f11c     kernel32:KERNEL32.dll
 0002:00000120       __imp__LCMapStringA@24     1005f120     kernel32:KERNEL32.dll
 0002:00000124       __imp__LCMapStringW@24     1005f124     kernel32:KERNEL32.dll
 0002:00000128       __imp__CompareStringA@24   1005f128     kernel32:KERNEL32.dll
 0002:0000012c       __imp__CompareStringW@24   1005f12c     kernel32:KERNEL32.dll
 0002:00000130       __imp__lstrcmpiA@8         1005f130     kernel32:KERNEL32.dll
 0002:00000134       __imp__EnumSystemLocalesA@8 1005f134     kernel32:KERNEL32.dll
 0002:00000138       __imp__GetTimeZoneInformation@4 1005f138     kernel32:KERNEL32.dll
 0002:0000013c       __imp__RtlUnwind@16        1005f13c     kernel32:KERNEL32.dll
 0002:00000140       __imp__RaiseException@16   1005f140     kernel32:KERNEL32.dll
 0002:00000144       __imp__GetCommandLineA@0   1005f144     kernel32:KERNEL32.dll
 0002:00000148       __imp__GetVersion@0        1005f148     kernel32:KERNEL32.dll
 0002:0000014c       __imp__HeapFree@12         1005f14c     kernel32:KERNEL32.dll
 0002:00000150       __imp__HeapAlloc@12        1005f150     kernel32:KERNEL32.dll
 0002:00000154       __imp__CreateThread@24     1005f154     kernel32:KERNEL32.dll
 0002:00000158       __imp__GetCurrentThreadId@0 1005f158     kernel32:KERNEL32.dll
 0002:0000015c       __imp__TlsSetValue@8       1005f15c     kernel32:KERNEL32.dll
 0002:00000160       __imp__TlsGetValue@4       1005f160     kernel32:KERNEL32.dll
 0002:00000164       __imp__ExitThread@4        1005f164     kernel32:KERNEL32.dll
 0002:00000168       __imp__HeapReAlloc@16      1005f168     kernel32:KERNEL32.dll
 0002:0000016c       __imp__SetHandleCount@4    1005f16c     kernel32:KERNEL32.dll
 0002:00000170       __imp__GetStdHandle@4      1005f170     kernel32:KERNEL32.dll
 0002:00000174       __imp__GetStartupInfoA@4   1005f174     kernel32:KERNEL32.dll
 0002:00000178       __imp__SetStdHandle@8      1005f178     kernel32:KERNEL32.dll
 0002:0000017c       __imp__TlsAlloc@0          1005f17c     kernel32:KERNEL32.dll
 0002:00000180       __imp__TlsFree@4           1005f180     kernel32:KERNEL32.dll
 0002:00000184       __imp__GetCurrentThread@0  1005f184     kernel32:KERNEL32.dll
 0002:00000188       __imp__ExitProcess@4       1005f188     kernel32:KERNEL32.dll
 0002:0000018c       __imp__FatalAppExitA@8     1005f18c     kernel32:KERNEL32.dll
 0002:00000190       __imp__SetUnhandledExceptionFilter@4 1005f190     kernel32:KERNEL32.dll
 0002:00000194       __imp__TerminateProcess@8  1005f194     kernel32:KERNEL32.dll
 0002:00000198       __imp__GetCurrentProcess@0 1005f198     kernel32:KERNEL32.dll
 0002:0000019c       __imp__FreeEnvironmentStringsA@4 1005f19c     kernel32:KERNEL32.dll
 0002:000001a0       __imp__FreeEnvironmentStringsW@4 1005f1a0     kernel32:KERNEL32.dll
 0002:000001a4       __imp__PeekNamedPipe@24    1005f1a4     kernel32:KERNEL32.dll
 0002:000001a8       \177KERNEL32_NULL_THUNK_DATA 1005f1a8     kernel32:KERNEL32.dll
 0002:000001ac       __imp__MessageBeep@4       1005f1ac     user32:USER32.dll
 0002:000001b0       __imp__wsprintfA           1005f1b0     user32:USER32.dll
 0002:000001b4       __imp__MessageBoxA@16      1005f1b4     user32:USER32.dll
 0002:000001b8       \177USER32_NULL_THUNK_DATA 1005f1b8     user32:USER32.dll
 0002:000001bc       __imp__VerQueryValueA@16   1005f1bc     Version:VERSION.dll
 0002:000001c0       __imp__GetFileVersionInfoA@16 1005f1c0     Version:VERSION.dll
 0002:000001c4       __imp__GetFileVersionInfoSizeA@8 1005f1c4     Version:VERSION.dll
 0002:000001c8       \177VERSION_NULL_THUNK_DATA 1005f1c8     Version:VERSION.dll
 0002:000001cc       __imp__bind@12             1005f1cc     ws2_32:WS2_32.dll
 0002:000001d0       __imp__listen@8            1005f1d0     ws2_32:WS2_32.dll
 0002:000001d4       __imp__shutdown@8          1005f1d4     ws2_32:WS2_32.dll
 0002:000001d8       __imp__WSACleanup@0        1005f1d8     ws2_32:WS2_32.dll
 0002:000001dc       __imp__WSAStartup@8        1005f1dc     ws2_32:WS2_32.dll
 0002:000001e0       __imp__WSACreateEvent@0    1005f1e0     ws2_32:WS2_32.dll
 0002:000001e4       __imp__WSAEventSelect@12   1005f1e4     ws2_32:WS2_32.dll
 0002:000001e8       __imp__WSACloseEvent@4     1005f1e8     ws2_32:WS2_32.dll
 0002:000001ec       __imp__connect@12          1005f1ec     ws2_32:WS2_32.dll
 0002:000001f0       __imp__gethostbyname@4     1005f1f0     ws2_32:WS2_32.dll
 0002:000001f4       __imp__recv@16             1005f1f4     ws2_32:WS2_32.dll
 0002:000001f8       __imp__WSASend@28          1005f1f8     ws2_32:WS2_32.dll
 0002:000001fc       __imp__select@20           1005f1fc     ws2_32:WS2_32.dll
 0002:00000200       __imp__WSARecv@28          1005f200     ws2_32:WS2_32.dll
 0002:00000204       __imp__WSAWaitForMultipleEvents@20 1005f204     ws2_32:WS2_32.dll
 0002:00000208       __imp__htonl@4             1005f208     ws2_32:WS2_32.dll
 0002:0000020c       __imp__htons@4             1005f20c     ws2_32:WS2_32.dll
 0002:00000210       __imp__inet_addr@4         1005f210     ws2_32:WS2_32.dll
 0002:00000214       __imp__WSAEnumNetworkEvents@12 1005f214     ws2_32:WS2_32.dll
 0002:00000218       __imp__WSASocketA@24       1005f218     ws2_32:WS2_32.dll
 0002:0000021c       __imp__setsockopt@20       1005f21c     ws2_32:WS2_32.dll
 0002:00000220       __imp__WSAGetLastError@0   1005f220     ws2_32:WS2_32.dll
 0002:00000224       __imp__closesocket@4       1005f224     ws2_32:WS2_32.dll
 0002:00000228       __imp__gethostname@8       1005f228     ws2_32:WS2_32.dll
 0002:0000022c       \177WS2_32_NULL_THUNK_DATA 1005f22c     ws2_32:WS2_32.dll
 0002:00000250       _IID_IESClient             1005f250     IClient.obj
 0002:00000260       _IID_IClientFactory        1005f260     IClient.obj
 0002:00000270       _IID_IDocHostUIHandlerDispatch 1005f270     ClientStage.obj
 0002:00000280       _IID_IInternalConnection   1005f280     ClientStage.obj
 0002:00000290       _IID_IAxWinAmbientDispatch 1005f290     ClientStage.obj
 0002:000002a0       _IID_IAxWinHostWindow      1005f2a0     ClientStage.obj
 0002:000002b0       _IID_IRegistrar            1005f2b0     ClientStage.obj
 0002:000002c0       _CLSID_Registrar           1005f2c0     ClientStage.obj
 0002:000002d0       _LIBID_ATLLib              1005f2d0     ClientStage.obj
 0002:000002e0       ??_7CGameClient@@6BAllocator@CIOBuffer@Win32@OnlineGameLib@@@ 1005f2e0     ClientStage.obj
 0002:000002f0       ??_7CGameClient@@6BCThread@Win32@OnlineGameLib@@@ 1005f2f0     ClientStage.obj
 0002:00000320       ??_7CGameClient@@6B@       1005f320     ClientStage.obj
 0002:00000348       ??_7IClient@@6B@           1005f348     ClientStage.obj
 0002:00000370       ??_7CClientFactory@@6B@    1005f370     ClientStage.obj
 0002:00000388       _IID_IUnknown              1005f388     uuid:unknwn_i_guid0.obj
 0002:00000398       ??_7CSocketClient@Win32@OnlineGameLib@@6BAllocator@CIOBuffer@12@@ 1005f398     common:SocketClient.obj
 0002:000003a8       ??_7CSocketClient@Win32@OnlineGameLib@@6BCThread@12@@ 1005f3a8     common:SocketClient.obj
 0002:000003d8       ??_7CException@Win32@OnlineGameLib@@6B@ 1005f3d8     common:SocketClient.obj
 0002:000003e4       ??_7CWin32Exception@Win32@OnlineGameLib@@6B@ 1005f3e4     common:SocketClient.obj
 0002:000003f0       ??_7Allocator@CIOBuffer@Win32@OnlineGameLib@@6B@ 1005f3f0     common:IOBuffer.obj
 0002:00000400       ??_8?$basic_fstream@DV?$char_traits@D@_STL@@@_STL@@7B?$basic_ostream@DV?$char_traits@D@_STL@@@1@@ 1005f400     common:Utils.obj
 0002:00000408       ??_8?$basic_fstream@DV?$char_traits@D@_STL@@@_STL@@7B?$basic_istream@DV?$char_traits@D@_STL@@@1@@ 1005f408     common:Utils.obj
 0002:00000410       ??_8?$basic_ostream@DV?$char_traits@D@_STL@@@_STL@@7B@ 1005f410     common:Utils.obj
 0002:00000418       ??_7CThread@Win32@OnlineGameLib@@6B@ 1005f418     common:Thread.obj
 0002:00000420       ??_7CManualResetEvent@Win32@OnlineGameLib@@6B@ 1005f420     common:ManualResetEvent.obj
 0002:00000424       ??_7CEvent@Win32@OnlineGameLib@@6B@ 1005f424     common:Event.obj
 0002:00000428       ??_7Exception@CSocket@Win32@OnlineGameLib@@6B@ 1005f428     common:Socket.obj
 0002:00000438       ??_7range_error@_STL@@6B@  1005f438     stlport_vc6_static:dll_main.obj
 0002:00000444       ??_7runtime_error@_STL@@6B@ 1005f444     stlport_vc6_static:dll_main.obj
 0002:00000450       ??_7__Named_exception@_STL@@6B@ 1005f450     stlport_vc6_static:dll_main.obj
 0002:0000045c       ??_7out_of_range@_STL@@6B@ 1005f45c     stlport_vc6_static:dll_main.obj
 0002:00000468       ??_7logic_error@_STL@@6B@  1005f468     stlport_vc6_static:dll_main.obj
 0002:00000474       ??_7length_error@_STL@@6B@ 1005f474     stlport_vc6_static:dll_main.obj
 0002:00000480       ??_7invalid_argument@_STL@@6B@ 1005f480     stlport_vc6_static:dll_main.obj
 0002:0000048c       ??_7overflow_error@_STL@@6B@ 1005f48c     stlport_vc6_static:dll_main.obj
 0002:00000498       ??_7domain_error@_STL@@6B@ 1005f498     stlport_vc6_static:dll_main.obj
 0002:000004a4       ??_7underflow_error@_STL@@6B@ 1005f4a4     stlport_vc6_static:dll_main.obj
 0002:000004b0       ??_7bad_alloc@std@@6B@     1005f4b0     stlport_vc6_static:dll_main.obj
 0002:000004c0       ??_7_Locale_impl@_STL@@6B@ 1005f4c0     stlport_vc6_static:locale_impl.obj
 0002:000004d0       ??_7bad_cast@@6B@          1005f4d0     stlport_vc6_static:locale_impl.obj
 0002:000004dc       ??_7?$money_put@GV?$ostreambuf_iterator@GV?$char_traits@G@_STL@@@_STL@@@_STL@@6B@ 1005f4dc     stlport_vc6_static:locale_impl.obj
 0002:000004ec       ??_7?$money_get@GV?$istreambuf_iterator@GV?$char_traits@G@_STL@@@_STL@@@_STL@@6B@ 1005f4ec     stlport_vc6_static:locale_impl.obj
 0002:000004fc       ??_7?$time_put@GV?$ostreambuf_iterator@GV?$char_traits@G@_STL@@@_STL@@@_STL@@6B@ 1005f4fc     stlport_vc6_static:locale_impl.obj
 0002:00000508       ??_7?$time_get@GV?$istreambuf_iterator@GV?$char_traits@G@_STL@@@_STL@@@_STL@@6B@ 1005f508     stlport_vc6_static:locale_impl.obj
 0002:00000528       ??_7?$num_put@GV?$ostreambuf_iterator@GV?$char_traits@G@_STL@@@_STL@@@_STL@@6B@ 1005f528     stlport_vc6_static:locale_impl.obj
 0002:00000550       ??_7?$num_get@GV?$istreambuf_iterator@GV?$char_traits@G@_STL@@@_STL@@@_STL@@6B@ 1005f550     stlport_vc6_static:locale_impl.obj
 0002:00000584       ??_7?$numpunct@G@_STL@@6B@ 1005f584     stlport_vc6_static:locale_impl.obj
 0002:000005a0       ??_7?$codecvt@GDH@_STL@@6B@ 1005f5a0     stlport_vc6_static:locale_impl.obj
 0002:000005c4       ??_7?$collate@G@_STL@@6B@  1005f5c4     stlport_vc6_static:locale_impl.obj
 0002:000005d8       ??_7?$ctype@G@_STL@@6B@    1005f5d8     stlport_vc6_static:locale_impl.obj
 0002:00000610       ??_7?$money_put@DV?$ostreambuf_iterator@DV?$char_traits@D@_STL@@@_STL@@@_STL@@6B@ 1005f610     stlport_vc6_static:locale_impl.obj
 0002:00000620       ??_7?$money_get@DV?$istreambuf_iterator@DV?$char_traits@D@_STL@@@_STL@@@_STL@@6B@ 1005f620     stlport_vc6_static:locale_impl.obj
 0002:00000630       ??_7?$time_put@DV?$ostreambuf_iterator@DV?$char_traits@D@_STL@@@_STL@@@_STL@@6B@ 1005f630     stlport_vc6_static:locale_impl.obj
 0002:0000063c       ??_7?$time_get@DV?$istreambuf_iterator@DV?$char_traits@D@_STL@@@_STL@@@_STL@@6B@ 1005f63c     stlport_vc6_static:locale_impl.obj
 0002:0000065c       ??_7facet@locale@_STL@@6B@ 1005f65c     stlport_vc6_static:locale_impl.obj
 0002:00000664       ??_7?$num_put@DV?$ostreambuf_iterator@DV?$char_traits@D@_STL@@@_STL@@@_STL@@6B@ 1005f664     stlport_vc6_static:locale_impl.obj
 0002:0000068c       ??_7?$num_get@DV?$istreambuf_iterator@DV?$char_traits@D@_STL@@@_STL@@@_STL@@6B@ 1005f68c     stlport_vc6_static:locale_impl.obj
 0002:000006c0       ??_7?$numpunct@D@_STL@@6B@ 1005f6c0     stlport_vc6_static:locale_impl.obj
 0002:000006dc       ??_7?$codecvt@DDH@_STL@@6B@ 1005f6dc     stlport_vc6_static:locale_impl.obj
 0002:00000700       ??_7?$collate@D@_STL@@6B@  1005f700     stlport_vc6_static:locale_impl.obj
 0002:00000710       __real@8@43fefffffffffffff800 1005f710     stlport_vc6_static:locale_impl.obj
 0002:00000718       __real@8@00000000000000000000 1005f718     stlport_vc6_static:locale_impl.obj
 0002:00000724       ??_7?$basic_istream@DV?$char_traits@D@_STL@@@_STL@@6B@ 1005f724     stlport_vc6_static:iostream.obj
 0002:0000072c       ??_7?$basic_ostream@DV?$char_traits@D@_STL@@@_STL@@6B@ 1005f72c     stlport_vc6_static:iostream.obj
 0002:00000734       ??_7?$basic_istream@GV?$char_traits@G@_STL@@@_STL@@6B@ 1005f734     stlport_vc6_static:iostream.obj
 0002:0000073c       ??_7?$basic_ostream@GV?$char_traits@G@_STL@@@_STL@@6B@ 1005f73c     stlport_vc6_static:iostream.obj
 0002:00000744       ??_7?$basic_filebuf@DV?$char_traits@D@_STL@@@_STL@@6B@ 1005f744     stlport_vc6_static:iostream.obj
 0002:00000780       ??_7?$basic_streambuf@DV?$char_traits@D@_STL@@@_STL@@6B@ 1005f780     stlport_vc6_static:iostream.obj
 0002:000007bc       ??_7?$basic_filebuf@GV?$char_traits@G@_STL@@@_STL@@6B@ 1005f7bc     stlport_vc6_static:iostream.obj
 0002:000007f8       ??_7?$basic_streambuf@GV?$char_traits@G@_STL@@@_STL@@6B@ 1005f7f8     stlport_vc6_static:iostream.obj
 0002:00000834       ??_7stdio_ostreambuf@_SgI@@6B@ 1005f834     stlport_vc6_static:iostream.obj
 0002:00000870       ??_7stdio_istreambuf@_SgI@@6B@ 1005f870     stlport_vc6_static:iostream.obj
 0002:000008a8       ??_8?$basic_istream@DV?$char_traits@D@_STL@@@_STL@@7B@ 1005f8a8     stlport_vc6_static:iostream.obj
 0002:000008b4       ??_7?$basic_ios@DV?$char_traits@D@_STL@@@_STL@@6B@ 1005f8b4     stlport_vc6_static:iostream.obj
 0002:000008bc       ??_7?$basic_ios@GV?$char_traits@G@_STL@@@_STL@@6B@ 1005f8bc     stlport_vc6_static:iostream.obj
 0002:000008c0       ??_8?$basic_istream@GV?$char_traits@G@_STL@@@_STL@@7B@ 1005f8c0     stlport_vc6_static:iostream.obj
 0002:000008c8       ??_8?$basic_ostream@GV?$char_traits@G@_STL@@@_STL@@7B@ 1005f8c8     stlport_vc6_static:iostream.obj
 0002:000008d4       ??_7failure@ios_base@_STL@@6B@ 1005f8d4     stlport_vc6_static:ios.obj
 0002:000008e0       ??_7ios_base@_STL@@6B@     1005f8e0     stlport_vc6_static:ios.obj
 0002:000008e8       ??_7?$basic_ifstream@DV?$char_traits@D@_STL@@@_STL@@6B@ 1005f8e8     stlport_vc6_static:fstream.obj
 0002:000008ec       ??_8?$basic_ifstream@DV?$char_traits@D@_STL@@@_STL@@7B@ 1005f8ec     stlport_vc6_static:fstream.obj
 0002:000008f8       ??_7?$basic_ofstream@DV?$char_traits@D@_STL@@@_STL@@6B@ 1005f8f8     stlport_vc6_static:fstream.obj
 0002:000008fc       ??_8?$basic_ofstream@DV?$char_traits@D@_STL@@@_STL@@7B@ 1005f8fc     stlport_vc6_static:fstream.obj
 0002:00000908       ??_7?$basic_fstream@DV?$char_traits@D@_STL@@@_STL@@6B@ 1005f908     stlport_vc6_static:fstream.obj
 0002:00000910       ??_7?$basic_iostream@DV?$char_traits@D@_STL@@@_STL@@6B@ 1005f910     stlport_vc6_static:fstream.obj
 0002:00000918       ??_7?$basic_ifstream@GV?$char_traits@G@_STL@@@_STL@@6B@ 1005f918     stlport_vc6_static:fstream.obj
 0002:0000091c       ??_8?$basic_ifstream@GV?$char_traits@G@_STL@@@_STL@@7B@ 1005f91c     stlport_vc6_static:fstream.obj
 0002:00000928       ??_7?$basic_ofstream@GV?$char_traits@G@_STL@@@_STL@@6B@ 1005f928     stlport_vc6_static:fstream.obj
 0002:0000092c       ??_8?$basic_ofstream@GV?$char_traits@G@_STL@@@_STL@@7B@ 1005f92c     stlport_vc6_static:fstream.obj
 0002:00000938       ??_7?$basic_fstream@GV?$char_traits@G@_STL@@@_STL@@6B@ 1005f938     stlport_vc6_static:fstream.obj
 0002:00000940       ??_7?$basic_iostream@GV?$char_traits@G@_STL@@@_STL@@6B@ 1005f940     stlport_vc6_static:fstream.obj
 0002:00000944       ??_8?$basic_fstream@GV?$char_traits@G@_STL@@@_STL@@7B?$basic_ostream@GV?$char_traits@G@_STL@@@1@@ 1005f944     stlport_vc6_static:fstream.obj
 0002:0000094c       ??_8?$basic_fstream@GV?$char_traits@G@_STL@@@_STL@@7B?$basic_istream@GV?$char_traits@G@_STL@@@1@@ 1005f94c     stlport_vc6_static:fstream.obj
 0002:00000958       ??_7?$messages@D@_STL@@6B@ 1005f958     stlport_vc6_static:messages.obj
 0002:0000096c       ??_7_Messages@_STL@@6B@    1005f96c     stlport_vc6_static:messages.obj
 0002:00000984       ??_7?$messages@G@_STL@@6B@ 1005f984     stlport_vc6_static:messages.obj
 0002:00000994       ?_S_classic_table@?$ctype@D@_STL@@0QBW4mask@ctype_base@2@B 1005f994     stlport_vc6_static:ctype.obj
 0002:00000d98       ?_S_upper@?$ctype@D@_STL@@0QBEB 1005fd98     stlport_vc6_static:ctype.obj
 0002:00000e98       ?_S_lower@?$ctype@D@_STL@@0QBEB 1005fe98     stlport_vc6_static:ctype.obj
 0002:00000f9c       ??_7?$ctype@D@_STL@@6B@    1005ff9c     stlport_vc6_static:ctype.obj
 0002:00000fc4       ??_7?$moneypunct@D$00@_STL@@6B@ 1005ffc4     stlport_vc6_static:monetary.obj
 0002:00000ff0       ??_7?$moneypunct@D$0A@@_STL@@6B@ 1005fff0     stlport_vc6_static:monetary.obj
 0002:0000101c       ??_7?$moneypunct@G$00@_STL@@6B@ 1006001c     stlport_vc6_static:monetary.obj
 0002:00001048       ??_7?$moneypunct@G$0A@@_STL@@6B@ 10060048     stlport_vc6_static:monetary.obj
 0002:00001374       ?__digit_val_table@_STL@@3QBEB 10060374     stlport_vc6_static:num_get.obj
 0002:000013f4       ?__narrow_atoms@_STL@@3QBDB 100603f4     stlport_vc6_static:num_get.obj
 0002:000013fc       ?__hex_char_table_lo@_STL@@3QBDB 100603fc     stlport_vc6_static:num_put.obj
 0002:00001410       ?__hex_char_table_hi@_STL@@3QBDB 10060410     stlport_vc6_static:num_put.obj
 0002:00001748       ?_D_inf@?$_LimG@_N@_STL@@2T_D_rep@2@B 10060748     stlport_vc6_static:num_get_float.obj
 0002:00001750       ?_L_inf@?$_LimG@_N@_STL@@2T_L_rep@2@B 10060750     stlport_vc6_static:num_get_float.obj
 0002:00001764       ??_7stdio_streambuf_base@_SgI@@6B@ 10060764     stlport_vc6_static:stdio_streambuf.obj
 0002:000017a0       ??_7type_info@@6B@         100607a0     LIBCMT:typinfo.obj
 0002:00001808       ??_7exception@@6B@         10060808     LIBCMT:stdexcpt.obj
 0002:00001810       ??_C@_0BC@OIDF@Unknown?5exception?$AA@ 10060810     LIBCMT:stdexcpt.obj
 0002:00001824       ??_C@_02BGDO@?$DN?$DL?$AA@ 10060824     LIBCMT:setlocal.obj
 0002:00001828       ??_C@_01KPOD@?$DN?$AA@     10060828     LIBCMT:setlocal.obj
 0002:00001878       __real@8@3fff8000000000000000 10060878     LIBCMT:ieeemisc.obj
 0002:000018f8       ??_C@_0BH@PHHF@__GLOBAL_HEAP_SELECTED?$AA@ 100608f8     LIBCMT:heapinit.obj
 0002:00001910       ??_C@_0BF@BBGL@__MSVCRT_HEAP_SELECT?$AA@ 10060910     LIBCMT:heapinit.obj
 0002:00001928       ??_C@_0P@GGKG@runtime?5error?5?$AA@ 10060928     LIBCMT:crt0msg.obj
 0002:00001938       ??_C@_02PIMC@?$AN?6?$AA@   10060938     LIBCMT:crt0msg.obj
 0002:0000193c       ??_C@_0O@DELO@TLOSS?5error?$AN?6?$AA@ 1006093c     LIBCMT:crt0msg.obj
 0002:0000194c       ??_C@_0N@OMLL@SING?5error?$AN?6?$AA@ 1006094c     LIBCMT:crt0msg.obj
 0002:0000195c       ??_C@_0P@OJAK@DOMAIN?5error?$AN?6?$AA@ 1006095c     LIBCMT:crt0msg.obj
 0002:0000196c       ??_C@_0CF@EANP@R6028?$AN?6?9?5unable?5to?5initialize?5he@ 1006096c     LIBCMT:crt0msg.obj
 0002:00001994       ??_C@_0DF@ECGN@R6027?$AN?6?9?5not?5enough?5space?5for?5lo@ 10060994     LIBCMT:crt0msg.obj
 0002:000019cc       ??_C@_0DF@FKAC@R6026?$AN?6?9?5not?5enough?5space?5for?5st@ 100609cc     LIBCMT:crt0msg.obj
 0002:00001a04       ??_C@_0CG@DPMN@R6025?$AN?6?9?5pure?5virtual?5function?5c@ 10060a04     LIBCMT:crt0msg.obj
 0002:00001a2c       ??_C@_0DF@CKIP@R6024?$AN?6?9?5not?5enough?5space?5for?5_o@ 10060a2c     LIBCMT:crt0msg.obj
 0002:00001a64       ??_C@_0CJ@GGOE@R6019?$AN?6?9?5unable?5to?5open?5console?5@ 10060a64     LIBCMT:crt0msg.obj
 0002:00001a90       ??_C@_0CB@LBOB@R6018?$AN?6?9?5unexpected?5heap?5error?$AN?6@ 10060a90     LIBCMT:crt0msg.obj
 0002:00001ab4       ??_C@_0CN@FPEG@R6017?$AN?6?9?5unexpected?5multithread?5@ 10060ab4     LIBCMT:crt0msg.obj
 0002:00001ae4       ??_C@_0CM@OBIC@R6016?$AN?6?9?5not?5enough?5space?5for?5th@ 10060ae4     LIBCMT:crt0msg.obj
 0002:00001b10       ??_C@_0CB@HPAL@?$AN?6abnormal?5program?5termination?$AN?6@ 10060b10     LIBCMT:crt0msg.obj
 0002:00001b34       ??_C@_0CM@JOOB@R6009?$AN?6?9?5not?5enough?5space?5for?5en@ 10060b34     LIBCMT:crt0msg.obj
 0002:00001b60       ??_C@_0CK@OIBL@R6008?$AN?6?9?5not?5enough?5space?5for?5ar@ 10060b60     LIBCMT:crt0msg.obj
 0002:00001b8c       ??_C@_0CF@LKPB@R6002?$AN?6?9?5floating?5point?5not?5load@ 10060b8c     LIBCMT:crt0msg.obj
 0002:00001bb4       ??_C@_0CF@JPDF@Microsoft?5Visual?5C?$CL?$CL?5Runtime?5Lib@ 10060bb4     LIBCMT:crt0msg.obj
 0002:00001bdc       ??_C@_02JJJH@?6?6?$AA@     10060bdc     LIBCMT:crt0msg.obj
 0002:00001be0       ??_C@_0BK@DEOK@Runtime?5Error?$CB?6?6Program?3?5?$AA@ 10060be0     LIBCMT:crt0msg.obj
 0002:00001bfc       ??_C@_03NAME@?4?4?4?$AA@   10060bfc     LIBCMT:crt0msg.obj
 0002:00001c00       ??_C@_0BH@NNCD@?$DMprogram?5name?5unknown?$DO?$AA@ 10060c00     LIBCMT:crt0msg.obj
 0002:00001c30       ??_C@_01A@?$AA?$AA@        10060c30     LIBCMT:a_map.obj
 0002:00001c34       ??_C@_13A@?$AA?$AA?$AA?$AA@ 10060c34     LIBCMT:a_map.obj
 0002:00001c50       ___lookuptable             10060c50     LIBCMT:output.obj
 0002:00001cac       ??_C@_1O@POHA@?$AA?$CI?$AAn?$AAu?$AAl?$AAl?$AA?$CJ?$AA?$AA@ 10060cac     LIBCMT:output.obj
 0002:00001cbc       ??_C@_06ONKE@?$CInull?$CJ?$AA@ 10060cbc     LIBCMT:output.obj
 0002:00001ce0       ??_C@_08OBJD@Paraguay?$AA@ 10060ce0     LIBCMT:getqloc.obj
 0002:00001cec       ??_C@_07GLKH@Uruguay?$AA@  10060cec     LIBCMT:getqloc.obj
 0002:00001cf4       ??_C@_05FPFC@Chile?$AA@    10060cf4     LIBCMT:getqloc.obj
 0002:00001cfc       ??_C@_07IIGF@Ecuador?$AA@  10060cfc     LIBCMT:getqloc.obj
 0002:00001d04       ??_C@_09PKAL@Argentina?$AA@ 10060d04     LIBCMT:getqloc.obj
 0002:00001d10       ??_C@_04LKAH@Peru?$AA@     10060d10     LIBCMT:getqloc.obj
 0002:00001d18       ??_C@_08NEEM@Colombia?$AA@ 10060d18     LIBCMT:getqloc.obj
 0002:00001d24       ??_C@_09ODEB@Venezuela?$AA@ 10060d24     LIBCMT:getqloc.obj
 0002:00001d30       ??_C@_0BD@CLEL@Dominican?5Republic?$AA@ 10060d30     LIBCMT:getqloc.obj
 0002:00001d44       ??_C@_0N@MDGL@South?5Africa?$AA@ 10060d44     LIBCMT:getqloc.obj
 0002:00001d54       ??_C@_06NKBG@Panama?$AA@   10060d54     LIBCMT:getqloc.obj
 0002:00001d5c       ??_C@_0L@BMHO@Luxembourg?$AA@ 10060d5c     LIBCMT:getqloc.obj
 0002:00001d68       ??_C@_0L@IMDK@Costa?5Rica?$AA@ 10060d68     LIBCMT:getqloc.obj
 0002:00001d74       ??_C@_0M@BLJF@Switzerland?$AA@ 10060d74     LIBCMT:getqloc.obj
 0002:00001d80       ??_C@_09KBOL@Guatemala?$AA@ 10060d80     LIBCMT:getqloc.obj
 0002:00001d8c       ??_C@_06JNAK@Canada?$AA@   10060d8c     LIBCMT:getqloc.obj
 0002:00001d94       ??_C@_0BG@OLLP@Spanish?5?9?5Modern?5Sort?$AA@ 10060d94     LIBCMT:getqloc.obj
 0002:00001dac       ??_C@_09IDKE@Australia?$AA@ 10060dac     LIBCMT:getqloc.obj
 0002:00001db8       ??_C@_07JJJJ@English?$AA@  10060db8     LIBCMT:getqloc.obj
 0002:00001dc0       ??_C@_07NMDO@Austria?$AA@  10060dc0     LIBCMT:getqloc.obj
 0002:00001dc8       ??_C@_06DEFE@German?$AA@   10060dc8     LIBCMT:getqloc.obj
 0002:00001dd0       ??_C@_07JAIH@Belgium?$AA@  10060dd0     LIBCMT:getqloc.obj
 0002:00001dd8       ??_C@_06BNLJ@Mexico?$AA@   10060dd8     LIBCMT:getqloc.obj
 0002:00001de0       ??_C@_07JHAG@Spanish?$AA@  10060de0     LIBCMT:getqloc.obj
 0002:00001de8       ??_C@_06DADE@Basque?$AA@   10060de8     LIBCMT:getqloc.obj
 0002:00001df0       ??_C@_06ENFP@Sweden?$AA@   10060df0     LIBCMT:getqloc.obj
 0002:00001df8       ??_C@_07JPMH@Swedish?$AA@  10060df8     LIBCMT:getqloc.obj
 0002:00001e00       ??_C@_07IEKF@Iceland?$AA@  10060e00     LIBCMT:getqloc.obj
 0002:00001e08       ??_C@_09KNEA@Icelandic?$AA@ 10060e08     LIBCMT:getqloc.obj
 0002:00001e14       ??_C@_06IJOD@France?$AA@   10060e14     LIBCMT:getqloc.obj
 0002:00001e1c       ??_C@_06EINI@French?$AA@   10060e1c     LIBCMT:getqloc.obj
 0002:00001e24       ??_C@_07FOOE@Finland?$AA@  10060e24     LIBCMT:getqloc.obj
 0002:00001e2c       ??_C@_07OJOM@Finnish?$AA@  10060e2c     LIBCMT:getqloc.obj
 0002:00001e34       ??_C@_05FFAC@Spain?$AA@    10060e34     LIBCMT:getqloc.obj
 0002:00001e3c       ??_C@_0BL@BIHM@Spanish?5?9?5Traditional?5Sort?$AA@ 10060e3c     LIBCMT:getqloc.obj
 0002:00001e58       __real@8@4015800bf60000000000 10060e58     LIBCMT:testfdiv.obj
 0002:00001e60       __real@8@4014bffffc0000000000 10060e60     LIBCMT:testfdiv.obj
 0002:00001e68       ??_C@_0BK@JEGK@IsProcessorFeaturePresent?$AA@ 10060e68     LIBCMT:testfdiv.obj
 0002:00001e84       ??_C@_08OBID@KERNEL32?$AA@ 10060e84     LIBCMT:testfdiv.obj
 0002:00001e90       ??_C@_05OFLO@e?$CL000?$AA@ 10060e90     LIBCMT:cvt.obj
 0002:00001e98       ??_C@_03GAFO@_yn?$AA@      10060e98     LIBCMT:fpexcept.obj
 0002:00001e9c       ??_C@_03GNLD@_y1?$AA@      10060e9c     LIBCMT:fpexcept.obj
 0002:00001ea0       ??_C@_03MHCE@_y0?$AA@      10060ea0     LIBCMT:fpexcept.obj
 0002:00001ea4       ??_C@_05PAK@frexp?$AA@     10060ea4     LIBCMT:fpexcept.obj
 0002:00001eac       ??_C@_04JKCH@fmod?$AA@     10060eac     LIBCMT:fpexcept.obj
 0002:00001eb4       ??_C@_06GGHF@_hypot?$AA@   10060eb4     LIBCMT:fpexcept.obj
 0002:00001ebc       ??_C@_05JNMC@_cabs?$AA@    10060ebc     LIBCMT:fpexcept.obj
 0002:00001ec4       ??_C@_05MEKH@ldexp?$AA@    10060ec4     LIBCMT:fpexcept.obj
 0002:00001ecc       ??_C@_04KAOJ@modf?$AA@     10060ecc     LIBCMT:fpexcept.obj
 0002:00001ed4       ??_C@_04EHAJ@fabs?$AA@     10060ed4     LIBCMT:fpexcept.obj
 0002:00001edc       ??_C@_05MFBN@floor?$AA@    10060edc     LIBCMT:fpexcept.obj
 0002:00001ee4       ??_C@_04JJMP@ceil?$AA@     10060ee4     LIBCMT:fpexcept.obj
 0002:00001eec       ??_C@_03JLPI@tan?$AA@      10060eec     LIBCMT:fpexcept.obj
 0002:00001ef0       ??_C@_03DLFL@cos?$AA@      10060ef0     LIBCMT:fpexcept.obj
 0002:00001ef4       ??_C@_03JAMN@sin?$AA@      10060ef4     LIBCMT:fpexcept.obj
 0002:00001ef8       ??_C@_04LMBE@sqrt?$AA@     10060ef8     LIBCMT:fpexcept.obj
 0002:00001f00       ??_C@_05BFPO@atan2?$AA@    10060f00     LIBCMT:fpexcept.obj
 0002:00001f08       ??_C@_04EAGN@atan?$AA@     10060f08     LIBCMT:fpexcept.obj
 0002:00001f10       ??_C@_04OAMO@acos?$AA@     10060f10     LIBCMT:fpexcept.obj
 0002:00001f18       ??_C@_04ELFI@asin?$AA@     10060f18     LIBCMT:fpexcept.obj
 0002:00001f20       ??_C@_04LFAD@tanh?$AA@     10060f20     LIBCMT:fpexcept.obj
 0002:00001f28       ??_C@_04PFKD@cosh?$AA@     10060f28     LIBCMT:fpexcept.obj
 0002:00001f30       ??_C@_04NPAI@sinh?$AA@     10060f30     LIBCMT:fpexcept.obj
 0002:00001f38       ??_C@_05IJHH@log10?$AA@    10060f38     LIBCMT:fpexcept.obj
 0002:00001f40       ??_C@_03BGKD@log?$AA@      10060f40     LIBCMT:fpexcept.obj
 0002:00001f44       ??_C@_03EGFG@pow?$AA@      10060f44     LIBCMT:fpexcept.obj
 0002:00001f48       ??_C@_03CDGJ@exp?$AA@      10060f48     LIBCMT:fpexcept.obj
 0002:00001f4c       ___dnames                  10060f4c     LIBCMT:timeset.obj
 0002:00001f64       ___mnames                  10060f64     LIBCMT:timeset.obj
 0002:00001f8c       ??_C@_02JHIA@TZ?$AA@       10060f8c     LIBCMT:tzset.obj
 0002:00001f90       ??_C@_0BD@NJFP@GetLastActivePopup?$AA@ 10060f90     LIBCMT:crtmbox.obj
 0002:00001fa4       ??_C@_0BA@GILI@GetActiveWindow?$AA@ 10060fa4     LIBCMT:crtmbox.obj
 0002:00001fb4       ??_C@_0M@PKCK@MessageBoxA?$AA@ 10060fb4     LIBCMT:crtmbox.obj
 0002:00001fc0       ??_C@_0L@HKL@user32?4dll?$AA@ 10060fc0     LIBCMT:crtmbox.obj
 0002:00001fdc       ??_C@_07CJME@H?3mm?3ss?$AA@ 10060fdc     LIBCMT:strftime.obj
 0002:00001fe4       ??_C@_0BE@MHI@dddd?0?5MMMM?5dd?0?5yyyy?$AA@ 10060fe4     LIBCMT:strftime.obj
 0002:00001ff8       ??_C@_06HCAD@M?1d?1yy?$AA@ 10060ff8     LIBCMT:strftime.obj
 0002:00002000       ??_C@_08LIDF@December?$AA@ 10061000     LIBCMT:strftime.obj
 0002:0000200c       ??_C@_08NJLI@November?$AA@ 1006100c     LIBCMT:strftime.obj
 0002:00002018       ??_C@_07IAMM@October?$AA@  10061018     LIBCMT:strftime.obj
 0002:00002020       ??_C@_09MKGD@September?$AA@ 10061020     LIBCMT:strftime.obj
 0002:0000202c       ??_C@_06PADP@August?$AA@   1006102c     LIBCMT:strftime.obj
 0002:00002034       ??_C@_04PIJO@July?$AA@     10061034     LIBCMT:strftime.obj
 0002:0000203c       ??_C@_04ICFP@June?$AA@     1006103c     LIBCMT:strftime.obj
 0002:00002044       ??_C@_05JFGC@April?$AA@    10061044     LIBCMT:strftime.obj
 0002:0000204c       ??_C@_05FGPD@March?$AA@    1006104c     LIBCMT:strftime.obj
 0002:00002054       ??_C@_08PGBA@February?$AA@ 10061054     LIBCMT:strftime.obj
 0002:00002060       ??_C@_07BPKJ@January?$AA@  10061060     LIBCMT:strftime.obj
 0002:00002068       ??_C@_03PGJO@Dec?$AA@      10061068     LIBCMT:strftime.obj
 0002:0000206c       ??_C@_03PDLM@Nov?$AA@      1006106c     LIBCMT:strftime.obj
 0002:00002070       ??_C@_03BLHK@Oct?$AA@      10061070     LIBCMT:strftime.obj
 0002:00002074       ??_C@_03DPFM@Sep?$AA@      10061074     LIBCMT:strftime.obj
 0002:00002078       ??_C@_03CMCH@Aug?$AA@      10061078     LIBCMT:strftime.obj
 0002:0000207c       ??_C@_03OBKI@Jul?$AA@      1006107c     LIBCMT:strftime.obj
 0002:00002080       ??_C@_03LEIG@Jun?$AA@      10061080     LIBCMT:strftime.obj
 0002:00002084       ??_C@_03MGHB@May?$AA@      10061084     LIBCMT:strftime.obj
 0002:00002088       ??_C@_03MJJM@Apr?$AA@      10061088     LIBCMT:strftime.obj
 0002:0000208c       ??_C@_03GNHA@Mar?$AA@      1006108c     LIBCMT:strftime.obj
 0002:00002090       ??_C@_03PICE@Feb?$AA@      10061090     LIBCMT:strftime.obj
 0002:00002094       ??_C@_03IEIF@Jan?$AA@      10061094     LIBCMT:strftime.obj
 0002:00002098       ??_C@_08FAKH@Saturday?$AA@ 10061098     LIBCMT:strftime.obj
 0002:000020a4       ??_C@_06ONCK@Friday?$AA@   100610a4     LIBCMT:strftime.obj
 0002:000020ac       ??_C@_08CCFO@Thursday?$AA@ 100610ac     LIBCMT:strftime.obj
 0002:000020b8       ??_C@_09PBIN@Wednesday?$AA@ 100610b8     LIBCMT:strftime.obj
 0002:000020c4       ??_C@_07BMBC@Tuesday?$AA@  100610c4     LIBCMT:strftime.obj
 0002:000020cc       ??_C@_06CHLK@Monday?$AA@   100610cc     LIBCMT:strftime.obj
 0002:000020d4       ??_C@_06OOEM@Sunday?$AA@   100610d4     LIBCMT:strftime.obj
 0002:000020dc       ??_C@_03MPKK@Sat?$AA@      100610dc     LIBCMT:strftime.obj
 0002:000020e0       ??_C@_03FINJ@Fri?$AA@      100610e0     LIBCMT:strftime.obj
 0002:000020e4       ??_C@_03HIKC@Thu?$AA@      100610e4     LIBCMT:strftime.obj
 0002:000020e8       ??_C@_03HECK@Wed?$AA@      100610e8     LIBCMT:strftime.obj
 0002:000020ec       ??_C@_03ECCP@Tue?$AA@      100610ec     LIBCMT:strftime.obj
 0002:000020f0       ??_C@_03PIEP@Mon?$AA@      100610f0     LIBCMT:strftime.obj
 0002:000020f4       ??_C@_03FHEP@Sun?$AA@      100610f4     LIBCMT:strftime.obj
 0002:000020f8       ??_C@_03MKGK@a?1p?$AA@     100610f8     LIBCMT:strftime.obj
 0002:000020fc       ??_C@_05BDJK@am?1pm?$AA@   100610fc     LIBCMT:strftime.obj
 0002:00002120       ??_C@_06PAPI@1?$CDQNAN?$AA@ 10061120     LIBCMT:x10fout.obj
 0002:00002128       ??_C@_05BGNL@1?$CDINF?$AA@ 10061128     LIBCMT:x10fout.obj
 0002:00002130       ??_C@_05EDPF@1?$CDIND?$AA@ 10061130     LIBCMT:x10fout.obj
 0002:00002138       ??_C@_06LKFM@1?$CDSNAN?$AA@ 10061138     LIBCMT:x10fout.obj
 0002:00002178       ??_R1A@?0A@A@range_error@_STL@@8 10061178     stlport_vc6_static:dll_main.obj
 0002:00002190       ??_R2range_error@_STL@@8   10061190     stlport_vc6_static:dll_main.obj
 0002:000021a8       ??_R3range_error@_STL@@8   100611a8     stlport_vc6_static:dll_main.obj
 0002:000021b8       ??_R4range_error@_STL@@6B@ 100611b8     stlport_vc6_static:dll_main.obj
 0002:000021d0       ??_R1A@?0A@A@exception@@8  100611d0     stlport_vc6_static:dll_main.obj
 0002:000021e8       ??_R1A@?0A@A@__Named_exception@_STL@@8 100611e8     stlport_vc6_static:dll_main.obj
 0002:00002200       ??_R1A@?0A@A@runtime_error@_STL@@8 10061200     stlport_vc6_static:dll_main.obj
 0002:00002218       ??_R2runtime_error@_STL@@8 10061218     stlport_vc6_static:dll_main.obj
 0002:00002228       ??_R3runtime_error@_STL@@8 10061228     stlport_vc6_static:dll_main.obj
 0002:00002238       ??_R4runtime_error@_STL@@6B@ 10061238     stlport_vc6_static:dll_main.obj
 0002:00002250       ??_R2__Named_exception@_STL@@8 10061250     stlport_vc6_static:dll_main.obj
 0002:00002260       ??_R3__Named_exception@_STL@@8 10061260     stlport_vc6_static:dll_main.obj
 0002:00002270       ??_R4__Named_exception@_STL@@6B@ 10061270     stlport_vc6_static:dll_main.obj
 0002:00002288       ??_R1A@?0A@A@out_of_range@_STL@@8 10061288     stlport_vc6_static:dll_main.obj
 0002:000022a0       ??_R2out_of_range@_STL@@8  100612a0     stlport_vc6_static:dll_main.obj
 0002:000022b8       ??_R3out_of_range@_STL@@8  100612b8     stlport_vc6_static:dll_main.obj
 0002:000022c8       ??_R4out_of_range@_STL@@6B@ 100612c8     stlport_vc6_static:dll_main.obj
 0002:000022e0       ??_R1A@?0A@A@logic_error@_STL@@8 100612e0     stlport_vc6_static:dll_main.obj
 0002:000022f8       ??_R2logic_error@_STL@@8   100612f8     stlport_vc6_static:dll_main.obj
 0002:00002308       ??_R3logic_error@_STL@@8   10061308     stlport_vc6_static:dll_main.obj
 0002:00002318       ??_R4logic_error@_STL@@6B@ 10061318     stlport_vc6_static:dll_main.obj
 0002:00002330       ??_R1A@?0A@A@length_error@_STL@@8 10061330     stlport_vc6_static:dll_main.obj
 0002:00002348       ??_R2length_error@_STL@@8  10061348     stlport_vc6_static:dll_main.obj
 0002:00002360       ??_R3length_error@_STL@@8  10061360     stlport_vc6_static:dll_main.obj
 0002:00002370       ??_R4length_error@_STL@@6B@ 10061370     stlport_vc6_static:dll_main.obj
 0002:00002388       ??_R1A@?0A@A@invalid_argument@_STL@@8 10061388     stlport_vc6_static:dll_main.obj
 0002:000023a0       ??_R2invalid_argument@_STL@@8 100613a0     stlport_vc6_static:dll_main.obj
 0002:000023b8       ??_R3invalid_argument@_STL@@8 100613b8     stlport_vc6_static:dll_main.obj
 0002:000023c8       ??_R4invalid_argument@_STL@@6B@ 100613c8     stlport_vc6_static:dll_main.obj
 0002:000023e0       ??_R1A@?0A@A@overflow_error@_STL@@8 100613e0     stlport_vc6_static:dll_main.obj
 0002:000023f8       ??_R2overflow_error@_STL@@8 100613f8     stlport_vc6_static:dll_main.obj
 0002:00002410       ??_R3overflow_error@_STL@@8 10061410     stlport_vc6_static:dll_main.obj
 0002:00002420       ??_R4overflow_error@_STL@@6B@ 10061420     stlport_vc6_static:dll_main.obj
 0002:00002438       ??_R1A@?0A@A@domain_error@_STL@@8 10061438     stlport_vc6_static:dll_main.obj
 0002:00002450       ??_R2domain_error@_STL@@8  10061450     stlport_vc6_static:dll_main.obj
 0002:00002468       ??_R3domain_error@_STL@@8  10061468     stlport_vc6_static:dll_main.obj
 0002:00002478       ??_R4domain_error@_STL@@6B@ 10061478     stlport_vc6_static:dll_main.obj
 0002:00002490       ??_R1A@?0A@A@underflow_error@_STL@@8 10061490     stlport_vc6_static:dll_main.obj
 0002:000024a8       ??_R2underflow_error@_STL@@8 100614a8     stlport_vc6_static:dll_main.obj
 0002:000024c0       ??_R3underflow_error@_STL@@8 100614c0     stlport_vc6_static:dll_main.obj
 0002:000024d0       ??_R4underflow_error@_STL@@6B@ 100614d0     stlport_vc6_static:dll_main.obj
 0002:000024e8       ??_R1A@?0A@A@bad_alloc@std@@8 100614e8     stlport_vc6_static:dll_main.obj
 0002:00002500       ??_R2bad_alloc@std@@8      10061500     stlport_vc6_static:dll_main.obj
 0002:00002510       ??_R3bad_alloc@std@@8      10061510     stlport_vc6_static:dll_main.obj
 0002:00002520       ??_R4bad_alloc@std@@6B@    10061520     stlport_vc6_static:dll_main.obj
 0002:00002538       ??_R1A@?0A@A@_Locale_impl@_STL@@8 10061538     stlport_vc6_static:locale_impl.obj
 0002:00002550       ??_R2_Locale_impl@_STL@@8  10061550     stlport_vc6_static:locale_impl.obj
 0002:00002558       ??_R3_Locale_impl@_STL@@8  10061558     stlport_vc6_static:locale_impl.obj
 0002:00002568       ??_R4_Locale_impl@_STL@@6B@ 10061568     stlport_vc6_static:locale_impl.obj
 0002:00002580       ??_R1A@?0A@A@bad_cast@@8   10061580     stlport_vc6_static:locale_impl.obj
 0002:00002598       ??_R2bad_cast@@8           10061598     stlport_vc6_static:locale_impl.obj
 0002:000025a8       ??_R3bad_cast@@8           100615a8     stlport_vc6_static:locale_impl.obj
 0002:000025b8       ??_R4bad_cast@@6B@         100615b8     stlport_vc6_static:locale_impl.obj
 0002:000025d0       ??_R1A@?0A@A@?$time_put@DV?$ostreambuf_iterator@DV?$char_traits@D@_STL@@@_STL@@@_STL@@8 100615d0     stlport_vc6_static:locale_impl.obj
 0002:000025e8       ??_R2?$time_put@DV?$ostreambuf_iterator@DV?$char_traits@D@_STL@@@_STL@@@_STL@@8 100615e8     stlport_vc6_static:locale_impl.obj
 0002:00002600       ??_R3?$time_put@DV?$ostreambuf_iterator@DV?$char_traits@D@_STL@@@_STL@@@_STL@@8 10061600     stlport_vc6_static:locale_impl.obj
 0002:00002610       ??_R4?$time_put@DV?$ostreambuf_iterator@DV?$char_traits@D@_STL@@@_STL@@@_STL@@6B@ 10061610     stlport_vc6_static:locale_impl.obj
 0002:00002628       ??_R1A@?0A@A@?$num_put@DV?$ostreambuf_iterator@DV?$char_traits@D@_STL@@@_STL@@@_STL@@8 10061628     stlport_vc6_static:locale_impl.obj
 0002:00002640       ??_R2?$num_put@DV?$ostreambuf_iterator@DV?$char_traits@D@_STL@@@_STL@@@_STL@@8 10061640     stlport_vc6_static:locale_impl.obj
 0002:00002650       ??_R3?$num_put@DV?$ostreambuf_iterator@DV?$char_traits@D@_STL@@@_STL@@@_STL@@8 10061650     stlport_vc6_static:locale_impl.obj
 0002:00002660       ??_R4?$num_put@DV?$ostreambuf_iterator@DV?$char_traits@D@_STL@@@_STL@@@_STL@@6B@ 10061660     stlport_vc6_static:locale_impl.obj
 0002:00002678       ??_R1A@?0A@A@?$num_get@GV?$istreambuf_iterator@GV?$char_traits@G@_STL@@@_STL@@@_STL@@8 10061678     stlport_vc6_static:locale_impl.obj
 0002:00002690       ??_R2?$num_get@GV?$istreambuf_iterator@GV?$char_traits@G@_STL@@@_STL@@@_STL@@8 10061690     stlport_vc6_static:locale_impl.obj
 0002:000026a0       ??_R3?$num_get@GV?$istreambuf_iterator@GV?$char_traits@G@_STL@@@_STL@@@_STL@@8 100616a0     stlport_vc6_static:locale_impl.obj
 0002:000026b0       ??_R4?$num_get@GV?$istreambuf_iterator@GV?$char_traits@G@_STL@@@_STL@@@_STL@@6B@ 100616b0     stlport_vc6_static:locale_impl.obj
 0002:000026c8       ??_R1A@?0A@A@?$codecvt@GDH@_STL@@8 100616c8     stlport_vc6_static:locale_impl.obj
 0002:000026e0       ??_R2?$codecvt@GDH@_STL@@8 100616e0     stlport_vc6_static:locale_impl.obj
 0002:000026f8       ??_R3?$codecvt@GDH@_STL@@8 100616f8     stlport_vc6_static:locale_impl.obj
 0002:00002708       ??_R4?$codecvt@GDH@_STL@@6B@ 10061708     stlport_vc6_static:locale_impl.obj
 0002:00002720       ??_R1A@?0A@A@?$time_get@GV?$istreambuf_iterator@GV?$char_traits@G@_STL@@@_STL@@@_STL@@8 10061720     stlport_vc6_static:locale_impl.obj
 0002:00002738       ??_R2?$time_get@GV?$istreambuf_iterator@GV?$char_traits@G@_STL@@@_STL@@@_STL@@8 10061738     stlport_vc6_static:locale_impl.obj
 0002:00002750       ??_R3?$time_get@GV?$istreambuf_iterator@GV?$char_traits@G@_STL@@@_STL@@@_STL@@8 10061750     stlport_vc6_static:locale_impl.obj
 0002:00002760       ??_R4?$time_get@GV?$istreambuf_iterator@GV?$char_traits@G@_STL@@@_STL@@@_STL@@6B@ 10061760     stlport_vc6_static:locale_impl.obj
 0002:00002778       ??_R1A@?0A@A@?$time_put@GV?$ostreambuf_iterator@GV?$char_traits@G@_STL@@@_STL@@@_STL@@8 10061778     stlport_vc6_static:locale_impl.obj
 0002:00002790       ??_R2?$time_put@GV?$ostreambuf_iterator@GV?$char_traits@G@_STL@@@_STL@@@_STL@@8 10061790     stlport_vc6_static:locale_impl.obj
 0002:000027a8       ??_R3?$time_put@GV?$ostreambuf_iterator@GV?$char_traits@G@_STL@@@_STL@@@_STL@@8 100617a8     stlport_vc6_static:locale_impl.obj
 0002:000027b8       ??_R4?$time_put@GV?$ostreambuf_iterator@GV?$char_traits@G@_STL@@@_STL@@@_STL@@6B@ 100617b8     stlport_vc6_static:locale_impl.obj
 0002:000027d0       ??_R1A@?0A@A@?$num_get@DV?$istreambuf_iterator@DV?$char_traits@D@_STL@@@_STL@@@_STL@@8 100617d0     stlport_vc6_static:locale_impl.obj
 0002:000027e8       ??_R2?$num_get@DV?$istreambuf_iterator@DV?$char_traits@D@_STL@@@_STL@@@_STL@@8 100617e8     stlport_vc6_static:locale_impl.obj
 0002:000027f8       ??_R3?$num_get@DV?$istreambuf_iterator@DV?$char_traits@D@_STL@@@_STL@@@_STL@@8 100617f8     stlport_vc6_static:locale_impl.obj
 0002:00002808       ??_R4?$num_get@DV?$istreambuf_iterator@DV?$char_traits@D@_STL@@@_STL@@@_STL@@6B@ 10061808     stlport_vc6_static:locale_impl.obj
 0002:00002820       ??_R1A@?0A@A@?$money_get@GV?$istreambuf_iterator@GV?$char_traits@G@_STL@@@_STL@@@_STL@@8 10061820     stlport_vc6_static:locale_impl.obj
 0002:00002838       ??_R2?$money_get@GV?$istreambuf_iterator@GV?$char_traits@G@_STL@@@_STL@@@_STL@@8 10061838     stlport_vc6_static:locale_impl.obj
 0002:00002848       ??_R3?$money_get@GV?$istreambuf_iterator@GV?$char_traits@G@_STL@@@_STL@@@_STL@@8 10061848     stlport_vc6_static:locale_impl.obj
 0002:00002858       ??_R4?$money_get@GV?$istreambuf_iterator@GV?$char_traits@G@_STL@@@_STL@@@_STL@@6B@ 10061858     stlport_vc6_static:locale_impl.obj
 0002:00002870       ??_R1A@?0A@A@?$money_put@GV?$ostreambuf_iterator@GV?$char_traits@G@_STL@@@_STL@@@_STL@@8 10061870     stlport_vc6_static:locale_impl.obj
 0002:00002888       ??_R2?$money_put@GV?$ostreambuf_iterator@GV?$char_traits@G@_STL@@@_STL@@@_STL@@8 10061888     stlport_vc6_static:locale_impl.obj
 0002:00002898       ??_R3?$money_put@GV?$ostreambuf_iterator@GV?$char_traits@G@_STL@@@_STL@@@_STL@@8 10061898     stlport_vc6_static:locale_impl.obj
 0002:000028a8       ??_R4?$money_put@GV?$ostreambuf_iterator@GV?$char_traits@G@_STL@@@_STL@@@_STL@@6B@ 100618a8     stlport_vc6_static:locale_impl.obj
 0002:000028c0       ??_R1M@?0A@A@time_base@_STL@@8 100618c0     stlport_vc6_static:locale_impl.obj
 0002:000028d8       ??_R1A@?0A@A@?$time_get@DV?$istreambuf_iterator@DV?$char_traits@D@_STL@@@_STL@@@_STL@@8 100618d8     stlport_vc6_static:locale_impl.obj
 0002:000028f0       ??_R2?$time_get@DV?$istreambuf_iterator@DV?$char_traits@D@_STL@@@_STL@@@_STL@@8 100618f0     stlport_vc6_static:locale_impl.obj
 0002:00002908       ??_R3?$time_get@DV?$istreambuf_iterator@DV?$char_traits@D@_STL@@@_STL@@@_STL@@8 10061908     stlport_vc6_static:locale_impl.obj
 0002:00002918       ??_R4?$time_get@DV?$istreambuf_iterator@DV?$char_traits@D@_STL@@@_STL@@@_STL@@6B@ 10061918     stlport_vc6_static:locale_impl.obj
 0002:00002930       ??_R1A@?0A@A@?$money_put@DV?$ostreambuf_iterator@DV?$char_traits@D@_STL@@@_STL@@@_STL@@8 10061930     stlport_vc6_static:locale_impl.obj
 0002:00002948       ??_R2?$money_put@DV?$ostreambuf_iterator@DV?$char_traits@D@_STL@@@_STL@@@_STL@@8 10061948     stlport_vc6_static:locale_impl.obj
 0002:00002958       ??_R3?$money_put@DV?$ostreambuf_iterator@DV?$char_traits@D@_STL@@@_STL@@@_STL@@8 10061958     stlport_vc6_static:locale_impl.obj
 0002:00002968       ??_R4?$money_put@DV?$ostreambuf_iterator@DV?$char_traits@D@_STL@@@_STL@@@_STL@@6B@ 10061968     stlport_vc6_static:locale_impl.obj
 0002:00002980       ??_R1A@?0A@A@?$money_get@DV?$istreambuf_iterator@DV?$char_traits@D@_STL@@@_STL@@@_STL@@8 10061980     stlport_vc6_static:locale_impl.obj
 0002:00002998       ??_R2?$money_get@DV?$istreambuf_iterator@DV?$char_traits@D@_STL@@@_STL@@@_STL@@8 10061998     stlport_vc6_static:locale_impl.obj
 0002:000029a8       ??_R3?$money_get@DV?$istreambuf_iterator@DV?$char_traits@D@_STL@@@_STL@@@_STL@@8 100619a8     stlport_vc6_static:locale_impl.obj
 0002:000029b8       ??_R4?$money_get@DV?$istreambuf_iterator@DV?$char_traits@D@_STL@@@_STL@@@_STL@@6B@ 100619b8     stlport_vc6_static:locale_impl.obj
 0002:000029d0       ??_R1A@?0A@A@?$num_put@GV?$ostreambuf_iterator@GV?$char_traits@G@_STL@@@_STL@@@_STL@@8 100619d0     stlport_vc6_static:locale_impl.obj
 0002:000029e8       ??_R2?$num_put@GV?$ostreambuf_iterator@GV?$char_traits@G@_STL@@@_STL@@@_STL@@8 100619e8     stlport_vc6_static:locale_impl.obj
 0002:000029f8       ??_R3?$num_put@GV?$ostreambuf_iterator@GV?$char_traits@G@_STL@@@_STL@@@_STL@@8 100619f8     stlport_vc6_static:locale_impl.obj
 0002:00002a08       ??_R4?$num_put@GV?$ostreambuf_iterator@GV?$char_traits@G@_STL@@@_STL@@@_STL@@6B@ 10061a08     stlport_vc6_static:locale_impl.obj
 0002:00002a20       ??_R1M@?0A@A@codecvt_base@_STL@@8 10061a20     stlport_vc6_static:locale_impl.obj
 0002:00002a38       ??_R1A@?0A@A@?$codecvt@DDH@_STL@@8 10061a38     stlport_vc6_static:locale_impl.obj
 0002:00002a50       ??_R2?$codecvt@DDH@_STL@@8 10061a50     stlport_vc6_static:locale_impl.obj
 0002:00002a68       ??_R3?$codecvt@DDH@_STL@@8 10061a68     stlport_vc6_static:locale_impl.obj
 0002:00002a78       ??_R4?$codecvt@DDH@_STL@@6B@ 10061a78     stlport_vc6_static:locale_impl.obj
 0002:00002a90       ??_R1A@?0A@A@?$collate@G@_STL@@8 10061a90     stlport_vc6_static:locale_impl.obj
 0002:00002aa8       ??_R2?$collate@G@_STL@@8   10061aa8     stlport_vc6_static:locale_impl.obj
 0002:00002ab8       ??_R3?$collate@G@_STL@@8   10061ab8     stlport_vc6_static:locale_impl.obj
 0002:00002ac8       ??_R4?$collate@G@_STL@@6B@ 10061ac8     stlport_vc6_static:locale_impl.obj
 0002:00002ae0       ??_R1A@?0A@A@?$collate@D@_STL@@8 10061ae0     stlport_vc6_static:locale_impl.obj
 0002:00002af8       ??_R2?$collate@D@_STL@@8   10061af8     stlport_vc6_static:locale_impl.obj
 0002:00002b08       ??_R3?$collate@D@_STL@@8   10061b08     stlport_vc6_static:locale_impl.obj
 0002:00002b18       ??_R4?$collate@D@_STL@@6B@ 10061b18     stlport_vc6_static:locale_impl.obj
 0002:00002b30       ??_R1A@?0A@A@?$numpunct@G@_STL@@8 10061b30     stlport_vc6_static:locale_impl.obj
 0002:00002b48       ??_R2?$numpunct@G@_STL@@8  10061b48     stlport_vc6_static:locale_impl.obj
 0002:00002b58       ??_R3?$numpunct@G@_STL@@8  10061b58     stlport_vc6_static:locale_impl.obj
 0002:00002b68       ??_R4?$numpunct@G@_STL@@6B@ 10061b68     stlport_vc6_static:locale_impl.obj
 0002:00002b80       ??_R2facet@locale@_STL@@8  10061b80     stlport_vc6_static:locale_impl.obj
 0002:00002b90       ??_R3facet@locale@_STL@@8  10061b90     stlport_vc6_static:locale_impl.obj
 0002:00002ba0       ??_R4facet@locale@_STL@@6B@ 10061ba0     stlport_vc6_static:locale_impl.obj
 0002:00002bb8       ??_R1A@?0A@A@?$numpunct@D@_STL@@8 10061bb8     stlport_vc6_static:locale_impl.obj
 0002:00002bd0       ??_R2?$numpunct@D@_STL@@8  10061bd0     stlport_vc6_static:locale_impl.obj
 0002:00002be0       ??_R3?$numpunct@D@_STL@@8  10061be0     stlport_vc6_static:locale_impl.obj
 0002:00002bf0       ??_R4?$numpunct@D@_STL@@6B@ 10061bf0     stlport_vc6_static:locale_impl.obj
 0002:00002c08       ??_R1M@?0A@A@ctype_base@_STL@@8 10061c08     stlport_vc6_static:locale_impl.obj
 0002:00002c20       ??_R13?0A@8_Refcount_Base@_STL@@8 10061c20     stlport_vc6_static:locale_impl.obj
 0002:00002c38       ??_R1A@?0A@A@facet@locale@_STL@@8 10061c38     stlport_vc6_static:locale_impl.obj
 0002:00002c50       ??_R1A@?0A@A@?$ctype@G@_STL@@8 10061c50     stlport_vc6_static:locale_impl.obj
 0002:00002c68       ??_R2?$ctype@G@_STL@@8     10061c68     stlport_vc6_static:locale_impl.obj
 0002:00002c80       ??_R3?$ctype@G@_STL@@8     10061c80     stlport_vc6_static:locale_impl.obj
 0002:00002c90       ??_R4?$ctype@G@_STL@@6B@   10061c90     stlport_vc6_static:locale_impl.obj
 0002:00002ca8       ??_R1A@A@3A@ios_base@_STL@@8 10061ca8     stlport_vc6_static:iostream.obj
 0002:00002cc0       ??_R1A@A@3BA@?$basic_ios@DV?$char_traits@D@_STL@@@_STL@@8 10061cc0     stlport_vc6_static:iostream.obj
 0002:00002cd8       ??_R1A@?0A@A@?$basic_istream@DV?$char_traits@D@_STL@@@_STL@@8 10061cd8     stlport_vc6_static:iostream.obj
 0002:00002cf0       ??_R2?$basic_istream@DV?$char_traits@D@_STL@@@_STL@@8 10061cf0     stlport_vc6_static:iostream.obj
 0002:00002d00       ??_R3?$basic_istream@DV?$char_traits@D@_STL@@@_STL@@8 10061d00     stlport_vc6_static:iostream.obj
 0002:00002d10       ??_R4?$basic_istream@DV?$char_traits@D@_STL@@@_STL@@6B@ 10061d10     stlport_vc6_static:iostream.obj
 0002:00002d28       ??_R1A@?0A@A@?$basic_ostream@DV?$char_traits@D@_STL@@@_STL@@8 10061d28     stlport_vc6_static:iostream.obj
 0002:00002d40       ??_R2?$basic_ostream@DV?$char_traits@D@_STL@@@_STL@@8 10061d40     stlport_vc6_static:iostream.obj
 0002:00002d50       ??_R3?$basic_ostream@DV?$char_traits@D@_STL@@@_STL@@8 10061d50     stlport_vc6_static:iostream.obj
 0002:00002d60       ??_R4?$basic_ostream@DV?$char_traits@D@_STL@@@_STL@@6B@ 10061d60     stlport_vc6_static:iostream.obj
 0002:00002d78       ??_R1A@A@3BA@?$basic_ios@GV?$char_traits@G@_STL@@@_STL@@8 10061d78     stlport_vc6_static:iostream.obj
 0002:00002d90       ??_R1A@?0A@A@?$basic_istream@GV?$char_traits@G@_STL@@@_STL@@8 10061d90     stlport_vc6_static:iostream.obj
 0002:00002da8       ??_R2?$basic_istream@GV?$char_traits@G@_STL@@@_STL@@8 10061da8     stlport_vc6_static:iostream.obj
 0002:00002db8       ??_R3?$basic_istream@GV?$char_traits@G@_STL@@@_STL@@8 10061db8     stlport_vc6_static:iostream.obj
 0002:00002dc8       ??_R4?$basic_istream@GV?$char_traits@G@_STL@@@_STL@@6B@ 10061dc8     stlport_vc6_static:iostream.obj
 0002:00002de0       ??_R1A@?0A@A@?$basic_ostream@GV?$char_traits@G@_STL@@@_STL@@8 10061de0     stlport_vc6_static:iostream.obj
 0002:00002df8       ??_R2?$basic_ostream@GV?$char_traits@G@_STL@@@_STL@@8 10061df8     stlport_vc6_static:iostream.obj
 0002:00002e08       ??_R3?$basic_ostream@GV?$char_traits@G@_STL@@@_STL@@8 10061e08     stlport_vc6_static:iostream.obj
 0002:00002e18       ??_R4?$basic_ostream@GV?$char_traits@G@_STL@@@_STL@@6B@ 10061e18     stlport_vc6_static:iostream.obj
 0002:00002e30       ??_R1A@?0A@A@?$basic_filebuf@DV?$char_traits@D@_STL@@@_STL@@8 10061e30     stlport_vc6_static:iostream.obj
 0002:00002e48       ??_R2?$basic_filebuf@DV?$char_traits@D@_STL@@@_STL@@8 10061e48     stlport_vc6_static:iostream.obj
 0002:00002e58       ??_R3?$basic_filebuf@DV?$char_traits@D@_STL@@@_STL@@8 10061e58     stlport_vc6_static:iostream.obj
 0002:00002e68       ??_R4?$basic_filebuf@DV?$char_traits@D@_STL@@@_STL@@6B@ 10061e68     stlport_vc6_static:iostream.obj
 0002:00002e80       ??_R1A@?0A@A@?$basic_streambuf@DV?$char_traits@D@_STL@@@_STL@@8 10061e80     stlport_vc6_static:iostream.obj
 0002:00002e98       ??_R2?$basic_streambuf@DV?$char_traits@D@_STL@@@_STL@@8 10061e98     stlport_vc6_static:iostream.obj
 0002:00002ea0       ??_R3?$basic_streambuf@DV?$char_traits@D@_STL@@@_STL@@8 10061ea0     stlport_vc6_static:iostream.obj
 0002:00002eb0       ??_R4?$basic_streambuf@DV?$char_traits@D@_STL@@@_STL@@6B@ 10061eb0     stlport_vc6_static:iostream.obj
 0002:00002ec8       ??_R1A@?0A@A@?$basic_filebuf@GV?$char_traits@G@_STL@@@_STL@@8 10061ec8     stlport_vc6_static:iostream.obj
 0002:00002ee0       ??_R2?$basic_filebuf@GV?$char_traits@G@_STL@@@_STL@@8 10061ee0     stlport_vc6_static:iostream.obj
 0002:00002ef0       ??_R3?$basic_filebuf@GV?$char_traits@G@_STL@@@_STL@@8 10061ef0     stlport_vc6_static:iostream.obj
 0002:00002f00       ??_R4?$basic_filebuf@GV?$char_traits@G@_STL@@@_STL@@6B@ 10061f00     stlport_vc6_static:iostream.obj
 0002:00002f18       ??_R1A@?0A@A@?$basic_streambuf@GV?$char_traits@G@_STL@@@_STL@@8 10061f18     stlport_vc6_static:iostream.obj
 0002:00002f30       ??_R2?$basic_streambuf@GV?$char_traits@G@_STL@@@_STL@@8 10061f30     stlport_vc6_static:iostream.obj
 0002:00002f38       ??_R3?$basic_streambuf@GV?$char_traits@G@_STL@@@_STL@@8 10061f38     stlport_vc6_static:iostream.obj
 0002:00002f48       ??_R4?$basic_streambuf@GV?$char_traits@G@_STL@@@_STL@@6B@ 10061f48     stlport_vc6_static:iostream.obj
 0002:00002f60       ??_R1A@?0A@A@stdio_ostreambuf@_SgI@@8 10061f60     stlport_vc6_static:iostream.obj
 0002:00002f78       ??_R2stdio_ostreambuf@_SgI@@8 10061f78     stlport_vc6_static:iostream.obj
 0002:00002f88       ??_R3stdio_ostreambuf@_SgI@@8 10061f88     stlport_vc6_static:iostream.obj
 0002:00002f98       ??_R4stdio_ostreambuf@_SgI@@6B@ 10061f98     stlport_vc6_static:iostream.obj
 0002:00002fb0       ??_R1A@?0A@A@stdio_streambuf_base@_SgI@@8 10061fb0     stlport_vc6_static:iostream.obj
 0002:00002fc8       ??_R1A@?0A@A@stdio_istreambuf@_SgI@@8 10061fc8     stlport_vc6_static:iostream.obj
 0002:00002fe0       ??_R2stdio_istreambuf@_SgI@@8 10061fe0     stlport_vc6_static:iostream.obj
 0002:00002ff0       ??_R3stdio_istreambuf@_SgI@@8 10061ff0     stlport_vc6_static:iostream.obj
 0002:00003000       ??_R4stdio_istreambuf@_SgI@@6B@ 10062000     stlport_vc6_static:iostream.obj
 0002:00003018       ??_R1A@?0A@A@ios_base@_STL@@8 10062018     stlport_vc6_static:iostream.obj
 0002:00003030       ??_R1A@?0A@A@?$basic_ios@DV?$char_traits@D@_STL@@@_STL@@8 10062030     stlport_vc6_static:iostream.obj
 0002:00003048       ??_R2?$basic_ios@DV?$char_traits@D@_STL@@@_STL@@8 10062048     stlport_vc6_static:iostream.obj
 0002:00003058       ??_R3?$basic_ios@DV?$char_traits@D@_STL@@@_STL@@8 10062058     stlport_vc6_static:iostream.obj
 0002:00003068       ??_R4?$basic_ios@DV?$char_traits@D@_STL@@@_STL@@6B@ 10062068     stlport_vc6_static:iostream.obj
 0002:00003080       ??_R1A@?0A@A@?$basic_ios@GV?$char_traits@G@_STL@@@_STL@@8 10062080     stlport_vc6_static:iostream.obj
 0002:00003098       ??_R2?$basic_ios@GV?$char_traits@G@_STL@@@_STL@@8 10062098     stlport_vc6_static:iostream.obj
 0002:000030a8       ??_R3?$basic_ios@GV?$char_traits@G@_STL@@@_STL@@8 100620a8     stlport_vc6_static:iostream.obj
 0002:000030b8       ??_R4?$basic_ios@GV?$char_traits@G@_STL@@@_STL@@6B@ 100620b8     stlport_vc6_static:iostream.obj
 0002:000030d0       ??_R1A@?0A@A@failure@ios_base@_STL@@8 100620d0     stlport_vc6_static:ios.obj
 0002:000030e8       ??_R2failure@ios_base@_STL@@8 100620e8     stlport_vc6_static:ios.obj
 0002:000030f8       ??_R3failure@ios_base@_STL@@8 100620f8     stlport_vc6_static:ios.obj
 0002:00003108       ??_R4failure@ios_base@_STL@@6B@ 10062108     stlport_vc6_static:ios.obj
 0002:0000311c       ??_R2ios_base@_STL@@8      1006211c     stlport_vc6_static:ios.obj
 0002:00003128       ??_R3ios_base@_STL@@8      10062128     stlport_vc6_static:ios.obj
 0002:00003138       ??_R4ios_base@_STL@@6B@    10062138     stlport_vc6_static:ios.obj
 0002:00003150       ??_R1A@?0A@A@?$basic_ifstream@DV?$char_traits@D@_STL@@@_STL@@8 10062150     stlport_vc6_static:fstream.obj
 0002:00003168       ??_R2?$basic_ifstream@DV?$char_traits@D@_STL@@@_STL@@8 10062168     stlport_vc6_static:fstream.obj
 0002:00003180       ??_R3?$basic_ifstream@DV?$char_traits@D@_STL@@@_STL@@8 10062180     stlport_vc6_static:fstream.obj
 0002:00003190       ??_R4?$basic_ifstream@DV?$char_traits@D@_STL@@@_STL@@6B@ 10062190     stlport_vc6_static:fstream.obj
 0002:000031a8       ??_R1A@?0A@A@?$basic_ofstream@DV?$char_traits@D@_STL@@@_STL@@8 100621a8     stlport_vc6_static:fstream.obj
 0002:000031c0       ??_R2?$basic_ofstream@DV?$char_traits@D@_STL@@@_STL@@8 100621c0     stlport_vc6_static:fstream.obj
 0002:000031d8       ??_R3?$basic_ofstream@DV?$char_traits@D@_STL@@@_STL@@8 100621d8     stlport_vc6_static:fstream.obj
 0002:000031e8       ??_R4?$basic_ofstream@DV?$char_traits@D@_STL@@@_STL@@6B@ 100621e8     stlport_vc6_static:fstream.obj
 0002:00003200       ??_R1A@?0A@A@?$basic_fstream@DV?$char_traits@D@_STL@@@_STL@@8 10062200     stlport_vc6_static:fstream.obj
 0002:00003218       ??_R2?$basic_fstream@DV?$char_traits@D@_STL@@@_STL@@8 10062218     stlport_vc6_static:fstream.obj
 0002:00003240       ??_R3?$basic_fstream@DV?$char_traits@D@_STL@@@_STL@@8 10062240     stlport_vc6_static:fstream.obj
 0002:00003250       ??_R4?$basic_fstream@DV?$char_traits@D@_STL@@@_STL@@6B@ 10062250     stlport_vc6_static:fstream.obj
 0002:00003268       ??_R17?0A@A@?$basic_ostream@DV?$char_traits@D@_STL@@@_STL@@8 10062268     stlport_vc6_static:fstream.obj
 0002:00003280       ??_R1A@?0A@A@?$basic_iostream@DV?$char_traits@D@_STL@@@_STL@@8 10062280     stlport_vc6_static:fstream.obj
 0002:00003298       ??_R2?$basic_iostream@DV?$char_traits@D@_STL@@@_STL@@8 10062298     stlport_vc6_static:fstream.obj
 0002:000032b8       ??_R3?$basic_iostream@DV?$char_traits@D@_STL@@@_STL@@8 100622b8     stlport_vc6_static:fstream.obj
 0002:000032c8       ??_R4?$basic_iostream@DV?$char_traits@D@_STL@@@_STL@@6B@ 100622c8     stlport_vc6_static:fstream.obj
 0002:000032e0       ??_R1A@?0A@A@?$basic_ifstream@GV?$char_traits@G@_STL@@@_STL@@8 100622e0     stlport_vc6_static:fstream.obj
 0002:000032f8       ??_R2?$basic_ifstream@GV?$char_traits@G@_STL@@@_STL@@8 100622f8     stlport_vc6_static:fstream.obj
 0002:00003310       ??_R3?$basic_ifstream@GV?$char_traits@G@_STL@@@_STL@@8 10062310     stlport_vc6_static:fstream.obj
 0002:00003320       ??_R4?$basic_ifstream@GV?$char_traits@G@_STL@@@_STL@@6B@ 10062320     stlport_vc6_static:fstream.obj
 0002:00003338       ??_R1A@?0A@A@?$basic_ofstream@GV?$char_traits@G@_STL@@@_STL@@8 10062338     stlport_vc6_static:fstream.obj
 0002:00003350       ??_R2?$basic_ofstream@GV?$char_traits@G@_STL@@@_STL@@8 10062350     stlport_vc6_static:fstream.obj
 0002:00003368       ??_R3?$basic_ofstream@GV?$char_traits@G@_STL@@@_STL@@8 10062368     stlport_vc6_static:fstream.obj
 0002:00003378       ??_R4?$basic_ofstream@GV?$char_traits@G@_STL@@@_STL@@6B@ 10062378     stlport_vc6_static:fstream.obj
 0002:00003390       ??_R1A@?0A@A@?$basic_fstream@GV?$char_traits@G@_STL@@@_STL@@8 10062390     stlport_vc6_static:fstream.obj
 0002:000033a8       ??_R2?$basic_fstream@GV?$char_traits@G@_STL@@@_STL@@8 100623a8     stlport_vc6_static:fstream.obj
 0002:000033d0       ??_R3?$basic_fstream@GV?$char_traits@G@_STL@@@_STL@@8 100623d0     stlport_vc6_static:fstream.obj
 0002:000033e0       ??_R4?$basic_fstream@GV?$char_traits@G@_STL@@@_STL@@6B@ 100623e0     stlport_vc6_static:fstream.obj
 0002:000033f8       ??_R17?0A@A@?$basic_ostream@GV?$char_traits@G@_STL@@@_STL@@8 100623f8     stlport_vc6_static:fstream.obj
 0002:00003410       ??_R1A@?0A@A@?$basic_iostream@GV?$char_traits@G@_STL@@@_STL@@8 10062410     stlport_vc6_static:fstream.obj
 0002:00003428       ??_R2?$basic_iostream@GV?$char_traits@G@_STL@@@_STL@@8 10062428     stlport_vc6_static:fstream.obj
 0002:00003448       ??_R3?$basic_iostream@GV?$char_traits@G@_STL@@@_STL@@8 10062448     stlport_vc6_static:fstream.obj
 0002:00003458       ??_R4?$basic_iostream@GV?$char_traits@G@_STL@@@_STL@@6B@ 10062458     stlport_vc6_static:fstream.obj
 0002:00003470       ??_R1M@?0A@A@messages_base@_STL@@8 10062470     stlport_vc6_static:messages.obj
 0002:00003488       ??_R1A@?0A@A@?$messages@D@_STL@@8 10062488     stlport_vc6_static:messages.obj
 0002:000034a0       ??_R2?$messages@D@_STL@@8  100624a0     stlport_vc6_static:messages.obj
 0002:000034b8       ??_R3?$messages@D@_STL@@8  100624b8     stlport_vc6_static:messages.obj
 0002:000034c8       ??_R4?$messages@D@_STL@@6B@ 100624c8     stlport_vc6_static:messages.obj
 0002:000034e0       ??_R1A@?0A@A@_Messages@_STL@@8 100624e0     stlport_vc6_static:messages.obj
 0002:000034f8       ??_R2_Messages@_STL@@8     100624f8     stlport_vc6_static:messages.obj
 0002:00003500       ??_R3_Messages@_STL@@8     10062500     stlport_vc6_static:messages.obj
 0002:00003510       ??_R4_Messages@_STL@@6B@   10062510     stlport_vc6_static:messages.obj
 0002:00003528       ??_R1A@?0A@A@?$messages@G@_STL@@8 10062528     stlport_vc6_static:messages.obj
 0002:00003540       ??_R2?$messages@G@_STL@@8  10062540     stlport_vc6_static:messages.obj
 0002:00003558       ??_R3?$messages@G@_STL@@8  10062558     stlport_vc6_static:messages.obj
 0002:00003568       ??_R4?$messages@G@_STL@@6B@ 10062568     stlport_vc6_static:messages.obj
 0002:00003580       ??_R1A@?0A@A@?$ctype@D@_STL@@8 10062580     stlport_vc6_static:ctype.obj
 0002:00003598       ??_R2?$ctype@D@_STL@@8     10062598     stlport_vc6_static:ctype.obj
 0002:000035b0       ??_R3?$ctype@D@_STL@@8     100625b0     stlport_vc6_static:ctype.obj
 0002:000035c0       ??_R4?$ctype@D@_STL@@6B@   100625c0     stlport_vc6_static:ctype.obj
 0002:000035d8       ??_R1M@?0A@A@money_base@_STL@@8 100625d8     stlport_vc6_static:monetary.obj
 0002:000035f0       ??_R1A@?0A@A@?$moneypunct@D$00@_STL@@8 100625f0     stlport_vc6_static:monetary.obj
 0002:00003608       ??_R2?$moneypunct@D$00@_STL@@8 10062608     stlport_vc6_static:monetary.obj
 0002:00003620       ??_R3?$moneypunct@D$00@_STL@@8 10062620     stlport_vc6_static:monetary.obj
 0002:00003630       ??_R4?$moneypunct@D$00@_STL@@6B@ 10062630     stlport_vc6_static:monetary.obj
 0002:00003648       ??_R1A@?0A@A@?$moneypunct@D$0A@@_STL@@8 10062648     stlport_vc6_static:monetary.obj
 0002:00003660       ??_R2?$moneypunct@D$0A@@_STL@@8 10062660     stlport_vc6_static:monetary.obj
 0002:00003678       ??_R3?$moneypunct@D$0A@@_STL@@8 10062678     stlport_vc6_static:monetary.obj
 0002:00003688       ??_R4?$moneypunct@D$0A@@_STL@@6B@ 10062688     stlport_vc6_static:monetary.obj
 0002:000036a0       ??_R1A@?0A@A@?$moneypunct@G$00@_STL@@8 100626a0     stlport_vc6_static:monetary.obj
 0002:000036b8       ??_R2?$moneypunct@G$00@_STL@@8 100626b8     stlport_vc6_static:monetary.obj
 0002:000036d0       ??_R3?$moneypunct@G$00@_STL@@8 100626d0     stlport_vc6_static:monetary.obj
 0002:000036e0       ??_R4?$moneypunct@G$00@_STL@@6B@ 100626e0     stlport_vc6_static:monetary.obj
 0002:000036f8       ??_R1A@?0A@A@?$moneypunct@G$0A@@_STL@@8 100626f8     stlport_vc6_static:monetary.obj
 0002:00003710       ??_R2?$moneypunct@G$0A@@_STL@@8 10062710     stlport_vc6_static:monetary.obj
 0002:00003728       ??_R3?$moneypunct@G$0A@@_STL@@8 10062728     stlport_vc6_static:monetary.obj
 0002:00003738       ??_R4?$moneypunct@G$0A@@_STL@@6B@ 10062738     stlport_vc6_static:monetary.obj
 0002:00003750       ??_R2stdio_streambuf_base@_SgI@@8 10062750     stlport_vc6_static:stdio_streambuf.obj
 0002:00003760       ??_R3stdio_streambuf_base@_SgI@@8 10062760     stlport_vc6_static:stdio_streambuf.obj
 0002:00003770       ??_R4stdio_streambuf_base@_SgI@@6B@ 10062770     stlport_vc6_static:stdio_streambuf.obj
 0002:00003788       ??_R1A@?0A@A@type_info@@8  10062788     LIBCMT:typinfo.obj
 0002:000037a0       ??_R2type_info@@8          100627a0     LIBCMT:typinfo.obj
 0002:000037a8       ??_R3type_info@@8          100627a8     LIBCMT:typinfo.obj
 0002:000037b8       ??_R4type_info@@6B@        100627b8     LIBCMT:typinfo.obj
 0002:000037cc       ??_R2exception@@8          100627cc     LIBCMT:stdexcpt.obj
 0002:000037d8       ??_R3exception@@8          100627d8     LIBCMT:stdexcpt.obj
 0002:000037e8       ??_R4exception@@6B@        100627e8     LIBCMT:stdexcpt.obj
 0002:00004090       __CT??_R0?AVCException@Win32@OnlineGameLib@@@8??0CException@Win32@OnlineGameLib@@QAE@ABV012@@Z28 10063090     common:SocketClient.obj
 0002:000040b0       __CT??_R0?AVCWin32Exception@Win32@OnlineGameLib@@@8??0CWin32Exception@Win32@OnlineGameLib@@QAE@ABV012@@Z32 100630b0     common:SocketClient.obj
 0002:000040d0       __CTA2?AVCWin32Exception@Win32@OnlineGameLib@@ 100630d0     common:SocketClient.obj
 0002:000040e0       __TI2?AVCWin32Exception@Win32@OnlineGameLib@@ 100630e0     common:SocketClient.obj
 0002:00004458       __CTA1?AVCException@Win32@OnlineGameLib@@ 10063458     common:IOBuffer.obj
 0002:00004460       __TI1?AVCException@Win32@OnlineGameLib@@ 10063460     common:IOBuffer.obj
 0002:00005248       __CT??_R0?AVException@CSocket@Win32@OnlineGameLib@@@8??0Exception@CSocket@Win32@OnlineGameLib@@QAE@ABV0123@@Z32 10064248     common:Socket.obj
 0002:00005268       __CTA3?AVException@CSocket@Win32@OnlineGameLib@@ 10064268     common:Socket.obj
 0002:00005278       __TI3?AVException@CSocket@Win32@OnlineGameLib@@ 10064278     common:Socket.obj
 0002:00005c88       __CT??_R0?AVexception@@@8??0exception@@QAE@ABV0@@Z12 10064c88     stlport_vc6_static:dll_main.obj
 0002:00005ca8       __CT??_R0?AV__Named_exception@_STL@@@8??0__Named_exception@_STL@@QAE@ABV01@@Z268 10064ca8     stlport_vc6_static:dll_main.obj
 0002:00005cc8       __CT??_R0?AVruntime_error@_STL@@@8??0runtime_error@_STL@@QAE@ABV01@@Z268 10064cc8     stlport_vc6_static:dll_main.obj
 0002:00005ce8       __CT??_R0?AVrange_error@_STL@@@8??0range_error@_STL@@QAE@ABV01@@Z268 10064ce8     stlport_vc6_static:dll_main.obj
 0002:00005d08       __CTA4?AVrange_error@_STL@@ 10064d08     stlport_vc6_static:dll_main.obj
 0002:00005d20       __TI4?AVrange_error@_STL@@ 10064d20     stlport_vc6_static:dll_main.obj
 0002:00005d70       __CT??_R0?AVlogic_error@_STL@@@8??0logic_error@_STL@@QAE@ABV01@@Z268 10064d70     stlport_vc6_static:dll_main.obj
 0002:00005d90       __CT??_R0?AVout_of_range@_STL@@@8??0out_of_range@_STL@@QAE@ABV01@@Z268 10064d90     stlport_vc6_static:dll_main.obj
 0002:00005db0       __CTA4?AVout_of_range@_STL@@ 10064db0     stlport_vc6_static:dll_main.obj
 0002:00005dc8       __TI4?AVout_of_range@_STL@@ 10064dc8     stlport_vc6_static:dll_main.obj
 0002:00005e18       __CT??_R0?AVlength_error@_STL@@@8??0length_error@_STL@@QAE@ABV01@@Z268 10064e18     stlport_vc6_static:dll_main.obj
 0002:00005e38       __CTA4?AVlength_error@_STL@@ 10064e38     stlport_vc6_static:dll_main.obj
 0002:00005e50       __TI4?AVlength_error@_STL@@ 10064e50     stlport_vc6_static:dll_main.obj
 0002:00005ea0       __CT??_R0?AVinvalid_argument@_STL@@@8??0invalid_argument@_STL@@QAE@ABV01@@Z268 10064ea0     stlport_vc6_static:dll_main.obj
 0002:00005ec0       __CTA4?AVinvalid_argument@_STL@@ 10064ec0     stlport_vc6_static:dll_main.obj
 0002:00005ed8       __TI4?AVinvalid_argument@_STL@@ 10064ed8     stlport_vc6_static:dll_main.obj
 0002:00005f28       __CT??_R0?AVoverflow_error@_STL@@@8??0overflow_error@_STL@@QAE@ABV01@@Z268 10064f28     stlport_vc6_static:dll_main.obj
 0002:00005f48       __CTA4?AVoverflow_error@_STL@@ 10064f48     stlport_vc6_static:dll_main.obj
 0002:00005f60       __TI4?AVoverflow_error@_STL@@ 10064f60     stlport_vc6_static:dll_main.obj
 0002:00006148       __CT??_R0?AVbad_alloc@std@@@8??0bad_alloc@std@@QAE@ABV01@@Z12 10065148     stlport_vc6_static:dll_main.obj
 0002:00006168       __CTA2?AVbad_alloc@std@@   10065168     stlport_vc6_static:dll_main.obj
 0002:00006178       __TI2?AVbad_alloc@std@@    10065178     stlport_vc6_static:dll_main.obj
 0002:000067e8       __CT??_R0?AVbad_cast@@@8??0bad_cast@@QAE@ABV0@@Z12 100657e8     stlport_vc6_static:locale_impl.obj
 0002:00006808       __CTA2?AVbad_cast@@        10065808     stlport_vc6_static:locale_impl.obj
 0002:00006818       __TI2?AVbad_cast@@         10065818     stlport_vc6_static:locale_impl.obj
 0002:000068e8       __CTA3?AVruntime_error@_STL@@ 100658e8     stlport_vc6_static:locale_impl.obj
 0002:000068f8       __TI3?AVruntime_error@_STL@@ 100658f8     stlport_vc6_static:locale_impl.obj
 0002:00007cc8       __CT??_R0?AVfailure@ios_base@_STL@@@8??0failure@ios_base@_STL@@QAE@ABV012@@Z268 10066cc8     stlport_vc6_static:ios.obj
 0002:00007ce8       __CTA3?AVfailure@ios_base@_STL@@ 10066ce8     stlport_vc6_static:ios.obj
 0002:00007cf8       __TI3?AVfailure@ios_base@_STL@@ 10066cf8     stlport_vc6_static:ios.obj
 0002:00009448       __IMPORT_DESCRIPTOR_KERNEL32 10068448     kernel32:KERNEL32.dll
 0002:0000945c       __IMPORT_DESCRIPTOR_WS2_32 1006845c     ws2_32:WS2_32.dll
 0002:00009470       __IMPORT_DESCRIPTOR_VERSION 10068470     Version:VERSION.dll
 0002:00009484       __IMPORT_DESCRIPTOR_USER32 10068484     user32:USER32.dll
 0002:00009498       __IMPORT_DESCRIPTOR_ADVAPI32 10068498     advapi32:ADVAPI32.dll
 0002:000094ac       __NULL_IMPORT_DESCRIPTOR   100684ac     kernel32:KERNEL32.dll
 0003:00000000       ___xc_a                    10069000     LIBCMT:crt0init.obj
 0003:00000050       ___xc_z                    10069050     LIBCMT:crt0init.obj
 0003:00000054       ___xi_a                    10069054     LIBCMT:crt0init.obj
 0003:00000068       ___xi_z                    10069068     LIBCMT:crt0init.obj
 0003:0000006c       ___xp_a                    1006906c     LIBCMT:crt0init.obj
 0003:00000074       ___xp_z                    10069074     LIBCMT:crt0init.obj
 0003:00000078       ___xt_a                    10069078     LIBCMT:crt0init.obj
 0003:00000080       ___xt_z                    10069080     LIBCMT:crt0init.obj
 0003:00000098       ?GUID_ATLVer30@ATL@@3U_GUID@@A 10069098     ClientStage.obj
 0003:000000a8       ??_R0?AVCException@Win32@OnlineGameLib@@@8 100690a8     ClientStage.obj
 0003:000000d8       ??_C@_0CM@FAKL@CGameClient?3?3Startup?5?9?5Unexpecte@ 100690d8     ClientStage.obj
 0003:00000104       ??_C@_03DMDD@?5?9?5?$AA@   10069104     ClientStage.obj
 0003:00000108       ??_C@_0CB@PNLE@CGameClient?3?3Startup?5Exception?3?5@ 10069108     ClientStage.obj
 0003:0000012c       ??_C@_0CO@DIAE@CConnectManager?3?3Cleanup?5Unexpec@ 1006912c     ClientStage.obj
 0003:0000015c       ??_C@_0CF@FBND@CConnectManager?3?3Cleanup?5Excepti@ 1006915c     ClientStage.obj
 0003:00000184       ??_C@_0BF@NCII@Unexpected?5exception?$AA@ 10069184     ClientStage.obj
 0003:0000019c       ??_C@_0M@JACO@Exception?3?5?$AA@ 1006919c     ClientStage.obj
 0003:000001a8       ??_C@_0BM@IICH@Got?5message?5plus?5extra?5data?$AA@ 100691a8     ClientStage.obj
 0003:000001c4       ??_C@_0CP@CHDL@Got?5a?5complete?5message?5and?5begin@ 100691c4     ClientStage.obj
 0003:000001f4       ??_C@_0CH@GFGG@found?5error?5and?5close?5this?5conne@ 100691f4     ClientStage.obj
 0003:0000021c       ??_C@_0P@NJGG@Too?5much?5data?$CB?$AA@ 1006921c     ClientStage.obj
 0003:0000022c       ??_C@_0CF@EEOI@ReadCompleted?5?9?5Unexpected?5excep@ 1006922c     ClientStage.obj
 0003:00000254       ??_C@_0BN@LAKI@ReadCompleted?5?9?5Exception?5?9?5?$AA@ 10069254     ClientStage.obj
 0003:00000274       ??_C@_0N@LL@basic_string?$AA@ 10069274     ClientStage.obj
 0003:00000290       ??_C@_0DL@EPFP@CSocketClient?3?3StopAcceptingConn@ 10069290     common:SocketClient.obj
 0003:000002cc       ??_C@_0CK@DJGJ@CSocketClient?3?3setsockopt?$CI?5SO_LI@ 100692cc     common:SocketClient.obj
 0003:000002f8       ??_R0?AVCWin32Exception@Win32@OnlineGameLib@@@8 100692f8     common:SocketClient.obj
 0003:0000032c       ??_C@_0CB@JPLF@CSocket?3?3CreateListeningSocket?$CI?$CJ@ 1006932c     common:SocketClient.obj
 0003:00000350       ??_C@_0CM@OMAI@CSocketClient?3?3Run?$CI?$CJ?5?9?5Unexpecte@ 10069350     common:SocketClient.obj
 0003:0000037c       ??_C@_0CD@NFAG@CSocketClient?3?3Run?$CI?$CJ?5?9?5Exception@ 1006937c     common:SocketClient.obj
 0003:000003a0       ??_C@_0DA@JKHM@CSocketClient?3?3Run?$CI?$CJ?5?9?5WaitForMu@ 100693a0     common:SocketClient.obj
 0003:000003d0       ??_C@_0CE@GDBM@CSocketClient?3?3OnRead?$CI?$CJ?5?9?5WSARec@ 100693d0     common:SocketClient.obj
 0003:000003f4       ??_C@_0CD@DNJI@CSocketClient?3?3Write?$CI?$CJ?5?9?5WSASend@ 100693f4     common:SocketClient.obj
 0003:00000418       ??_C@_0BP@FMJH@Server?5send?5cliper?5mode?5error?$CB?$AA@ 10069418     common:SocketClient.obj
 0003:00000438       ??_C@_0BD@JGMG@CIOBuffer?3?3AddData?$AA@ 10069438     common:IOBuffer.obj
 0003:0000044c       ??_C@_0BL@HPMM@Not?5enough?5space?5in?5buffer?$AA@ 1006944c     common:IOBuffer.obj
 0003:00000468       ??_C@_0BF@ICIL@CIOBuffer?3?3Release?$CI?$CJ?$AA@ 10069468     common:IOBuffer.obj
 0003:00000480       ??_C@_0BG@EBOE@m_ref?5is?5already?5zero?$AA@ 10069480     common:IOBuffer.obj
 0003:00000498       ??_C@_0CB@DJLG@CIOBuffer?3?3Allocator?3?3Allocate?$CI?$CJ@ 10069498     common:IOBuffer.obj
 0003:000004bc       ??_C@_0O@MNOP@Out?5of?5memory?$AA@ 100694bc     common:IOBuffer.obj
 0003:000004cc       ??_C@_0CA@EBKB@CIOBuffer?3?3Allocator?3?3Release?$CI?$CJ?$AA@ 100694cc     common:IOBuffer.obj
 0003:000004ec       ??_C@_0BA@GJNE@pBuffer?5is?5null?$AA@ 100694ec     common:IOBuffer.obj
 0003:00000500       ??_C@_0M@EHLI@?2common?4log?$AA@ 10069500     common:Utils.obj
 0003:0000050c       ??_C@_04BOIP@Info?$AA@     1006950c     common:Utils.obj
 0003:00000514       ??_C@_0M@EGHG@?$CFu?4?$CFu?4?$CFu?4?$CFu?$AA@ 10069514     common:Utils.obj
 0003:00000520       ??_C@_0BG@EJMD@GetCurrentDirectory?$CI?$CJ?$AA@ 10069520     common:Utils.obj
 0003:00000538       ??_C@_0CA@OFN@Failed?5to?5get?5current?5directory?$AA@ 10069538     common:Utils.obj
 0003:00000558       ??_C@_0N@PPGC@?$CF02d?$CF02d?$CF02d?$AA@ 10069558     common:Utils.obj
 0003:00000568       ??_C@_0P@INAO@?$CF02d?3?$CF02d?3?$CF02d?$AA@ 10069568     common:Utils.obj
 0003:00000578       ??_C@_04LDEB@?$CF02X?$AA@  10069578     common:Utils.obj
 0003:00000580       ??_C@_01BJG@?6?$AA@        10069580     common:Utils.obj
 0003:00000584       ??_C@_03MFGH@?5?5?5?$AA@   10069584     common:Utils.obj
 0003:00000588       ??_C@_01FCOA@?5?$AA@       10069588     common:Utils.obj
 0003:0000058c       ??_C@_0M@GPOH@UNAVAILABLE?$AA@ 1006958c     common:Utils.obj
 0003:00000598       ??_C@_0CF@HLGK@?2StringFileInfo?2?$CF04x?$CF04x?2FileVer@ 10069598     common:Utils.obj
 0003:000005c0       ??_C@_0BJ@KCFH@?2VarFileInfo?2Translation?$AA@ 100695c0     common:Utils.obj
 0003:000005dc       ??_C@_0BB@BKPP@CThread?3?3Start?$CI?$CJ?$AA@ 100695dc     common:Thread.obj
 0003:000005f0       ??_C@_0DJ@LIGE@Thread?5already?5running?5?9?5you?5can@ 100695f0     common:Thread.obj
 0003:0000062c       ??_C@_0CC@FANH@CThread?3?3Start?$CI?$CJ?5?9?5_beginthreade@ 1006962c     common:Thread.obj
 0003:00000650       ??_C@_0BA@HBN@CThread?3?3Wait?$CI?$CJ?$AA@ 10069650     common:Thread.obj
 0003:00000660       ??_C@_0CE@BDGB@Unexpected?5timeout?5on?5infinite?5w@ 10069660     common:Thread.obj
 0003:00000684       ??_C@_0CG@KFA@CThread?3?3Wait?$CI?$CJ?5?9?5WaitForSingleO@ 10069684     common:Thread.obj
 0003:000006ac       ??_C@_0DA@EJB@CEventSelect?3?3AssociateEvent?$CI?$CJ?5?9@ 100696ac     common:EventSelect.obj
 0003:000006dc       ??_C@_0DA@KGCI@CEventSelect?3?3AssociateEvent?$CI?$CJ?5?9@ 100696dc     common:EventSelect.obj
 0003:0000070c       ??_C@_0BN@CJDO@CUsesWinsock?3?3CUsesWinsock?$CI?$CJ?$AA@ 1006970c     common:UsesWinsock.obj
 0003:0000072c       ??_C@_0BB@ONCG@CEvent?3?3Create?$CI?$CJ?$AA@ 1006972c     common:Event.obj
 0003:00000740       ??_C@_0P@HMDE@CEvent?3?3Wait?$CI?$CJ?$AA@ 10069740     common:Event.obj
 0003:00000750       ??_C@_0CF@DJMK@CEvent?3?3Wait?$CI?$CJ?5?9?5WaitForSingleOb@ 10069750     common:Event.obj
 0003:00000778       ??_C@_0BA@DCDD@CEvent?3?3Reset?$CI?$CJ?$AA@ 10069778     common:Event.obj
 0003:00000788       ??_C@_0O@MACK@CEvent?3?3Set?$CI?$CJ?$AA@ 10069788     common:Event.obj
 0003:00000798       ??_C@_0BA@KPCO@CEvent?3?3Pulse?$CI?$CJ?$AA@ 10069798     common:Event.obj
 0003:000007a8       ??_R0?AVException@CSocket@Win32@OnlineGameLib@@@8 100697a8     common:Socket.obj
 0003:000007dc       ??_C@_0BD@MNEF@CSocket?3?3CSocket?$CI?$CJ?$AA@ 100697dc     common:Socket.obj
 0003:000007f0       ??_C@_0BB@KNCJ@CSocket?3?3Close?$CI?$CJ?$AA@ 100697f0     common:Socket.obj
 0003:00000804       ??_C@_0BJ@LAPF@CSocket?3?3AbortiveClose?$CI?$CJ?$AA@ 10069804     common:Socket.obj
 0003:00000820       ??_C@_0BF@GBAI@?5CSocket?3?3Shutdown?$CI?$CJ?$AA@ 10069820     common:Socket.obj
 0003:00000838       ??_C@_0BC@PEBC@CSocket?3?3Listen?$CI?$CJ?$AA@ 10069838     common:Socket.obj
 0003:0000084c       ??_C@_0BA@BAOB@CSocket?3?3Bind?$CI?$CJ?$AA@ 1006984c     common:Socket.obj
 0003:0000085c       ??_C@_0BD@HFBN@CSocket?3?3Connect?$CI?$CJ?$AA@ 1006985c     common:Socket.obj
 0003:00000870       ?__max@?$_STLP_mutex_spin@$0A@@_STL@@2IA 10069870     stlport_vc6_static:string_w.obj
 0003:00000874       ?_Message_table@?$__stl_debug_engine@_N@_STL@@2PAPBDA 10069874     stlport_vc6_static:dll_main.obj
 0003:000008e0       ??_C@_0BA@BABJ@Unknown?5problem?$AA@ 100698e0     stlport_vc6_static:dll_main.obj
 0003:000008f0       ??_C@_0EA@IBLM@Attempt?5to?5dereference?5null?5poin@ 100698f0     stlport_vc6_static:dll_main.obj
 0003:00000930       ??_C@_0EF@PEMF@Pointer?5overrrun?5?9?5safety?5margin@ 10069930     stlport_vc6_static:dll_main.obj
 0003:00000978       ??_C@_0EG@FMKN@Pointer?5underrun?5?9?5safety?5margin@ 10069978     stlport_vc6_static:dll_main.obj
 0003:000009c0       ??_C@_0DO@PKEM@Size?5of?5block?5passed?5to?5dealloca@ 100699c0     stlport_vc6_static:dll_main.obj
 0003:00000a00       ??_C@_0DH@BDIA@Deallocating?5a?5memory?5block?5allo@ 10069a00     stlport_vc6_static:dll_main.obj
 0003:00000a38       ??_C@_0CO@KLLE@Deallocating?5a?5block?5that?5was?5ne@ 10069a38     stlport_vc6_static:dll_main.obj
 0003:00000a68       ??_C@_0BP@GDAO@Memory?5block?5deallocated?5twice?$AA@ 10069a68     stlport_vc6_static:dll_main.obj
 0003:00000a88       ??_C@_0DE@HLBD@Iterator?5is?5singular?5?$CIadvanced?5b@ 10069a88     stlport_vc6_static:dll_main.obj
 0003:00000abc       ??_C@_0CL@NCEB@The?5advance?5would?5produce?5invali@ 10069abc     stlport_vc6_static:dll_main.obj
 0003:00000ae8       ??_C@_0DC@OBNO@Range?5?$FLfirst?0last?$CJ?5is?5not?5in?5ran@ 10069ae8     stlport_vc6_static:dll_main.obj
 0003:00000b1c       ??_C@_0CG@HOOA@Iterator?5is?5not?5in?5range?5?$FLfirst?0@ 10069b1c     stlport_vc6_static:dll_main.obj
 0003:00000b44       ??_C@_0BO@GKPA@Range?5?$FLfirst?0last?$CJ?5is?5invalid?$AA@ 10069b44     stlport_vc6_static:dll_main.obj
 0003:00000b64       ??_C@_0DE@CGHP@Iterator?5could?5not?5be?5dereferenc@ 10069b64     stlport_vc6_static:dll_main.obj
 0003:00000b98       ??_C@_0DH@HODG@Iterators?5used?5in?5expression?5are@ 10069b98     stlport_vc6_static:dll_main.obj
 0003:00000bd0       ??_C@_0FG@ODCB@Uninitialized?5or?5invalidated?5?$CIby@ 10069bd0     stlport_vc6_static:dll_main.obj
 0003:00000c28       ??_C@_0FF@HHHM@Uninitialized?5or?5invalidated?5?$CIby@ 10069c28     stlport_vc6_static:dll_main.obj
 0003:00000c80       ??_C@_0ED@HION@Uninitialized?5or?5invalidated?5?$CIby@ 10069c80     stlport_vc6_static:dll_main.obj
 0003:00000cc4       ??_C@_0CD@OMCN@Container?5doesn?8t?5own?5the?5iterat@ 10069cc4     stlport_vc6_static:dll_main.obj
 0003:00000ce8       ??_C@_0BE@DFCJ@Index?5out?5of?5bounds?$AA@ 10069ce8     stlport_vc6_static:dll_main.obj
 0003:00000cfc       ??_C@_0CK@CAO@Past?9the?9end?5iterator?5could?5not?5@ 10069cfc     stlport_vc6_static:dll_main.obj
 0003:00000d28       ??_C@_0DF@DMFN@Trying?5to?5extract?5an?5object?5out?5@ 10069d28     stlport_vc6_static:dll_main.obj
 0003:00000d60       ??_C@_0EH@JNGD@Taking?5an?5iterator?5out?5of?5destro@ 10069d60     stlport_vc6_static:dll_main.obj
 0003:00000da8       ??_C@_0DM@COIK@Invalid?5argument?5to?5operation?5?$CIs@ 10069da8     stlport_vc6_static:dll_main.obj
 0003:00000de4       ??_C@_0EA@MFLA@?6?$CFs?$CI?$CFd?$CJ?3?5STL?5error?5?3?5?$CFs?6?$CFs?$CI?$CFd?$CJ?3?5@ 10069de4     stlport_vc6_static:dll_main.obj
 0003:00000e24       ??_C@_0CE@LOFJ@?$CFs?$CI?$CFd?$CJ?3?5STL?5assertion?5failure?5?3?5@ 10069e24     stlport_vc6_static:dll_main.obj
 0003:00000e48       ??_C@_0BI@GDMA@?6?$CFs?$CI?$CFd?$CJ?3?5STL?5error?3?5?$CFs?6?$AA@ 10069e48     stlport_vc6_static:dll_main.obj
 0003:00000e60       ??_R0?AVrange_error@_STL@@@8 10069e60     stlport_vc6_static:dll_main.obj
 0003:00000e80       ??_R0?AVexception@@@8      10069e80     stlport_vc6_static:dll_main.obj
 0003:00000e98       ??_R0?AV__Named_exception@_STL@@@8 10069e98     stlport_vc6_static:dll_main.obj
 0003:00000ec0       ??_R0?AVruntime_error@_STL@@@8 10069ec0     stlport_vc6_static:dll_main.obj
 0003:00000ee8       ??_R0?AVout_of_range@_STL@@@8 10069ee8     stlport_vc6_static:dll_main.obj
 0003:00000f08       ??_R0?AVlogic_error@_STL@@@8 10069f08     stlport_vc6_static:dll_main.obj
 0003:00000f28       ??_R0?AVlength_error@_STL@@@8 10069f28     stlport_vc6_static:dll_main.obj
 0003:00000f48       ??_R0?AVinvalid_argument@_STL@@@8 10069f48     stlport_vc6_static:dll_main.obj
 0003:00000f70       ??_R0?AVoverflow_error@_STL@@@8 10069f70     stlport_vc6_static:dll_main.obj
 0003:00000f98       ??_R0?AVdomain_error@_STL@@@8 10069f98     stlport_vc6_static:dll_main.obj
 0003:00000fb8       ??_R0?AVunderflow_error@_STL@@@8 10069fb8     stlport_vc6_static:dll_main.obj
 0003:00000fe0       ??_R0?AVbad_alloc@std@@@8  10069fe0     stlport_vc6_static:dll_main.obj
 0003:00000ffc       ??_C@_0P@LJNA@bad?5allocation?$AA@ 10069ffc     stlport_vc6_static:dll_main.obj
 0003:0000100c       ??_C@_06EJHH@vector?$AA@   1006a00c     stlport_vc6_static:dll_main.obj
 0003:000010b4       ?_S_max@id@locale@_STL@@2IA 1006a0b4     stlport_vc6_static:locale_impl.obj
 0003:000010b8       ?id@?$collate@D@_STL@@2V0locale@2@A 1006a0b8     stlport_vc6_static:locale_impl.obj
 0003:000010bc       ?id@?$ctype@D@_STL@@2V0locale@2@A 1006a0bc     stlport_vc6_static:locale_impl.obj
 0003:000010c0       ?id@?$codecvt@DDH@_STL@@2V0locale@2@A 1006a0c0     stlport_vc6_static:locale_impl.obj
 0003:000010c4       ?id@?$codecvt@GDH@_STL@@2V0locale@2@A 1006a0c4     stlport_vc6_static:locale_impl.obj
 0003:000010c8       ?id@?$moneypunct@D$00@_STL@@2V0locale@2@A 1006a0c8     stlport_vc6_static:locale_impl.obj
 0003:000010cc       ?id@?$moneypunct@D$0A@@_STL@@2V0locale@2@A 1006a0cc     stlport_vc6_static:locale_impl.obj
 0003:000010d0       ?id@?$numpunct@D@_STL@@2V0locale@2@A 1006a0d0     stlport_vc6_static:locale_impl.obj
 0003:000010d4       ?id@?$messages@D@_STL@@2V0locale@2@A 1006a0d4     stlport_vc6_static:locale_impl.obj
 0003:000010d8       ?id@?$collate@G@_STL@@2V0locale@2@A 1006a0d8     stlport_vc6_static:locale_impl.obj
 0003:000010dc       ?id@?$ctype@G@_STL@@2V0locale@2@A 1006a0dc     stlport_vc6_static:locale_impl.obj
 0003:000010e0       ?id@?$moneypunct@G$00@_STL@@2V0locale@2@A 1006a0e0     stlport_vc6_static:locale_impl.obj
 0003:000010e4       ?id@?$moneypunct@G$0A@@_STL@@2V0locale@2@A 1006a0e4     stlport_vc6_static:locale_impl.obj
 0003:000010e8       ?id@?$numpunct@G@_STL@@2V0locale@2@A 1006a0e8     stlport_vc6_static:locale_impl.obj
 0003:000010ec       ?id@?$messages@G@_STL@@2V0locale@2@A 1006a0ec     stlport_vc6_static:locale_impl.obj
 0003:000010f0       ??_R0?AV_Locale_impl@_STL@@@8 1006a0f0     stlport_vc6_static:locale_impl.obj
 0003:00001110       ??_R0?AVbad_cast@@@8       1006a110     stlport_vc6_static:locale_impl.obj
 0003:00001128       ??_C@_08PJMK@bad_cast?$AA@ 1006a128     stlport_vc6_static:locale_impl.obj
 0003:00001138       ??_R0?AV?$time_put@DV?$ostreambuf_iterator@DV?$char_traits@D@_STL@@@_STL@@@_STL@@@8 1006a138     stlport_vc6_static:locale_impl.obj
 0003:00001190       ??_R0?AV?$num_put@DV?$ostreambuf_iterator@DV?$char_traits@D@_STL@@@_STL@@@_STL@@@8 1006a190     stlport_vc6_static:locale_impl.obj
 0003:000011e8       ??_R0?AV?$num_get@GV?$istreambuf_iterator@GV?$char_traits@G@_STL@@@_STL@@@_STL@@@8 1006a1e8     stlport_vc6_static:locale_impl.obj
 0003:00001240       ??_R0?AV?$codecvt@GDH@_STL@@@8 1006a240     stlport_vc6_static:locale_impl.obj
 0003:00001268       ??_R0?AV?$time_get@GV?$istreambuf_iterator@GV?$char_traits@G@_STL@@@_STL@@@_STL@@@8 1006a268     stlport_vc6_static:locale_impl.obj
 0003:000012c0       ??_R0?AV?$time_put@GV?$ostreambuf_iterator@GV?$char_traits@G@_STL@@@_STL@@@_STL@@@8 1006a2c0     stlport_vc6_static:locale_impl.obj
 0003:00001318       ??_R0?AV?$num_get@DV?$istreambuf_iterator@DV?$char_traits@D@_STL@@@_STL@@@_STL@@@8 1006a318     stlport_vc6_static:locale_impl.obj
 0003:00001370       ??_R0?AV?$money_get@GV?$istreambuf_iterator@GV?$char_traits@G@_STL@@@_STL@@@_STL@@@8 1006a370     stlport_vc6_static:locale_impl.obj
 0003:000013c8       ??_R0?AV?$money_put@GV?$ostreambuf_iterator@GV?$char_traits@G@_STL@@@_STL@@@_STL@@@8 1006a3c8     stlport_vc6_static:locale_impl.obj
 0003:00001420       ??_R0?AVtime_base@_STL@@@8 1006a420     stlport_vc6_static:locale_impl.obj
 0003:00001440       ??_R0?AV?$time_get@DV?$istreambuf_iterator@DV?$char_traits@D@_STL@@@_STL@@@_STL@@@8 1006a440     stlport_vc6_static:locale_impl.obj
 0003:00001498       ??_R0?AV?$money_put@DV?$ostreambuf_iterator@DV?$char_traits@D@_STL@@@_STL@@@_STL@@@8 1006a498     stlport_vc6_static:locale_impl.obj
 0003:000014f0       ??_R0?AV?$money_get@DV?$istreambuf_iterator@DV?$char_traits@D@_STL@@@_STL@@@_STL@@@8 1006a4f0     stlport_vc6_static:locale_impl.obj
 0003:00001548       ??_R0?AV?$num_put@GV?$ostreambuf_iterator@GV?$char_traits@G@_STL@@@_STL@@@_STL@@@8 1006a548     stlport_vc6_static:locale_impl.obj
 0003:000015a0       ??_R0?AVcodecvt_base@_STL@@@8 1006a5a0     stlport_vc6_static:locale_impl.obj
 0003:000015c0       ??_R0?AV?$codecvt@DDH@_STL@@@8 1006a5c0     stlport_vc6_static:locale_impl.obj
 0003:000015e8       ??_R0?AV?$collate@G@_STL@@@8 1006a5e8     stlport_vc6_static:locale_impl.obj
 0003:00001608       ??_R0?AV?$collate@D@_STL@@@8 1006a608     stlport_vc6_static:locale_impl.obj
 0003:00001628       ??_R0?AV?$numpunct@G@_STL@@@8 1006a628     stlport_vc6_static:locale_impl.obj
 0003:00001648       ??_R0?AV?$numpunct@D@_STL@@@8 1006a648     stlport_vc6_static:locale_impl.obj
 0003:00001668       ??_R0?AVctype_base@_STL@@@8 1006a668     stlport_vc6_static:locale_impl.obj
 0003:00001688       ??_R0?AU_Refcount_Base@_STL@@@8 1006a688     stlport_vc6_static:locale_impl.obj
 0003:000016b0       ??_R0?AVfacet@locale@_STL@@@8 1006a6b0     stlport_vc6_static:locale_impl.obj
 0003:000016d0       ??_R0?AV?$ctype@G@_STL@@@8 1006a6d0     stlport_vc6_static:locale_impl.obj
 0003:000016f0       ??_C@_01FKHJ@C?$AA@        1006a6f0     stlport_vc6_static:locale_impl.obj
 0003:000016f4       ??_C@_0N@LLBA@locale?5error?$AA@ 1006a6f4     stlport_vc6_static:locale_impl.obj
 0003:00001704       ??_C@_0BC@LDGB@bad?5locale?5name?3?5?$AA@ 1006a704     stlport_vc6_static:locale_impl.obj
 0003:00001718       ??_C@_01FDHG@?$CK?$AA@     1006a718     stlport_vc6_static:locale_impl.obj
 0003:0000171c       ?_S_was_synced@ios_base@_STL@@1_NA 1006a71c     stlport_vc6_static:iostream.obj
 0003:00001720       ??_R0?AVios_base@_STL@@@8  1006a720     stlport_vc6_static:iostream.obj
 0003:00001740       ??_R0?AV?$basic_ios@DV?$char_traits@D@_STL@@@_STL@@@8 1006a740     stlport_vc6_static:iostream.obj
 0003:00001778       ??_R0?AV?$basic_istream@DV?$char_traits@D@_STL@@@_STL@@@8 1006a778     stlport_vc6_static:iostream.obj
 0003:000017b8       ??_R0?AV?$basic_ostream@DV?$char_traits@D@_STL@@@_STL@@@8 1006a7b8     stlport_vc6_static:iostream.obj
 0003:000017f8       ??_R0?AV?$basic_ios@GV?$char_traits@G@_STL@@@_STL@@@8 1006a7f8     stlport_vc6_static:iostream.obj
 0003:00001830       ??_R0?AV?$basic_istream@GV?$char_traits@G@_STL@@@_STL@@@8 1006a830     stlport_vc6_static:iostream.obj
 0003:00001870       ??_R0?AV?$basic_ostream@GV?$char_traits@G@_STL@@@_STL@@@8 1006a870     stlport_vc6_static:iostream.obj
 0003:000018b0       ??_R0?AV?$basic_filebuf@DV?$char_traits@D@_STL@@@_STL@@@8 1006a8b0     stlport_vc6_static:iostream.obj
 0003:000018f0       ??_R0?AV?$basic_streambuf@DV?$char_traits@D@_STL@@@_STL@@@8 1006a8f0     stlport_vc6_static:iostream.obj
 0003:00001930       ??_R0?AV?$basic_filebuf@GV?$char_traits@G@_STL@@@_STL@@@8 1006a930     stlport_vc6_static:iostream.obj
 0003:00001970       ??_R0?AV?$basic_streambuf@GV?$char_traits@G@_STL@@@_STL@@@8 1006a970     stlport_vc6_static:iostream.obj
 0003:000019b0       ??_R0?AVstdio_ostreambuf@_SgI@@@8 1006a9b0     stlport_vc6_static:iostream.obj
 0003:000019d8       ??_R0?AVstdio_streambuf_base@_SgI@@@8 1006a9d8     stlport_vc6_static:iostream.obj
 0003:00001a00       ??_R0?AVstdio_istreambuf@_SgI@@@8 1006aa00     stlport_vc6_static:iostream.obj
 0003:00001a28       ??_R0?AVfailure@ios_base@_STL@@@8 1006aa28     stlport_vc6_static:ios.obj
 0003:00001a4c       ??_C@_0M@COKC@ios?5failure?$AA@ 1006aa4c     stlport_vc6_static:ios.obj
 0003:00001a58       ?_M_page_size@_Filebuf_base@_STL@@1IA 1006aa58     stlport_vc6_static:fstream.obj
 0003:00001a60       ??_R0?AV?$basic_ifstream@DV?$char_traits@D@_STL@@@_STL@@@8 1006aa60     stlport_vc6_static:fstream.obj
 0003:00001aa0       ??_R0?AV?$basic_ofstream@DV?$char_traits@D@_STL@@@_STL@@@8 1006aaa0     stlport_vc6_static:fstream.obj
 0003:00001ae0       ??_R0?AV?$basic_fstream@DV?$char_traits@D@_STL@@@_STL@@@8 1006aae0     stlport_vc6_static:fstream.obj
 0003:00001b20       ??_R0?AV?$basic_iostream@DV?$char_traits@D@_STL@@@_STL@@@8 1006ab20     stlport_vc6_static:fstream.obj
 0003:00001b60       ??_R0?AV?$basic_ifstream@GV?$char_traits@G@_STL@@@_STL@@@8 1006ab60     stlport_vc6_static:fstream.obj
 0003:00001ba0       ??_R0?AV?$basic_ofstream@GV?$char_traits@G@_STL@@@_STL@@@8 1006aba0     stlport_vc6_static:fstream.obj
 0003:00001be0       ??_R0?AV?$basic_fstream@GV?$char_traits@G@_STL@@@_STL@@@8 1006abe0     stlport_vc6_static:fstream.obj
 0003:00001c20       ??_R0?AV?$basic_iostream@GV?$char_traits@G@_STL@@@_STL@@@8 1006ac20     stlport_vc6_static:fstream.obj
 0003:00001c60       ??_R0?AVmessages_base@_STL@@@8 1006ac60     stlport_vc6_static:messages.obj
 0003:00001c88       ??_R0?AV?$messages@D@_STL@@@8 1006ac88     stlport_vc6_static:messages.obj
 0003:00001ca8       ??_R0?AV_Messages@_STL@@@8 1006aca8     stlport_vc6_static:messages.obj
 0003:00001cc8       ??_R0?AV?$messages@G@_STL@@@8 1006acc8     stlport_vc6_static:messages.obj
 0003:00001ce8       ??_C@_04NCCD@true?$AA@     1006ace8     stlport_vc6_static:numpunct.obj
 0003:00001cf0       ??_C@_05NAGO@false?$AA@    1006acf0     stlport_vc6_static:numpunct.obj
 0003:00001cf8       ??_C@_19MHCJ@?$AAt?$AAr?$AAu?$AAe?$AA?$AA@ 1006acf8     stlport_vc6_static:numpunct.obj
 0003:00001d04       ??_C@_1M@BPLO@?$AAf?$AAa?$AAl?$AAs?$AAe?$AA?$AA@ 1006ad04     stlport_vc6_static:numpunct.obj
 0003:00001d10       ??_R0?AV?$ctype@D@_STL@@@8 1006ad10     stlport_vc6_static:ctype.obj
 0003:00001d30       ??_R0?AVmoney_base@_STL@@@8 1006ad30     stlport_vc6_static:monetary.obj
 0003:00001d50       ??_R0?AV?$moneypunct@D$00@_STL@@@8 1006ad50     stlport_vc6_static:monetary.obj
 0003:00001d78       ??_R0?AV?$moneypunct@D$0A@@_STL@@@8 1006ad78     stlport_vc6_static:monetary.obj
 0003:00001da0       ??_R0?AV?$moneypunct@G$00@_STL@@@8 1006ada0     stlport_vc6_static:monetary.obj
 0003:00001dc8       ??_R0?AV?$moneypunct@G$0A@@_STL@@@8 1006adc8     stlport_vc6_static:monetary.obj
 0003:00001df0       ??_C@_0BF@HIMH@?$CFa?5?$CFb?5?$CFe?5?$CFH?3?$CFM?3?$CFS?5?$CFY?$AA@ 1006adf0     stlport_vc6_static:time_facets.obj
 0003:00001e08       ??_C@_08BBCI@?$CFm?1?$CFd?1?$CFy?$AA@ 1006ae08     stlport_vc6_static:time_facets.obj
 0003:00001e14       ??_C@_08DKN@?$CFH?3?$CFM?3?$CFS?$AA@ 1006ae14     stlport_vc6_static:time_facets.obj
 0003:00001e20       ??_C@_02DBLP@PM?$AA@       1006ae20     stlport_vc6_static:time_facets.obj
 0003:00001e24       ??_C@_02ENLM@AM?$AA@       1006ae24     stlport_vc6_static:time_facets.obj
 0003:00001e28       ??_C@_04BALP@?$CF2ld?$AA@  1006ae28     stlport_vc6_static:time_facets.obj
 0003:00001e30       ??_C@_03JFOM@?$CFld?$AA@   1006ae30     stlport_vc6_static:time_facets.obj
 0003:00001e34       ??_C@_05HBMD@?$CF?42ld?$AA@ 1006ae34     stlport_vc6_static:time_facets.obj
 0003:00001e58       ??_C@_0L@JIBM@0123456789?$AA@ 1006ae58     stlport_vc6_static:num_get_float.obj
 0003:00001e74       ??_C@_03JODP@NaN?$AA@      1006ae74     stlport_vc6_static:num_put_float.obj
 0003:00001e78       ??_C@_03IOAK@nan?$AA@      1006ae78     stlport_vc6_static:num_put_float.obj
 0003:00001e7c       ??_C@_03PCAH@Inf?$AA@      1006ae7c     stlport_vc6_static:num_put_float.obj
 0003:00001e80       ??_C@_03LANC@inf?$AA@      1006ae80     stlport_vc6_static:num_put_float.obj
 0003:00002168       ??_C@_07PCLE@LC_TIME?$AA@  1006b168     stlport_vc6_static:c_locale.obj
 0003:00002170       ??_C@_0L@NKG@LC_NUMERIC?$AA@ 1006b170     stlport_vc6_static:c_locale.obj
 0003:0000217c       ??_C@_0M@CBIH@LC_MONETARY?$AA@ 1006b17c     stlport_vc6_static:c_locale.obj
 0003:00002188       ??_C@_08LFGE@LC_CTYPE?$AA@ 1006b188     stlport_vc6_static:c_locale.obj
 0003:00002194       ??_C@_0L@CFLC@LC_COLLATE?$AA@ 1006b194     stlport_vc6_static:c_locale.obj
 0003:000021a0       ??_C@_06GCPK@LC_ALL?$AA@   1006b1a0     stlport_vc6_static:c_locale.obj
 0003:000021a8       ??_C@_0O@GLHB@united?9states?$AA@ 1006b1a8     stlport_vc6_static:c_locale.obj
 0003:000021b8       ??_C@_0P@IIKK@united?9kingdom?$AA@ 1006b1b8     stlport_vc6_static:c_locale.obj
 0003:000021c8       ??_C@_03NCKB@TTO?$AA@      1006b1c8     stlport_vc6_static:c_locale.obj
 0003:000021cc       ??_C@_0BC@FHBO@trinidad?5?$CG?5tobago?$AA@ 1006b1cc     stlport_vc6_static:c_locale.obj
 0003:000021e0       ??_C@_0M@BDFM@south?9korea?$AA@ 1006b1e0     stlport_vc6_static:c_locale.obj
 0003:000021ec       ??_C@_0N@CKFA@south?9africa?$AA@ 1006b1ec     stlport_vc6_static:c_locale.obj
 0003:000021fc       ??_C@_03MEBO@KOR?$AA@      1006b1fc     stlport_vc6_static:c_locale.obj
 0003:00002200       ??_C@_0M@HNHN@south?5korea?$AA@ 1006b200     stlport_vc6_static:c_locale.obj
 0003:0000220c       ??_C@_03HGOF@ZAF?$AA@      1006b20c     stlport_vc6_static:c_locale.obj
 0003:00002210       ??_C@_0N@MKDO@south?5africa?$AA@ 1006b210     stlport_vc6_static:c_locale.obj
 0003:00002220       ??_C@_03OLMJ@SVK?$AA@      1006b220     stlport_vc6_static:c_locale.obj
 0003:00002224       ??_C@_06KFFJ@slovak?$AA@   1006b224     stlport_vc6_static:c_locale.obj
 0003:0000222c       ??_C@_03BCHG@PRI?$AA@      1006b22c     stlport_vc6_static:c_locale.obj
 0003:00002230       ??_C@_0M@NMAC@puerto?9rico?$AA@ 1006b230     stlport_vc6_static:c_locale.obj
 0003:0000223c       ??_C@_08EJOH@pr?9china?$AA@ 1006b23c     stlport_vc6_static:c_locale.obj
 0003:00002248       ??_C@_08CHMG@pr?5china?$AA@ 1006b248     stlport_vc6_static:c_locale.obj
 0003:00002254       ??_C@_02OCJK@nz?$AA@       1006b254     stlport_vc6_static:c_locale.obj
 0003:00002258       ??_C@_03PKEB@NZL?$AA@      1006b258     stlport_vc6_static:c_locale.obj
 0003:0000225c       ??_C@_0M@MMKA@new?9zealand?$AA@ 1006b25c     stlport_vc6_static:c_locale.obj
 0003:00002268       ??_C@_03MBDE@HKG?$AA@      1006b268     stlport_vc6_static:c_locale.obj
 0003:0000226c       ??_C@_09MGEH@hong?9kong?$AA@ 1006b26c     stlport_vc6_static:c_locale.obj
 0003:00002278       ??_C@_03LDKP@NLD?$AA@      1006b278     stlport_vc6_static:c_locale.obj
 0003:0000227c       ??_C@_07CCAK@holland?$AA@  1006b27c     stlport_vc6_static:c_locale.obj
 0003:00002284       ??_C@_0O@MEPL@great?5britain?$AA@ 1006b284     stlport_vc6_static:c_locale.obj
 0003:00002294       ??_C@_07LGIB@england?$AA@  1006b294     stlport_vc6_static:c_locale.obj
 0003:0000229c       ??_C@_03IOJH@CZE?$AA@      1006b29c     stlport_vc6_static:c_locale.obj
 0003:000022a0       ??_C@_05BMOA@czech?$AA@    1006b2a0     stlport_vc6_static:c_locale.obj
 0003:000022a8       ??_C@_03GCGK@CHN?$AA@      1006b2a8     stlport_vc6_static:c_locale.obj
 0003:000022ac       ??_C@_05NMPB@china?$AA@    1006b2ac     stlport_vc6_static:c_locale.obj
 0003:000022b4       ??_C@_03OFKF@GBR?$AA@      1006b2b4     stlport_vc6_static:c_locale.obj
 0003:000022b8       ??_C@_07GN@britain?$AA@    1006b2b8     stlport_vc6_static:c_locale.obj
 0003:000022c0       ??_C@_03EKCI@USA?$AA@      1006b2c0     stlport_vc6_static:c_locale.obj
 0003:000022c4       ??_C@_07DLAK@america?$AA@  1006b2c4     stlport_vc6_static:c_locale.obj
 0003:000022cc       ??_C@_03IPEP@usa?$AA@      1006b2cc     stlport_vc6_static:c_locale.obj
 0003:000022d0       ??_C@_02PILH@us?$AA@       1006b2d0     stlport_vc6_static:c_locale.obj
 0003:000022d4       ??_C@_02FHP@uk?$AA@        1006b2d4     stlport_vc6_static:c_locale.obj
 0003:000022d8       ??_C@_05DEAI@swiss?$AA@    1006b2d8     stlport_vc6_static:c_locale.obj
 0003:000022e0       ??_C@_03LPLK@SVF?$AA@      1006b2e0     stlport_vc6_static:c_locale.obj
 0003:000022e4       ??_C@_0BA@LIAF@swedish?9finland?$AA@ 1006b2e4     stlport_vc6_static:c_locale.obj
 0003:000022f4       ??_C@_03JHNH@ESV?$AA@      1006b2f4     stlport_vc6_static:c_locale.obj
 0003:000022f8       ??_C@_0BC@FMEG@spanish?9venezuela?$AA@ 1006b2f8     stlport_vc6_static:c_locale.obj
 0003:0000230c       ??_C@_03JGIK@ESY?$AA@      1006b30c     stlport_vc6_static:c_locale.obj
 0003:00002310       ??_C@_0BA@BNMG@spanish?9uruguay?$AA@ 1006b310     stlport_vc6_static:c_locale.obj
 0003:00002320       ??_C@_03GIGO@ESU?$AA@      1006b320     stlport_vc6_static:c_locale.obj
 0003:00002324       ??_C@_0BE@BKDJ@spanish?9puerto?5rico?$AA@ 1006b324     stlport_vc6_static:c_locale.obj
 0003:00002338       ??_C@_03DNIL@ESR?$AA@      1006b338     stlport_vc6_static:c_locale.obj
 0003:0000233c       ??_C@_0N@JIBL@spanish?9peru?$AA@ 1006b33c     stlport_vc6_static:c_locale.obj
 0003:0000234c       ??_C@_03GJDD@ESZ?$AA@      1006b34c     stlport_vc6_static:c_locale.obj
 0003:00002350       ??_C@_0BB@OGOF@spanish?9paraguay?$AA@ 1006b350     stlport_vc6_static:c_locale.obj
 0003:00002364       ??_C@_03GLEC@ESA?$AA@      1006b364     stlport_vc6_static:c_locale.obj
 0003:00002368       ??_C@_0P@LLFA@spanish?9panama?$AA@ 1006b368     stlport_vc6_static:c_locale.obj
 0003:00002378       ??_C@_03DPPK@ESI?$AA@      1006b378     stlport_vc6_static:c_locale.obj
 0003:0000237c       ??_C@_0BC@BBJM@spanish?9nicaragua?$AA@ 1006b37c     stlport_vc6_static:c_locale.obj
 0003:00002390       ??_C@_03GKBP@ESN?$AA@      1006b390     stlport_vc6_static:c_locale.obj
 0003:00002394       ??_C@_0P@NJBN@spanish?9modern?$AA@ 1006b394     stlport_vc6_static:c_locale.obj
 0003:000023a4       ??_C@_03JFKG@ESM?$AA@      1006b3a4     stlport_vc6_static:c_locale.obj
 0003:000023a8       ??_C@_0BA@NHDN@spanish?9mexican?$AA@ 1006b3a8     stlport_vc6_static:c_locale.obj
 0003:000023b8       ??_C@_03JFGN@ESH?$AA@      1006b3b8     stlport_vc6_static:c_locale.obj
 0003:000023bc       ??_C@_0BB@JHOJ@spanish?9honduras?$AA@ 1006b3bc     stlport_vc6_static:c_locale.obj
 0003:000023d0       ??_C@_03JEDA@ESG?$AA@      1006b3d0     stlport_vc6_static:c_locale.obj
 0003:000023d4       ??_C@_0BC@BOOM@spanish?9guatemala?$AA@ 1006b3d4     stlport_vc6_static:c_locale.obj
 0003:000023e8       ??_C@_03MBBO@ESE?$AA@      1006b3e8     stlport_vc6_static:c_locale.obj
 0003:000023ec       ??_C@_0BE@EELI@spanish?9el?5salvador?$AA@ 1006b3ec     stlport_vc6_static:c_locale.obj
 0003:00002400       ??_C@_03DOKH@ESF?$AA@      1006b400     stlport_vc6_static:c_locale.obj
 0003:00002404       ??_C@_0BA@POAE@spanish?9ecuador?$AA@ 1006b404     stlport_vc6_static:c_locale.obj
 0003:00002414       ??_C@_03GLIJ@ESD?$AA@      1006b414     stlport_vc6_static:c_locale.obj
 0003:00002418       ??_C@_0BL@LDKN@spanish?9dominican?5republic?$AA@ 1006b418     stlport_vc6_static:c_locale.obj
 0003:00002434       ??_C@_03DOGM@ESC?$AA@      1006b434     stlport_vc6_static:c_locale.obj
 0003:00002438       ??_C@_0BD@HPMH@spanish?9costa?5rica?$AA@ 1006b438     stlport_vc6_static:c_locale.obj
 0003:0000244c       ??_C@_03MAII@ESO?$AA@      1006b44c     stlport_vc6_static:c_locale.obj
 0003:00002450       ??_C@_0BB@NDDK@spanish?9colombia?$AA@ 1006b450     stlport_vc6_static:c_locale.obj
 0003:00002464       ??_C@_03DPDB@ESL?$AA@      1006b464     stlport_vc6_static:c_locale.obj
 0003:00002468       ??_C@_0O@BJHA@spanish?9chile?$AA@ 1006b468     stlport_vc6_static:c_locale.obj
 0003:00002478       ??_C@_03JEPL@ESB?$AA@      1006b478     stlport_vc6_static:c_locale.obj
 0003:0000247c       ??_C@_0BA@OBNG@spanish?9bolivia?$AA@ 1006b47c     stlport_vc6_static:c_locale.obj
 0003:0000248c       ??_C@_03JHBM@ESS?$AA@      1006b48c     stlport_vc6_static:c_locale.obj
 0003:00002490       ??_C@_0BC@EFAM@spanish?9argentina?$AA@ 1006b490     stlport_vc6_static:c_locale.obj
 0003:000024a4       ??_C@_03MOII@PTB?$AA@      1006b4a4     stlport_vc6_static:c_locale.obj
 0003:000024a8       ??_C@_0BF@KMMM@portuguese?9brazilian?$AA@ 1006b4a8     stlport_vc6_static:c_locale.obj
 0003:000024c0       ??_C@_03IJMG@NON?$AA@      1006b4c0     stlport_vc6_static:c_locale.obj
 0003:000024c4       ??_C@_0BC@BAAE@norwegian?9nynorsk?$AA@ 1006b4c4     stlport_vc6_static:c_locale.obj
 0003:000024d8       ??_C@_0BB@PBHK@norwegian?9bokmal?$AA@ 1006b4d8     stlport_vc6_static:c_locale.obj
 0003:000024ec       ??_C@_03NOFC@NOR?$AA@      1006b4ec     stlport_vc6_static:c_locale.obj
 0003:000024f0       ??_C@_09EHKL@norwegian?$AA@ 1006b4f0     stlport_vc6_static:c_locale.obj
 0003:000024fc       ??_C@_03COKG@ITS?$AA@      1006b4fc     stlport_vc6_static:c_locale.obj
 0003:00002500       ??_C@_0O@BEAN@italian?9swiss?$AA@ 1006b500     stlport_vc6_static:c_locale.obj
 0003:00002510       ??_C@_0O@OIFK@irish?9english?$AA@ 1006b510     stlport_vc6_static:c_locale.obj
 0003:00002520       ??_C@_03NIFM@DES?$AA@      1006b520     stlport_vc6_static:c_locale.obj
 0003:00002524       ??_C@_0N@NBPL@german?9swiss?$AA@ 1006b524     stlport_vc6_static:c_locale.obj
 0003:00002534       ??_C@_03HAHB@DEL?$AA@      1006b534     stlport_vc6_static:c_locale.obj
 0003:00002538       ??_C@_0BC@ICFJ@german?9luxembourg?$AA@ 1006b538     stlport_vc6_static:c_locale.obj
 0003:0000254c       ??_C@_03HBCM@DEC?$AA@      1006b54c     stlport_vc6_static:c_locale.obj
 0003:00002550       ??_C@_0BE@GGPC@german?9lichtenstein?$AA@ 1006b550     stlport_vc6_static:c_locale.obj
 0003:00002564       ??_C@_03CEAC@DEA?$AA@      1006b564     stlport_vc6_static:c_locale.obj
 0003:00002568       ??_C@_0BA@MKDC@german?9austrian?$AA@ 1006b568     stlport_vc6_static:c_locale.obj
 0003:00002578       ??_C@_03HHIN@FRS?$AA@      1006b578     stlport_vc6_static:c_locale.obj
 0003:0000257c       ??_C@_0N@ODNB@french?9swiss?$AA@ 1006b57c     stlport_vc6_static:c_locale.obj
 0003:0000258c       ??_C@_03NPKA@FRL?$AA@      1006b58c     stlport_vc6_static:c_locale.obj
 0003:00002590       ??_C@_0BC@MGCM@french?9luxembourg?$AA@ 1006b590     stlport_vc6_static:c_locale.obj
 0003:000025a4       ??_C@_03NOPN@FRC?$AA@      1006b5a4     stlport_vc6_static:c_locale.obj
 0003:000025a8       ??_C@_0BA@NABK@french?9canadian?$AA@ 1006b5a8     stlport_vc6_static:c_locale.obj
 0003:000025b8       ??_C@_03HEGK@FRB?$AA@      1006b5b8     stlport_vc6_static:c_locale.obj
 0003:000025bc       ??_C@_0P@CJNO@french?9belgian?$AA@ 1006b5bc     stlport_vc6_static:c_locale.obj
 0003:000025cc       ??_C@_0M@LJOL@english?9usa?$AA@ 1006b5cc     stlport_vc6_static:c_locale.obj
 0003:000025d8       ??_C@_0L@FMNC@english?9us?$AA@ 1006b5d8     stlport_vc6_static:c_locale.obj
 0003:000025e4       ??_C@_03HMN@ENG?$AA@       1006b5e4     stlport_vc6_static:c_locale.obj
 0003:000025e8       ??_C@_0L@KBBK@english?9uk?$AA@ 1006b5e8     stlport_vc6_static:c_locale.obj
 0003:000025f4       ??_C@_03FBAE@ENT?$AA@      1006b5f4     stlport_vc6_static:c_locale.obj
 0003:000025f8       ??_C@_0BK@NDDE@english?9trinidad?5y?5tobago?$AA@ 1006b5f8     stlport_vc6_static:c_locale.obj
 0003:00002614       ??_C@_03EOB@ENS?$AA@       1006b614     stlport_vc6_static:c_locale.obj
 0003:00002618       ??_C@_0BF@LKML@english?9south?5africa?$AA@ 1006b618     stlport_vc6_static:c_locale.obj
 0003:00002630       ??_C@_03PKMO@ENZ?$AA@      1006b630     stlport_vc6_static:c_locale.obj
 0003:00002634       ??_C@_0L@EGPP@english?9nz?$AA@ 1006b634     stlport_vc6_static:c_locale.obj
 0003:00002640       ??_C@_03FDLO@ENJ?$AA@      1006b640     stlport_vc6_static:c_locale.obj
 0003:00002644       ??_C@_0BA@HLH@english?9jamaica?$AA@ 1006b644     stlport_vc6_static:c_locale.obj
 0003:00002654       ??_C@_03KMAH@ENI?$AA@      1006b654     stlport_vc6_static:c_locale.obj
 0003:00002658       ??_C@_0M@PMJI@english?9ire?$AA@ 1006b658     stlport_vc6_static:c_locale.obj
 0003:00002664       ??_C@_03HAG@ENB?$AA@       1006b664     stlport_vc6_static:c_locale.obj
 0003:00002668       ??_C@_0BC@HINE@english?9caribbean?$AA@ 1006b668     stlport_vc6_static:c_locale.obj
 0003:0000267c       ??_C@_0M@DCFH@english?9can?$AA@ 1006b67c     stlport_vc6_static:c_locale.obj
 0003:00002688       ??_C@_03KMMM@ENL?$AA@      1006b688     stlport_vc6_static:c_locale.obj
 0003:0000268c       ??_C@_0P@DGHK@english?9belize?$AA@ 1006b68c     stlport_vc6_static:c_locale.obj
 0003:0000269c       ??_C@_0M@FLHK@english?9aus?$AA@ 1006b69c     stlport_vc6_static:c_locale.obj
 0003:000026a8       ??_C@_0BB@HNCK@english?9american?$AA@ 1006b6a8     stlport_vc6_static:c_locale.obj
 0003:000026bc       ??_C@_0O@PAMI@dutch?9belgian?$AA@ 1006b6bc     stlport_vc6_static:c_locale.obj
 0003:000026cc       ??_C@_03MKIM@CHT?$AA@      1006b6cc     stlport_vc6_static:c_locale.obj
 0003:000026d0       ??_C@_0BE@FPEJ@chinese?9traditional?$AA@ 1006b6d0     stlport_vc6_static:c_locale.obj
 0003:000026e4       ??_C@_0BC@CHFL@chinese?9singapore?$AA@ 1006b6e4     stlport_vc6_static:c_locale.obj
 0003:000026f8       ??_C@_0BD@DCMH@chinese?9simplified?$AA@ 1006b6f8     stlport_vc6_static:c_locale.obj
 0003:0000270c       ??_C@_0BB@JMOE@chinese?9hongkong?$AA@ 1006b70c     stlport_vc6_static:c_locale.obj
 0003:00002720       ??_C@_03JPGJ@CHS?$AA@      1006b720     stlport_vc6_static:c_locale.obj
 0003:00002724       ??_C@_07NGFN@chinese?$AA@  1006b724     stlport_vc6_static:c_locale.obj
 0003:0000272c       ??_C@_03NEEG@ZHI?$AA@      1006b72c     stlport_vc6_static:c_locale.obj
 0003:00002730       ??_C@_03PCOI@chi?$AA@      1006b730     stlport_vc6_static:c_locale.obj
 0003:00002734       ??_C@_03HONB@ZHH?$AA@      1006b734     stlport_vc6_static:c_locale.obj
 0003:00002738       ??_C@_03FIHP@chh?$AA@      1006b738     stlport_vc6_static:c_locale.obj
 0003:0000273c       ??_C@_03KNJB@ENC?$AA@      1006b73c     stlport_vc6_static:c_locale.obj
 0003:00002740       ??_C@_08HFLO@canadian?$AA@ 1006b740     stlport_vc6_static:c_locale.obj
 0003:0000274c       ??_C@_03EMNN@NLB?$AA@      1006b74c     stlport_vc6_static:c_locale.obj
 0003:00002750       ??_C@_07INIJ@belgian?$AA@  1006b750     stlport_vc6_static:c_locale.obj
 0003:00002758       ??_C@_03PILP@ENA?$AA@      1006b758     stlport_vc6_static:c_locale.obj
 0003:0000275c       ??_C@_0L@LCCA@australian?$AA@ 1006b75c     stlport_vc6_static:c_locale.obj
 0003:00002768       ??_C@_0BB@BJIO@american?9english?$AA@ 1006b768     stlport_vc6_static:c_locale.obj
 0003:0000277c       ??_C@_0BB@DAGO@american?5english?$AA@ 1006b77c     stlport_vc6_static:c_locale.obj
 0003:00002790       ??_C@_03PLJD@ENU?$AA@      1006b790     stlport_vc6_static:c_locale.obj
 0003:00002794       ??_C@_08HENB@american?$AA@ 1006b794     stlport_vc6_static:c_locale.obj
 0003:000027a0       ??_C@_0N@LEBO@LC_MESSAGES?$DN?$AA@ 1006b7a0     stlport_vc6_static:c_locale.obj
 0003:000027b0       ??_C@_0N@LBMC@LC_MONETARY?$DN?$AA@ 1006b7b0     stlport_vc6_static:c_locale.obj
 0003:000027c0       ??_C@_0M@NCMG@LC_COLLATE?$DN?$AA@ 1006b7c0     stlport_vc6_static:c_locale.obj
 0003:000027cc       ??_C@_0M@OJOO@LC_NUMERIC?$DN?$AA@ 1006b7cc     stlport_vc6_static:c_locale.obj
 0003:000027d8       ??_C@_08FNBB@LC_TIME?$DN?$AA@ 1006b7d8     stlport_vc6_static:c_locale.obj
 0003:000027e4       ??_C@_01FAJB@?$DL?$AA@     1006b7e4     stlport_vc6_static:c_locale.obj
 0003:000027e8       ??_C@_09BFFG@LC_CTYPE?$DN?$AA@ 1006b7e8     stlport_vc6_static:c_locale.obj
 0003:000027f4       ??_C@_05MPJP@?$CFS?5?$CFp?$AA@ 1006b7f4     stlport_vc6_static:c_locale.obj
 0003:000027fc       ??_C@_02GIOB@?$CFM?$AA@    1006b7fc     stlport_vc6_static:c_locale.obj
 0003:00002800       ??_C@_02GICK@?$CFH?$AA@    1006b800     stlport_vc6_static:c_locale.obj
 0003:00002804       ??_C@_03DGJE@OCP?$AA@      1006b804     stlport_vc6_static:c_locale.obj
 0003:00002808       ??_C@_03EKFG@ACP?$AA@      1006b808     stlport_vc6_static:c_locale.obj
 0003:0000280c       ??_C@_03DBOJ@_?4?0?$AA@    1006b80c     stlport_vc6_static:c_locale.obj
 0003:00002810       ??_C@_01PJCK@?4?$AA@       1006b810     stlport_vc6_static:c_locale.obj
 0003:00002814       ??_C@_01NON@_?$AA@         1006b814     stlport_vc6_static:c_locale.obj
 0003:00002818       __NLG_Destination          1006b818     LIBCMT:exsup.obj
 0003:00002828       ??_R0?AVtype_info@@@8      1006b828     LIBCMT:typinfo.obj
 0003:00002840       ?__pMyUnhandledExceptionFilter@@3PAXA 1006b840     LIBCMT:throw.obj
 0003:00002844       __aexit_rtn                1006b844     LIBCMT:dllcrt0.obj
 0003:00002960       ___lc_category             1006b960     LIBCMT:setlocal.obj
 0003:000029b0       __fltused                  1006b9b0     LIBCMT:fpinit.obj
 0003:000029b4       __ldused                   1006b9b4     LIBCMT:fpinit.obj
 0003:000029b8       __FPinit                   1006b9b8     LIBCMT:fpinit.obj
 0003:000029bc       __FPmtinit                 1006b9bc     LIBCMT:fpinit.obj
 0003:000029c0       __FPmtterm                 1006b9c0     LIBCMT:fpinit.obj
 0003:000029d0       __iob                      1006b9d0     LIBCMT:_file.obj
 0003:00002c50       ___badioinfo               1006bc50     LIBCMT:ioinit.obj
 0003:00002c90       ___tlsindex                1006bc90     LIBCMT:tidtable.obj
 0003:00002c94       ?__pInconsistency@@3P6AXXZA 1006bc94     LIBCMT:hooks.obj
 0003:00002c98       __locktable                1006bc98     LIBCMT:mlock.obj
 0003:00002d60       __amblksiz                 1006bd60     LIBCMT:heapinit.obj
 0003:00002df8       __pctype                   1006bdf8     LIBCMT:ctype.obj
 0003:00002dfc       __pwctype                  1006bdfc     LIBCMT:ctype.obj
 0003:00002e00       __ctype                    1006be00     LIBCMT:ctype.obj
 0003:00003004       ___mb_cur_max              1006c004     LIBCMT:nlsdata1.obj
 0003:00003008       ___decimal_point           1006c008     LIBCMT:nlsdata1.obj
 0003:0000300c       ___decimal_point_length    1006c00c     LIBCMT:nlsdata1.obj
 0003:00003010       ___nullstring              1006c010     LIBCMT:output.obj
 0003:00003014       ___wnullstring             1006c014     LIBCMT:output.obj
 0003:00003018       ___old_small_block_heap    1006c018     LIBCMT:sbheap.obj
 0003:0000503c       ___old_sbh_threshold       1006e03c     LIBCMT:sbheap.obj
 0003:000051a8       __XcptActTab               1006e1a8     LIBCMT:winxfltr.obj
 0003:00005220       __First_FPE_Indx           1006e220     LIBCMT:winxfltr.obj
 0003:00005224       __Num_FPE                  1006e224     LIBCMT:winxfltr.obj
 0003:00005228       __XcptActTabSize           1006e228     LIBCMT:winxfltr.obj
 0003:0000522c       __XcptActTabCount          1006e22c     LIBCMT:winxfltr.obj
 0003:00005230       ___rgLocInfo               1006e230     LIBCMT:getqloc.obj
 0003:000056d4       ___rglangidNotDefault      1006e6d4     LIBCMT:getqloc.obj
 0003:000056e8       ___rg_country              1006e6e8     LIBCMT:getqloc.obj
 0003:000057a0       ___rg_language             1006e7a0     LIBCMT:getqloc.obj
 0003:000059b0       __cfltcvt_tab              1006e9b0     LIBCMT:cmiscdat.obj
 0003:000059c8       __d_inf                    1006e9c8     LIBCMT:util.obj
 0003:000059d0       __d_ind                    1006e9d0     LIBCMT:util.obj
 0003:000059d8       __d_max                    1006e9d8     LIBCMT:util.obj
 0003:000059e0       __d_min                    1006e9e0     LIBCMT:util.obj
 0003:000059e8       __d_mzero                  1006e9e8     LIBCMT:util.obj
 0003:00005ae0       __timezone                 1006eae0     LIBCMT:timeset.obj
 0003:00005ae4       __daylight                 1006eae4     LIBCMT:timeset.obj
 0003:00005ae8       __dstbias                  1006eae8     LIBCMT:timeset.obj
 0003:00005b6c       __tzname                   1006eb6c     LIBCMT:timeset.obj
 0003:00005b94       __lpdays                   1006eb94     LIBCMT:days.obj
 0003:00005bc8       __days                     1006ebc8     LIBCMT:days.obj
 0003:00005cf8       ___lc_time_curr            1006ecf8     LIBCMT:strftime.obj
 0003:00005d00       ___lc_time_c               1006ed00     LIBCMT:strftime.obj
 0003:00005db0       ___lconv_static_decimal    1006edb0     LIBCMT:lconv.obj
 0003:00005db8       ___lconv_c                 1006edb8     LIBCMT:lconv.obj
 0003:00005de8       ___lconv                   1006ede8     LIBCMT:lconv.obj
 0003:00005e20       __matherr_flag             1006ee20     LIBCMT:matherr.obj
 0003:00005e28       __pow10pos                 1006ee28     LIBCMT:constpow.obj
 0003:00005f88       __pow10neg                 1006ef88     LIBCMT:constpow.obj
 0003:000060e8       ?ATL_CREATE_OBJECT@CComApartment@ATL@@2IA 1006f0e8     ClientStage.obj
 0003:000060f0       ?m_libid@CComModule@ATL@@2U_GUID@@A 1006f0f0     ClientStage.obj
 0003:00006100       ?_pModule@ATL@@3PAVCComModule@1@A 1006f100     ClientStage.obj
 0003:000062c0       ?s_criticalSection@Win32@OnlineGameLib@@3VCCriticalSection@12@A 1006f2c0     common:Utils.obj
 0003:000062e0       ??_C@_00A@?$AA@            1006f2e0     common:Utils.obj
 0003:000062e4       ?_S_free_list@?$__node_alloc@$00$0A@@_STL@@0RCRAV_Node_alloc_obj@2@C 1006f2e4     stlport_vc6_static:string_w.obj
 0003:00006324       ?_S_lock@?$_Node_Alloc_Lock@$00$0A@@_STL@@2U_STLP_mutex_base@2@A 1006f324     stlport_vc6_static:string_w.obj
 0003:00006328       ?__last@?$_STLP_mutex_spin@$0A@@_STL@@2IA 1006f328     stlport_vc6_static:string_w.obj
 0003:0000632c       ?_S_heap_size@?$__node_alloc@$00$0A@@_STL@@0IA 1006f32c     stlport_vc6_static:string_w.obj
 0003:00006330       ?_S_end_free@?$__node_alloc@$00$0A@@_STL@@0PADA 1006f330     stlport_vc6_static:string_w.obj
 0003:00006334       ?_S_start_free@?$__node_alloc@$00$0A@@_STL@@0PADA 1006f334     stlport_vc6_static:string_w.obj
 0003:00006338       ?__oom_handler@?$__malloc_alloc@$0A@@_STL@@0P6AXXZA 1006f338     stlport_vc6_static:dll_main.obj
 0003:0000633c       ?_S_heap_size@?$__node_alloc@$0A@$0A@@_STL@@0IA 1006f33c     stlport_vc6_static:dll_main.obj
 0003:00006340       ?_S_end_free@?$__node_alloc@$0A@$0A@@_STL@@0PADA 1006f340     stlport_vc6_static:dll_main.obj
 0003:00006344       ?_S_start_free@?$__node_alloc@$0A@$0A@@_STL@@0PADA 1006f344     stlport_vc6_static:dll_main.obj
 0003:00006348       ?_S_free_list@?$__node_alloc@$0A@$0A@@_STL@@0RCRAV_Node_alloc_obj@2@C 1006f348     stlport_vc6_static:dll_main.obj
 0003:00006388       ?_S_lock@?$_Node_Alloc_Lock@$0A@$0A@@_STL@@2U_STLP_mutex_base@2@A 1006f388     stlport_vc6_static:dll_main.obj
 0003:00006920       ?_Stl_loc_classic_locale@_STL@@3Vlocale@1@A 1006f920     stlport_vc6_static:locale_impl.obj
 0003:00006df8       ?_Stl_loc_global_impl@_STL@@3PAV_Locale_impl@1@A 1006fdf8     stlport_vc6_static:locale_impl.obj
 0003:00006dfc       ?_Stl_loc_global_locale_lock@_STL@@3U_STLP_mutex_base@1@A 1006fdfc     stlport_vc6_static:locale_impl.obj
 0003:00006e00       ?_S_count@_Loc_init@ios_base@_STL@@0JA 1006fe00     stlport_vc6_static:locale_impl.obj
 0003:00006e08       ?clog@_STL@@3V?$basic_ostream@DV?$char_traits@D@_STL@@@1@A 1006fe08     stlport_vc6_static:iostream.obj
 0003:00006e70       ?wcerr@_STL@@3V?$basic_ostream@GV?$char_traits@G@_STL@@@1@A 1006fe70     stlport_vc6_static:iostream.obj
 0003:00006ed8       ?cout@_STL@@3V?$basic_ostream@DV?$char_traits@D@_STL@@@1@A 1006fed8     stlport_vc6_static:iostream.obj
 0003:00006f40       ?cin@_STL@@3V?$basic_istream@DV?$char_traits@D@_STL@@@1@A 1006ff40     stlport_vc6_static:iostream.obj
 0003:00006fa8       ?wclog@_STL@@3V?$basic_ostream@GV?$char_traits@G@_STL@@@1@A 1006ffa8     stlport_vc6_static:iostream.obj
 0003:00007010       ?wcin@_STL@@3V?$basic_istream@GV?$char_traits@G@_STL@@@1@A 10070010     stlport_vc6_static:iostream.obj
 0003:00007078       ?cerr@_STL@@3V?$basic_ostream@DV?$char_traits@D@_STL@@@1@A 10070078     stlport_vc6_static:iostream.obj
 0003:000070e0       ?wcout@_STL@@3V?$basic_ostream@GV?$char_traits@G@_STL@@@1@A 100700e0     stlport_vc6_static:iostream.obj
 0003:00007144       ?_S_count@Init@ios_base@_STL@@0JA 10070144     stlport_vc6_static:iostream.obj
 0003:00007148       ?_S_index@ios_base@_STL@@0HA 10070148     stlport_vc6_static:ios.obj
 0003:00007160       ?_M_truename@?$numpunct@G@_STL@@1V?$basic_string@GV?$char_traits@G@_STL@@V?$allocator@G@2@@2@A 10070160     stlport_vc6_static:numpunct.obj
 0003:00007170       ?_M_grouping@?$numpunct@G@_STL@@1V?$basic_string@DV?$char_traits@D@_STL@@V?$allocator@D@2@@2@A 10070170     stlport_vc6_static:numpunct.obj
 0003:00007180       ?_M_truename@?$numpunct@D@_STL@@2V?$basic_string@DV?$char_traits@D@_STL@@V?$allocator@D@2@@2@A 10070180     stlport_vc6_static:numpunct.obj
 0003:00007190       ?_M_falsename@?$numpunct@D@_STL@@2V?$basic_string@DV?$char_traits@D@_STL@@V?$allocator@D@2@@2@A 10070190     stlport_vc6_static:numpunct.obj
 0003:000071a0       ?_M_falsename@?$numpunct@G@_STL@@1V?$basic_string@GV?$char_traits@G@_STL@@V?$allocator@G@2@@2@A 100701a0     stlport_vc6_static:numpunct.obj
 0003:000071b0       ?_M_grouping@?$numpunct@D@_STL@@2V?$basic_string@DV?$char_traits@D@_STL@@V?$allocator@D@2@@2@A 100701b0     stlport_vc6_static:numpunct.obj
 0003:000071c0       ?_S_empty_string@_STL@@3V?$basic_string@DV?$char_traits@D@_STL@@V?$allocator@D@2@@1@A 100701c0     stlport_vc6_static:monetary.obj
 0003:000071d0       ?_S_empty_wstring@_STL@@3V?$basic_string@GV?$char_traits@G@_STL@@V?$allocator@G@2@@1@A 100701d0     stlport_vc6_static:monetary.obj
 0003:000071dc       ??_C@_11A@?$AA?$AA@        100701dc     stlport_vc6_static:monetary.obj
 0003:0000776c       __aenvptr                  1007076c     LIBCMT:dllcrt0.obj
 0003:00007770       __wenvptr                  10070770     LIBCMT:dllcrt0.obj
 0003:00007774       ___error_mode              10070774     LIBCMT:dllcrt0.obj
 0003:00007778       ___app_type                10070778     LIBCMT:dllcrt0.obj
 0003:00007788       ___fastflag                10070788     LIBCMT:fpinit.obj
 0003:0000778c       __adjust_fdiv              1007078c     LIBCMT:fpinit.obj
 0003:00007790       __cflush                   10070790     LIBCMT:_file.obj
 0003:000077fc       __umaskval                 100707fc     LIBCMT:crt0dat.obj
 0003:00007800       __osver                    10070800     LIBCMT:crt0dat.obj
 0003:00007804       __winver                   10070804     LIBCMT:crt0dat.obj
 0003:00007808       __winmajor                 10070808     LIBCMT:crt0dat.obj
 0003:0000780c       __winminor                 1007080c     LIBCMT:crt0dat.obj
 0003:00007810       ___argc                    10070810     LIBCMT:crt0dat.obj
 0003:00007814       ___argv                    10070814     LIBCMT:crt0dat.obj
 0003:00007818       ___wargv                   10070818     LIBCMT:crt0dat.obj
 0003:0000781c       __environ                  1007081c     LIBCMT:crt0dat.obj
 0003:00007820       ___initenv                 10070820     LIBCMT:crt0dat.obj
 0003:00007824       __wenviron                 10070824     LIBCMT:crt0dat.obj
 0003:00007828       ___winitenv                10070828     LIBCMT:crt0dat.obj
 0003:0000782c       __pgmptr                   1007082c     LIBCMT:crt0dat.obj
 0003:00007830       __wpgmptr                  10070830     LIBCMT:crt0dat.obj
 0003:00007834       __exitflag                 10070834     LIBCMT:crt0dat.obj
 0003:00007838       __C_Termination_Done       10070838     LIBCMT:crt0dat.obj
 0003:0000783c       __C_Exit_Done              1007083c     LIBCMT:crt0dat.obj
 0003:00007948       __adbgmsg                  10070948     LIBCMT:crt0msg.obj
 0003:0000794c       ___lc_handle               1007094c     LIBCMT:nlsdata2.obj
 0003:00007964       ___lc_codepage             10070964     LIBCMT:nlsdata2.obj
 0003:00007968       ___lc_collate_cp           10070968     LIBCMT:nlsdata2.obj
 0003:00007974       __newmode                  10070974     LIBCMT:_newmode.obj
 0003:00007978       ?_pnhHeap@@3P6AHI@ZA       10070978     LIBCMT:handler.obj
 0003:00007990       ___lc_time_intl            10070990     LIBCMT:inittime.obj
 0003:000079ac       ___lc_id                   100709ac     LIBCMT:nlsdata3.obj
 0003:00007ad0       ___lconv_static_null       10070ad0     LIBCMT:lconv.obj
 0003:00007ae4       ?id@?$money_get@DV?$istreambuf_iterator@DV?$char_traits@D@_STL@@@_STL@@@_STL@@2V0locale@2@A 10070ae4     <common>
 0003:00007ae8       ?id@?$money_get@DPBD@_STL@@2V0locale@2@A 10070ae8     <common>
 0003:00007aec       ?id@?$money_put@DV?$ostreambuf_iterator@DV?$char_traits@D@_STL@@@_STL@@@_STL@@2V0locale@2@A 10070aec     <common>
 0003:00007af0       ?id@?$money_put@DPAD@_STL@@2V0locale@2@A 10070af0     <common>
 0003:00007af4       ?id@?$num_get@DV?$istreambuf_iterator@DV?$char_traits@D@_STL@@@_STL@@@_STL@@2V0locale@2@A 10070af4     <common>
 0003:00007af8       ?id@?$num_get@DPBD@_STL@@2V0locale@2@A 10070af8     <common>
 0003:00007afc       ?id@?$num_put@DV?$ostreambuf_iterator@DV?$char_traits@D@_STL@@@_STL@@@_STL@@2V0locale@2@A 10070afc     <common>
 0003:00007b00       ?id@?$num_put@DPAD@_STL@@2V0locale@2@A 10070b00     <common>
 0003:00007b04       ?id@?$time_get@DV?$istreambuf_iterator@DV?$char_traits@D@_STL@@@_STL@@@_STL@@2V0locale@2@A 10070b04     <common>
 0003:00007b08       ?id@?$time_get@DPBD@_STL@@2V0locale@2@A 10070b08     <common>
 0003:00007b0c       ?id@?$time_put@DV?$ostreambuf_iterator@DV?$char_traits@D@_STL@@@_STL@@@_STL@@2V0locale@2@A 10070b0c     <common>
 0003:00007b10       ?id@?$time_put@DPAD@_STL@@2V0locale@2@A 10070b10     <common>
 0003:00007b14       ?id@?$money_get@GV?$istreambuf_iterator@GV?$char_traits@G@_STL@@@_STL@@@_STL@@2V0locale@2@A 10070b14     <common>
 0003:00007b18       ?id@?$money_get@GPBG@_STL@@2V0locale@2@A 10070b18     <common>
 0003:00007b1c       ?id@?$money_put@GV?$ostreambuf_iterator@GV?$char_traits@G@_STL@@@_STL@@@_STL@@2V0locale@2@A 10070b1c     <common>
 0003:00007b20       ?id@?$money_put@GPAG@_STL@@2V0locale@2@A 10070b20     <common>
 0003:00007b24       ?id@?$num_get@GV?$istreambuf_iterator@GV?$char_traits@G@_STL@@@_STL@@@_STL@@2V0locale@2@A 10070b24     <common>
 0003:00007b28       ?id@?$num_get@GPBG@_STL@@2V0locale@2@A 10070b28     <common>
 0003:00007b2c       ?id@?$num_put@GV?$ostreambuf_iterator@GV?$char_traits@G@_STL@@@_STL@@@_STL@@2V0locale@2@A 10070b2c     <common>
 0003:00007b30       ?id@?$num_put@GPAG@_STL@@2V0locale@2@A 10070b30     <common>
 0003:00007b34       ?id@?$time_get@GV?$istreambuf_iterator@GV?$char_traits@G@_STL@@@_STL@@@_STL@@2V0locale@2@A 10070b34     <common>
 0003:00007b38       ?id@?$time_get@GPBG@_STL@@2V0locale@2@A 10070b38     <common>
 0003:00007b3c       ?id@?$time_put@GV?$ostreambuf_iterator@GV?$char_traits@G@_STL@@@_STL@@@_STL@@2V0locale@2@A 10070b3c     <common>
 0003:00007b40       ?id@?$time_put@GPAG@_STL@@2V0locale@2@A 10070b40     <common>
 0003:00007b44       ___alternate_form          10070b44     <common>
 0003:00007b48       ___no_lead_zeros           10070b48     <common>
 0003:00007b4c       ___mbcodepage              10070b4c     <common>
 0003:00007b50       ___mbulinfo                10070b50     <common>
 0003:00007b5c       ___ismbcodepage            10070b5c     <common>
 0003:00007b60       __mbcasemap                10070b60     <common>
 0003:00007c60       __mbctype                  10070c60     <common>
 0003:00007d64       ___mblcid                  10070d64     <common>
 0003:00007d68       ___sbh_sizeHeaderList      10070d68     <common>
 0003:00007d6c       ___sbh_indGroupDefer       10070d6c     <common>
 0003:00007d70       ___sbh_pHeaderScan         10070d70     <common>
 0003:00007d74       ___sbh_initialized         10070d74     <common>
 0003:00007d78       ___sbh_pHeaderDefer        10070d78     <common>
 0003:00007d7c       ___sbh_cntHeaderList       10070d7c     <common>
 0003:00007d80       ___sbh_pHeaderList         10070d80     <common>
 0003:00007d84       ___sbh_threshold           10070d84     <common>
 0003:00007d88       __crtheap                  10070d88     <common>
 0003:00007d8c       ___active_heap             10070d8c     <common>
 0003:00007d90       ___env_initialized         10070d90     <common>
 0003:00007d94       ___mbctype_initialized     10070d94     <common>
 0003:00007d98       ___onexitend               10070d98     <common>
 0003:00007d9c       ___onexitbegin             10070d9c     <common>
 0003:00007da0       ___pioinfo                 10070da0     <common>
 0003:00007ea0       __nhandle                  10070ea0     <common>
 0003:00007ea4       ___piob                    10070ea4     <common>
 0003:00007ec0       __bufin                    10070ec0     <common>
 0003:00008ec0       __nstream                  10071ec0     <common>
 0003:00008ec4       ___setlc_active            10071ec4     <common>
 0003:00008ec8       ___unguarded_readlc_active 10071ec8     <common>
 0003:00008ecc       __acmdln                   10071ecc     <common>
 0003:00008ed0       __pRawDllMain              10071ed0     <common>

 entry point at        0001:00049d58

 Static symbols

 0001:00000070       _$E33                      10001070 f   ClientStage.obj
 0001:00000080       _$E32                      10001080 f   ClientStage.obj
 0001:000089e0       ?Create@Win32@OnlineGameLib@@YAPAXPAU_SECURITY_ATTRIBUTES@@_N1PBD@Z 100099e0 f   common:Event.obj
 0001:000041b0       _$E35                      100051b0 f   common:Utils.obj
 0001:000041c0       _$E32                      100051c0 f   common:Utils.obj
 0001:000041d0       _$E34                      100051d0 f   common:Utils.obj
 0001:000041e0       _$E33                      100051e0 f   common:Utils.obj
 0001:000041f0       _$E40                      100051f0 f   common:Utils.obj
 0001:00004200       _$E37                      10005200 f   common:Utils.obj
 0001:00004210       _$E39                      10005210 f   common:Utils.obj
 0001:00004220       _$E38                      10005220 f   common:Utils.obj
 0001:00004230       _$E48                      10005230 f   common:Utils.obj
 0001:00004240       _$E45                      10005240 f   common:Utils.obj
 0001:00004250       _$E47                      10005250 f   common:Utils.obj
 0001:00004260       _$E46                      10005260 f   common:Utils.obj
 0001:00004270       _$E53                      10005270 f   common:Utils.obj
 0001:00004280       _$E50                      10005280 f   common:Utils.obj
 0001:00004290       _$E52                      10005290 f   common:Utils.obj
 0001:000042a0       _$E51                      100052a0 f   common:Utils.obj
 0001:000042c0       _$E58                      100052c0 f   common:Utils.obj
 0001:000042d0       _$E55                      100052d0 f   common:Utils.obj
 0001:000043b0       _$E57                      100053b0 f   common:Utils.obj
 0001:000043c0       _$E56                      100053c0 f   common:Utils.obj
 0001:00004ec0       _$E61                      10005ec0 f   common:Utils.obj
 0001:00005730       _$E63                      10006730 f   common:Utils.obj
 0001:00005960       _$E65                      10006960 f   common:Utils.obj
 0001:00005b90       _$E67                      10006b90 f   common:Utils.obj
 0001:00005fa0       _$E69                      10006fa0 f   common:Utils.obj
 0001:00047010       _my_ltoa                   10048010 f   stlport_vc6_static:c_locale.obj
 0001:00047e40       ___mbtowc                  10048e40 f   stlport_vc6_static:c_locale.obj
 0001:00047ed0       ___isleadbyte              10048ed0 f   stlport_vc6_static:c_locale.obj
 0001:00048ac0       ___FixGrouping             10049ac0 f   stlport_vc6_static:c_locale.obj
 0001:00048b00       ___GetLCIDFromName         10049b00 f   stlport_vc6_static:c_locale.obj
 0001:00048cb0       ___ConvertName             10049cb0 f   stlport_vc6_static:c_locale.obj
 0001:00048d10       ___ParseLocaleString       10049d10 f   stlport_vc6_static:c_locale.obj
 0001:00048e30       ___GetLCID                 10049e30 f   stlport_vc6_static:c_locale.obj
 0001:00048e80       _EnumLocalesProcA@4        10049e80 f   stlport_vc6_static:c_locale.obj
 0001:00048f80       _LocaleFromHex             10049f80 f   stlport_vc6_static:c_locale.obj
 0001:00048fd0       ___GetLocaleName           10049fd0 f   stlport_vc6_static:c_locale.obj
 0001:000490e0       ___Extract_locale_name     1004a0e0 f   stlport_vc6_static:c_locale.obj
 0001:00049190       ___TranslateToSystem       1004a190 f   stlport_vc6_static:c_locale.obj
 0001:000491d0       ___ConvertFromACP          1004a1d0 f   stlport_vc6_static:c_locale.obj
 0001:00049240       ___intGetACP               1004a240 f   stlport_vc6_static:c_locale.obj
 0001:00049270       ___intGetOCP               1004a270 f   stlport_vc6_static:c_locale.obj
 0001:000492a0       ___GetDefaultCP            1004a2a0 f   stlport_vc6_static:c_locale.obj
 0001:000492c0       ___ConvertToCP             1004a2c0 f   stlport_vc6_static:c_locale.obj
 0001:00040900       _$E37                      10041900 f   stlport_vc6_static:monetary.obj
 0001:00040910       _$E34                      10041910 f   stlport_vc6_static:monetary.obj
 0001:000409f0       _$E36                      100419f0 f   stlport_vc6_static:monetary.obj
 0001:00040a00       _$E35                      10041a00 f   stlport_vc6_static:monetary.obj
 0001:00040a10       _$E42                      10041a10 f   stlport_vc6_static:monetary.obj
 0001:00040a20       _$E39                      10041a20 f   stlport_vc6_static:monetary.obj
 0001:00040b00       _$E41                      10041b00 f   stlport_vc6_static:monetary.obj
 0001:00040b10       _$E40                      10041b10 f   stlport_vc6_static:monetary.obj
 0001:00040b90       ?_Init_monetary_formats@_STL@@YAXAAUpattern@money_base@1@0@Z 10041b90 f   stlport_vc6_static:monetary.obj
 0001:0003f8b0       _$E34                      100408b0 f   stlport_vc6_static:numpunct.obj
 0001:0003f8c0       _$E30                      100408c0 f   stlport_vc6_static:numpunct.obj
 0001:0003f9a0       _$E33                      100409a0 f   stlport_vc6_static:numpunct.obj
 0001:0003f9b0       _$E31                      100409b0 f   stlport_vc6_static:numpunct.obj
 0001:0003f9d0       _$E39                      100409d0 f   stlport_vc6_static:numpunct.obj
 0001:0003f9e0       _$E36                      100409e0 f   stlport_vc6_static:numpunct.obj
 0001:0003fac0       _$E38                      10040ac0 f   stlport_vc6_static:numpunct.obj
 0001:0003fad0       _$E37                      10040ad0 f   stlport_vc6_static:numpunct.obj
 0001:0003faf0       _$E44                      10040af0 f   stlport_vc6_static:numpunct.obj
 0001:0003fb00       _$E41                      10040b00 f   stlport_vc6_static:numpunct.obj
 0001:0003fbe0       _$E43                      10040be0 f   stlport_vc6_static:numpunct.obj
 0001:0003fbf0       _$E42                      10040bf0 f   stlport_vc6_static:numpunct.obj
 0001:0003fed0       _$E50                      10040ed0 f   stlport_vc6_static:numpunct.obj
 0001:0003fee0       _$E46                      10040ee0 f   stlport_vc6_static:numpunct.obj
 0001:0003ffc0       _$E49                      10040fc0 f   stlport_vc6_static:numpunct.obj
 0001:0003ffd0       _$E47                      10040fd0 f   stlport_vc6_static:numpunct.obj
 0001:0003fff0       _$E55                      10040ff0 f   stlport_vc6_static:numpunct.obj
 0001:00040000       _$E52                      10041000 f   stlport_vc6_static:numpunct.obj
 0001:000400e0       _$E54                      100410e0 f   stlport_vc6_static:numpunct.obj
 0001:000400f0       _$E53                      100410f0 f   stlport_vc6_static:numpunct.obj
 0001:00040110       _$E60                      10041110 f   stlport_vc6_static:numpunct.obj
 0001:00040120       _$E57                      10041120 f   stlport_vc6_static:numpunct.obj
 0001:00040200       _$E59                      10041200 f   stlport_vc6_static:numpunct.obj
 0001:00040210       _$E58                      10041210 f   stlport_vc6_static:numpunct.obj
 0001:00038410       _$E36                      10039410 f   stlport_vc6_static:fstream.obj
 0001:00038420       _$E33                      10039420 f   stlport_vc6_static:fstream.obj
 0001:00038430       _$E35                      10039430 f   stlport_vc6_static:fstream.obj
 0001:00038440       _$E34                      10039440 f   stlport_vc6_static:fstream.obj
 0001:00034010       _$E36                      10035010 f   stlport_vc6_static:iostream.obj
 0001:00034020       _$E33                      10035020 f   stlport_vc6_static:iostream.obj
 0001:00034030       _$E35                      10035030 f   stlport_vc6_static:iostream.obj
 0001:00034040       _$E34                      10035040 f   stlport_vc6_static:iostream.obj
 0001:00034060       _$E41                      10035060 f   stlport_vc6_static:iostream.obj
 0001:00034070       _$E38                      10035070 f   stlport_vc6_static:iostream.obj
 0001:00034080       _$E40                      10035080 f   stlport_vc6_static:iostream.obj
 0001:00034090       _$E39                      10035090 f   stlport_vc6_static:iostream.obj
 0001:000340b0       _$E46                      100350b0 f   stlport_vc6_static:iostream.obj
 0001:000340c0       _$E43                      100350c0 f   stlport_vc6_static:iostream.obj
 0001:000340d0       _$E45                      100350d0 f   stlport_vc6_static:iostream.obj
 0001:000340e0       _$E44                      100350e0 f   stlport_vc6_static:iostream.obj
 0001:00034100       _$E51                      10035100 f   stlport_vc6_static:iostream.obj
 0001:00034110       _$E48                      10035110 f   stlport_vc6_static:iostream.obj
 0001:00034120       _$E50                      10035120 f   stlport_vc6_static:iostream.obj
 0001:00034130       _$E49                      10035130 f   stlport_vc6_static:iostream.obj
 0001:00034150       _$E56                      10035150 f   stlport_vc6_static:iostream.obj
 0001:00034160       _$E53                      10035160 f   stlport_vc6_static:iostream.obj
 0001:00034170       _$E55                      10035170 f   stlport_vc6_static:iostream.obj
 0001:00034180       _$E54                      10035180 f   stlport_vc6_static:iostream.obj
 0001:000341a0       _$E61                      100351a0 f   stlport_vc6_static:iostream.obj
 0001:000341b0       _$E58                      100351b0 f   stlport_vc6_static:iostream.obj
 0001:000341c0       _$E60                      100351c0 f   stlport_vc6_static:iostream.obj
 0001:000341d0       _$E59                      100351d0 f   stlport_vc6_static:iostream.obj
 0001:000341f0       _$E66                      100351f0 f   stlport_vc6_static:iostream.obj
 0001:00034200       _$E63                      10035200 f   stlport_vc6_static:iostream.obj
 0001:00034210       _$E65                      10035210 f   stlport_vc6_static:iostream.obj
 0001:00034220       _$E64                      10035220 f   stlport_vc6_static:iostream.obj
 0001:00034240       _$E71                      10035240 f   stlport_vc6_static:iostream.obj
 0001:00034250       _$E68                      10035250 f   stlport_vc6_static:iostream.obj
 0001:00034260       _$E70                      10035260 f   stlport_vc6_static:iostream.obj
 0001:00034270       _$E69                      10035270 f   stlport_vc6_static:iostream.obj
 0001:000227c0       _$E43                      100237c0 f   stlport_vc6_static:locale_impl.obj
 0001:000227d0       _$E40                      100237d0 f   stlport_vc6_static:locale_impl.obj
 0001:000227e0       _$E42                      100237e0 f   stlport_vc6_static:locale_impl.obj
 0001:000227f0       _$E41                      100237f0 f   stlport_vc6_static:locale_impl.obj
 0001:00022a50       _$E72                      10023a50 f   stlport_vc6_static:locale_impl.obj
 0001:00022a60       _$E69                      10023a60 f   stlport_vc6_static:locale_impl.obj
 0001:00022a70       _$E71                      10023a70 f   stlport_vc6_static:locale_impl.obj
 0001:00022a80       _$E70                      10023a80 f   stlport_vc6_static:locale_impl.obj
 0001:000230e0       _$E77                      100240e0 f   stlport_vc6_static:locale_impl.obj
 0001:000230f0       _$E74                      100240f0 f   stlport_vc6_static:locale_impl.obj
 0001:00023100       _$E76                      10024100 f   stlport_vc6_static:locale_impl.obj
 0001:00023110       _$E75                      10024110 f   stlport_vc6_static:locale_impl.obj
 0001:000232c0       ?_Stl_loc_assign_ids@_STL@@YAXXZ 100242c0 f   stlport_vc6_static:locale_impl.obj
 0001:00023590       _$E82                      10024590 f   stlport_vc6_static:locale_impl.obj
 0001:000235a0       _$E79                      100245a0 f   stlport_vc6_static:locale_impl.obj
 0001:00023680       _$E81                      10024680 f   stlport_vc6_static:locale_impl.obj
 0001:00023690       _$E80                      10024690 f   stlport_vc6_static:locale_impl.obj
 0001:000589c9       _findenv                   100599c9 f   LIBCMT:setenv.obj
 0001:00058a21       _copy_environ              10059a21 f   LIBCMT:setenv.obj
 0001:00058817       _strncnt                   10059817 f   LIBCMT:a_cmp.obj
 0001:00056a7e       __abstract_cw              10057a7e f   LIBCMT:ieee87.obj
 0001:00056b10       __hw_cw                    10057b10 f   LIBCMT:ieee87.obj
 0001:00056b99       __abstract_sw              10057b99 f   LIBCMT:ieee87.obj
 0001:00056693       _xtoa                      10057693 f   LIBCMT:xtoa.obj
 0001:00056765       _x64toa@20                 10057765 f   LIBCMT:xtoa.obj
 0001:00055b87       __expandtime               10056b87 f   LIBCMT:strftime.obj
 0001:00055f76       __store_str                10056f76 f   LIBCMT:strftime.obj
 0001:00055f9d       __store_num                10056f9d f   LIBCMT:strftime.obj
 0001:0005600c       __store_number             1005700c f   LIBCMT:strftime.obj
 0001:00056055       __store_winword            10057055 f   LIBCMT:strftime.obj
 0001:00055243       _strtoxl                   10056243 f   LIBCMT:strtol.obj
 0001:00054fd5       _getSystemCP               10055fd5 f   LIBCMT:mbctype.obj
 0001:0005501f       _CPtoLCID                  1005601f f   LIBCMT:mbctype.obj
 0001:00055052       _setSBCS                   10056052 f   LIBCMT:mbctype.obj
 0001:0005507b       _setSBUpLow                1005607b f   LIBCMT:mbctype.obj
 0001:00054844       __tzset_lk                 10055844 f   LIBCMT:tzset.obj
 0001:00054aec       __isindst_lk               10055aec f   LIBCMT:tzset.obj
 0001:00054c98       _cvtdate                   10055c98 f   LIBCMT:tzset.obj
 0001:00053e71       __get_fname                10054e71 f   LIBCMT:fpexcept.obj
 0001:00053030       __cftoe2                   10054030 f   LIBCMT:cvt.obj
 0001:00053147       __cftof2                   10054147 f   LIBCMT:cvt.obj
 0001:000532d2       __shift                    100542d2 f   LIBCMT:cvt.obj
 0001:000526d2       _TranslateName             100536d2 f   LIBCMT:getqloc.obj
 0001:0005272a       _GetLcidFromLangCountry    1005372a f   LIBCMT:getqloc.obj
 0001:000527b1       _LangCountryEnumProc@4     100537b1 f   LIBCMT:getqloc.obj
 0001:000529b5       _GetLcidFromLanguage       100539b5 f   LIBCMT:getqloc.obj
 0001:00052a0b       _LanguageEnumProc@4        10053a0b f   LIBCMT:getqloc.obj
 0001:00052ac8       _GetLcidFromCountry        10053ac8 f   LIBCMT:getqloc.obj
 0001:00052aff       _CountryEnumProc@4         10053aff f   LIBCMT:getqloc.obj
 0001:00052b85       _GetLcidFromDefault        10053b85 f   LIBCMT:getqloc.obj
 0001:00052b9f       _ProcessCodePage           10053b9f f   LIBCMT:getqloc.obj
 0001:00052c05       _TestDefaultCountry        10053c05 f   LIBCMT:getqloc.obj
 0001:00052c24       _TestDefaultLanguage       10053c24 f   LIBCMT:getqloc.obj
 0001:00052c86       _IsThisWindowsNT           10053c86 f   LIBCMT:getqloc.obj
 0001:00052cbc       _crtGetLocaleInfoA@16      10053cbc f   LIBCMT:getqloc.obj
 0001:00052da2       _LcidFromHexString         10053da2 f   LIBCMT:getqloc.obj
 0001:00052ddb       _GetPrimaryLen             10053ddb f   LIBCMT:getqloc.obj
 0001:00052290       LeadUp1                    10053290 f   LIBCMT:memcpy.obj
 0001:000522bc       LeadUp2                    100532bc f   LIBCMT:memcpy.obj
 0001:000522e0       LeadUp3                    100532e0 f   LIBCMT:memcpy.obj
 0001:0005235f       UnwindUp0                  1005335f f   LIBCMT:memcpy.obj
 0001:0005234c       UnwindUp1                  1005334c f   LIBCMT:memcpy.obj
 0001:00052344       UnwindUp2                  10053344 f   LIBCMT:memcpy.obj
 0001:0005233c       UnwindUp3                  1005333c f   LIBCMT:memcpy.obj
 0001:00052334       UnwindUp4                  10053334 f   LIBCMT:memcpy.obj
 0001:0005232c       UnwindUp5                  1005332c f   LIBCMT:memcpy.obj
 0001:00052324       UnwindUp6                  10053324 f   LIBCMT:memcpy.obj
 0001:0005231c       UnwindUp7                  1005331c f   LIBCMT:memcpy.obj
 0001:00052378       TrailUp0                   10053378 f   LIBCMT:memcpy.obj
 0001:00052380       TrailUp1                   10053380 f   LIBCMT:memcpy.obj
 0001:0005238c       TrailUp2                   1005338c f   LIBCMT:memcpy.obj
 0001:000523a0       TrailUp3                   100533a0 f   LIBCMT:memcpy.obj
 0001:00052418       LeadDown1                  10053418 f   LIBCMT:memcpy.obj
 0001:00052438       LeadDown2                  10053438 f   LIBCMT:memcpy.obj
 0001:00052460       LeadDown3                  10053460 f   LIBCMT:memcpy.obj
 0001:000524b4       UnwindDown7                100534b4 f   LIBCMT:memcpy.obj
 0001:000524bc       UnwindDown6                100534bc f   LIBCMT:memcpy.obj
 0001:000524c4       UnwindDown5                100534c4 f   LIBCMT:memcpy.obj
 0001:000524cc       UnwindDown4                100534cc f   LIBCMT:memcpy.obj
 0001:000524d4       UnwindDown3                100534d4 f   LIBCMT:memcpy.obj
 0001:000524dc       UnwindDown2                100534dc f   LIBCMT:memcpy.obj
 0001:000524e4       UnwindDown1                100534e4 f   LIBCMT:memcpy.obj
 0001:000524f7       UnwindDown0                100534f7 f   LIBCMT:memcpy.obj
 0001:00052510       TrailDown0                 10053510 f   LIBCMT:memcpy.obj
 0001:00052518       TrailDown1                 10053518 f   LIBCMT:memcpy.obj
 0001:00052528       TrailDown2                 10053528 f   LIBCMT:memcpy.obj
 0001:0005253c       TrailDown3                 1005353c f   LIBCMT:memcpy.obj
 0001:00051da6       __get_lc_lconv             10052da6 f   LIBCMT:initmon.obj
 0001:00051ec8       _fix_grouping              10052ec8 f   LIBCMT:initmon.obj
 0001:00051eff       __free_lc_lconv            10052eff f   LIBCMT:initmon.obj
 0001:00051ca4       _fix_grouping              10052ca4 f   LIBCMT:initnum.obj
 0001:000515f1       __get_lc_time              100525f1 f   LIBCMT:inittime.obj
 0001:0005193f       __free_lc_time             1005293f f   LIBCMT:inittime.obj
 0001:0005132d       _ctrlevent_capture@4       1005232d f   LIBCMT:winsig.obj
 0001:00051511       _siglookup                 10052511 f   LIBCMT:winsig.obj
 0001:00051001       _xcptlookup                10052001 f   LIBCMT:winxfltr.obj
 0001:0004f2ad       _write_char                100502ad f   LIBCMT:output.obj
 0001:0004f2e2       _write_multi_char          100502e2 f   LIBCMT:output.obj
 0001:0004f313       _write_string              10050313 f   LIBCMT:output.obj
 0001:0004f34b       _get_int_arg               1005034b f   LIBCMT:output.obj
 0001:0004f358       _get_int64_arg             10050358 f   LIBCMT:output.obj
 0001:0004f368       _get_short_arg             10050368 f   LIBCMT:output.obj
 0001:0004e957       _strncnt                   1004f957 f   LIBCMT:a_map.obj
 0001:0004df28       _parse_cmdline             1004ef28 f   LIBCMT:stdargv.obj
 0001:0004dd05       _doexit                    1004ed05 f   LIBCMT:crt0dat.obj
 0001:0004ddbc       __initterm                 1004edbc f   LIBCMT:crt0dat.obj
 0001:0004d04d       ?FindHandler@@YAXPAUEHExceptionRecord@@PAUEHRegistrationNode@@PAU_CONTEXT@@PAXPBU_s_FuncInfo@@EH1@Z 1004e04d f   LIBCMT:frame.obj
 0001:0004d200       ?FindHandlerForForeignException@@YAXPAUEHExceptionRecord@@PAUEHRegistrationNode@@PAU_CONTEXT@@PAXPBU_s_FuncInfo@@HH1@Z 1004e200 f   LIBCMT:frame.obj
 0001:0004d2aa       ?TypeMatch@@YAHPBU_s_HandlerType@@PBU_s_CatchableType@@PBU_s_ThrowInfo@@@Z 1004e2aa f   LIBCMT:frame.obj
 0001:0004d3a5       ?FrameUnwindFilter@@YAHPAU_EXCEPTION_POINTERS@@@Z 1004e3a5 f   LIBCMT:frame.obj
 0001:0004d3bb       ?CatchIt@@YAXPAUEHExceptionRecord@@PAUEHRegistrationNode@@PAU_CONTEXT@@PAXPBU_s_FuncInfo@@PBU_s_HandlerType@@PBU_s_CatchableType@@PBU_s_TryBlockMapEntry@@H1E@Z 1004e3bb f   LIBCMT:frame.obj
 0001:0004d436       ?CallCatchBlock@@YAPAXPAUEHExceptionRecord@@PAUEHRegistrationNode@@PAU_CONTEXT@@PBU_s_FuncInfo@@PAXHK@Z 1004e436 f   LIBCMT:frame.obj
 0001:0004d551       ?ExFilterRethrow@@YAHPAU_EXCEPTION_POINTERS@@@Z 1004e551 f   LIBCMT:frame.obj
 0001:0004d57b       ?BuildCatchObject@@YAXPAUEHExceptionRecord@@PAUEHRegistrationNode@@PBU_s_HandlerType@@PBU_s_CatchableType@@@Z 1004e57b f   LIBCMT:frame.obj
 0001:0004d7a6       ?AdjustPointer@@YAPAXPAXABUPMD@@@Z 1004e7a6 f   LIBCMT:frame.obj
 0001:0004c85a       _flsall                    1004d85a f   LIBCMT:fflush.obj
 0001:0004b36a       ?ArrayUnwindFilter@@YAHPAU_EXCEPTION_POINTERS@@@Z 1004c36a f   LIBCMT:ehvecdtr.obj
 0001:0004ae59       __setlocale_set_cat        1004be59 f   LIBCMT:setlocal.obj
 0001:0004af74       __setlocale_get_all        1004bf74 f   LIBCMT:setlocal.obj
 0001:0004a762       __threadstartex@4          1004b762 f   LIBCMT:threadex.obj
 0001:00049980       LeadUp1                    1004a980 f   LIBCMT:memmove.obj
 0001:000499ac       LeadUp2                    1004a9ac f   LIBCMT:memmove.obj
 0001:000499d0       LeadUp3                    1004a9d0 f   LIBCMT:memmove.obj
 0001:00049a4f       UnwindUp0                  1004aa4f f   LIBCMT:memmove.obj
 0001:00049a3c       UnwindUp1                  1004aa3c f   LIBCMT:memmove.obj
 0001:00049a34       UnwindUp2                  1004aa34 f   LIBCMT:memmove.obj
 0001:00049a2c       UnwindUp3                  1004aa2c f   LIBCMT:memmove.obj
 0001:00049a24       UnwindUp4                  1004aa24 f   LIBCMT:memmove.obj
 0001:00049a1c       UnwindUp5                  1004aa1c f   LIBCMT:memmove.obj
 0001:00049a14       UnwindUp6                  1004aa14 f   LIBCMT:memmove.obj
 0001:00049a0c       UnwindUp7                  1004aa0c f   LIBCMT:memmove.obj
 0001:00049a68       TrailUp0                   1004aa68 f   LIBCMT:memmove.obj
 0001:00049a70       TrailUp1                   1004aa70 f   LIBCMT:memmove.obj
 0001:00049a7c       TrailUp2                   1004aa7c f   LIBCMT:memmove.obj
 0001:00049a90       TrailUp3                   1004aa90 f   LIBCMT:memmove.obj
 0001:00049b08       LeadDown1                  1004ab08 f   LIBCMT:memmove.obj
 0001:00049b28       LeadDown2                  1004ab28 f   LIBCMT:memmove.obj
 0001:00049b50       LeadDown3                  1004ab50 f   LIBCMT:memmove.obj
 0001:00049ba4       UnwindDown7                1004aba4 f   LIBCMT:memmove.obj
 0001:00049bac       UnwindDown6                1004abac f   LIBCMT:memmove.obj
 0001:00049bb4       UnwindDown5                1004abb4 f   LIBCMT:memmove.obj
 0001:00049bbc       UnwindDown4                1004abbc f   LIBCMT:memmove.obj
 0001:00049bc4       UnwindDown3                1004abc4 f   LIBCMT:memmove.obj
 0001:00049bcc       UnwindDown2                1004abcc f   LIBCMT:memmove.obj
 0001:00049bd4       UnwindDown1                1004abd4 f   LIBCMT:memmove.obj
 0001:00049be7       UnwindDown0                1004abe7 f   LIBCMT:memmove.obj
 0001:00049c00       TrailDown0                 1004ac00 f   LIBCMT:memmove.obj
 0001:00049c08       TrailDown1                 1004ac08 f   LIBCMT:memmove.obj
 0001:00049c18       TrailDown2                 1004ac18 f   LIBCMT:memmove.obj
 0001:00049c2c       TrailDown3                 1004ac2c f   LIBCMT:memmove.obj
 0001:00049774       _gu_return                 1004a774 f   LIBCMT:exsup.obj
 0001:0004977c       __unwind_handler           1004a77c f   LIBCMT:exsup.obj
 0001:0004958f       ?CatchGuardHandler@@YA?AW4_EXCEPTION_DISPOSITION@@PAUEHExceptionRecord@@PAUCatchGuardRN@@PAX2@Z 1004a58f f   LIBCMT:trnsctrl.obj
 0001:0004966a       ?TranslatorGuardHandler@@YA?AW4_EXCEPTION_DISPOSITION@@PAUEHExceptionRecord@@PAUTranslatorGuardRN@@PAX2@Z 1004a66a f   LIBCMT:trnsctrl.obj
