 Sword3PaySys

 Timestamp is 68b8da7e (Wed Sep 03 20:17:02 2025)

 Preferred load address is 00400000

 Start         Length     Name                   Class
 0001:00000000 00030663H .text                   CODE
 0001:00030670 00000ffaH .text$x                 CODE
 0002:00000000 00000264H .idata$5                DATA
 0002:00000268 000011ecH .rdata                  DATA
 0002:00001458 0000047cH .rdata$r                DATA
 0002:000018d8 00002080H .xdata$x                DATA
 0002:00003958 00000064H .idata$2                DATA
 0002:000039bc 00000014H .idata$3                DATA
 0002:000039d0 00000264H .idata$4                DATA
 0002:00003c34 00000906H .idata$6                DATA
 0002:0000453a 00000000H .edata                  DATA
 0003:00000000 00000004H .CRT$XCA                DATA
 0003:00000004 00000030H .CRT$XCU                DATA
 0003:00000034 00000004H .CRT$XCZ                DATA
 0003:00000038 00000004H .CRT$XIA                DATA
 0003:0000003c 0000000cH .CRT$XIC                DATA
 0003:00000048 00000004H .CRT$XIY                DATA
 0003:0000004c 00000004H .CRT$XIZ                DATA
 0003:00000050 00000004H .CRT$XPA                DATA
 0003:00000054 00000004H .CRT$XPX                DATA
 0003:00000058 00000004H .CRT$XPZ                DATA
 0003:0000005c 00000004H .CRT$XTA                DATA
 0003:00000060 00000004H .CRT$XTB                DATA
 0003:00000064 00000004H .CRT$XTZ                DATA
 0003:00000070 00004ce0H .data                   DATA
 0003:00004d50 002019e0H .bss                    DATA
 0004:00000000 00000280H .rsrc$01                DATA
 0004:00000280 00000a58H .rsrc$02                DATA

  Address         Publics by Value              Rva+Base     Lib:Object

 0001:000001b0       ?KPIWritePrivateProfileString@@YAHPBD000@Z 004011b0 f   GlobalFun.obj
 0001:00000ab0       ?KPIGetPrivateProfileString@@YAKPBD00PADK0@Z 00401ab0 f   GlobalFun.obj
 0001:00000cc0       ?KPIWaitForSingleObject@@YAKPAXK@Z 00401cc0 f   GlobalFun.obj
 0001:00000cf0       ?KPICloseHandle@@YAHPAX@Z  00401cf0 f   GlobalFun.obj
 0001:00000d00       ?KPITerminateThread@@YAHPAXK@Z 00401d00 f   GlobalFun.obj
 0001:00000d20       ?KPICreateThread@@YAPAXP6GKPAX@Z0PAK@Z 00401d20 f   GlobalFun.obj
 0001:00000d50       ?KPICreateUDPSocket@@YAIH@Z 00401d50 f   GlobalFun.obj
 0001:00000df0       ?KPICreateEvent@@YAPAXPAU_SECURITY_ATTRIBUTES@@HHPBD@Z 00401df0 f   GlobalFun.obj
 0001:00000e10       ?KPISetEvent@@YAHPAX@Z     00401e10 f   GlobalFun.obj
 0001:00000e20       ?KPIResetEvent@@YAHPAX@Z   00401e20 f   GlobalFun.obj
 0001:00000e30       ?KPIGetExePath@@YAXPADK@Z  00401e30 f   GlobalFun.obj
 0001:00000e90       ?KPICreateMutex@@YAPAXPAU_SECURITY_ATTRIBUTES@@HPBD@Z 00401e90 f   GlobalFun.obj
 0001:00000eb0       ?KPIReleaseMutex@@YAHPAX@Z 00401eb0 f   GlobalFun.obj
 0001:00000ec0       ?KPIHash@@YAKPADKK@Z       00401ec0 f   GlobalFun.obj
 0001:00000f00       ?KPIPrintToFile@@YAXPBD0ZZ 00401f00 f   GlobalFun.obj
 0001:00000f50       ?KPIPrintToFile@@YAXPAU_iobuf@@PBDZZ 00401f50 f   GlobalFun.obj
 0001:00000f70       ??0KThread@@QAE@XZ         00401f70 f   KThread.obj
 0001:00000f90       ??_GKThread@@UAEPAXI@Z     00401f90 f i KThread.obj
 0001:00000f90       ??_EKThread@@UAEPAXI@Z     00401f90 f i KThread.obj
 0001:00000fb0       ??1KThread@@UAE@XZ         00401fb0 f   KThread.obj
 0001:00000fc0       ?Start@KThread@@UAEPAXXZ   00401fc0 f   KThread.obj
 0001:00001000       ?Stop@KThread@@UAEHXZ      00402000 f   KThread.obj
 0001:00001090       ?ThreadFun@KThread@@SGKPAX@Z 00402090 f   KThread.obj
 0001:000010a0       ??0K_CS@@QAE@XZ            004020a0 f   KThread.obj
 0001:000010c0       ??_GK_CS@@UAEPAXI@Z        004020c0 f i KThread.obj
 0001:000010c0       ??_EK_CS@@UAEPAXI@Z        004020c0 f i KThread.obj
 0001:000010e0       ??1K_CS@@UAE@XZ            004020e0 f   KThread.obj
 0001:00001100       ?Lock@K_CS@@QAEHXZ         00402100 f   KThread.obj
 0001:00001120       ?Unlock@K_CS@@QAEHXZ       00402120 f   KThread.obj
 0001:00001150       ??0CLogFile@@QAE@XZ        00402150 f   LogFile.obj
 0001:000011c0       ??_GCLogFile@@UAEPAXI@Z    004021c0 f i LogFile.obj
 0001:000011c0       ??_ECLogFile@@UAEPAXI@Z    004021c0 f i LogFile.obj
 0001:000011e0       ??1CLogFile@@UAE@XZ        004021e0 f   LogFile.obj
 0001:00001250       ?Initialize@CLogFile@@QAEHABV?$basic_string@DV?$char_traits@D@_STL@@V?$allocator@D@2@@_STL@@I@Z 00402250 f   LogFile.obj
 0001:00001440       ?Uninitialize@CLogFile@@QAEHXZ 00402440 f   LogFile.obj
 0001:00001490       ?TraceLog@CLogFile@@QAEIPBXI@Z 00402490 f   LogFile.obj
 0001:000014f0       ?PrepareFile@CLogFile@@AAEHXZ 004024f0 f   LogFile.obj
 0001:00001780       ?BeginBatch@CLogFile@@QAEKXZ 00402780 f   LogFile.obj
 0001:000017b0       ?EndBatch@CLogFile@@QAEKXZ 004027b0 f   LogFile.obj
 0001:000017d0       ?IsBatched@CLogFile@@QAEHXZ 004027d0 f   LogFile.obj
 0001:000017e0       ?OpenUniDirectory@CLogFile@@CAHABV?$basic_string@DV?$char_traits@D@_STL@@V?$allocator@D@2@@_STL@@PAV23@@Z 004027e0 f   LogFile.obj
 0001:00001a10       ?CreateUniFile@CLogFile@@CAPAXABV?$basic_string@DV?$char_traits@D@_STL@@V?$allocator@D@2@@_STL@@PAV23@@Z 00402a10 f   LogFile.obj
 0001:00001c20       ??1?$basic_string@DV?$char_traits@D@_STL@@V?$allocator@D@2@@_STL@@QAE@XZ 00402c20 f i LogFile.obj
 0001:00001c90       ?push_back@?$basic_string@DV?$char_traits@D@_STL@@V?$allocator@D@2@@_STL@@QAEXD@Z 00402c90 f i LogFile.obj
 0001:00001cf0       ??1?$_String_base@DV?$allocator@D@_STL@@@_STL@@QAE@XZ 00402cf0 f i LogFile.obj
 0001:00001d60       ??1?$_STLP_alloc_proxy@PADDV?$allocator@D@_STL@@@_STL@@QAE@XZ 00402d60 f i LogFile.obj
 0001:00001d70       ?erase@?$basic_string@DV?$char_traits@D@_STL@@V?$allocator@D@2@@_STL@@QAEPADPAD0@Z 00402d70 f i LogFile.obj
 0001:00001db0       ?_M_deallocate_block@?$_String_base@DV?$allocator@D@_STL@@@_STL@@QAEXXZ 00402db0 f i LogFile.obj
 0001:00001de0       ??1?$allocator@D@_STL@@QAE@XZ 00402de0 f i LogFile.obj
 0001:00001df0       ?deallocate@?$_STLP_alloc_proxy@PADDV?$allocator@D@_STL@@@_STL@@QAEXPADI@Z 00402df0 f i LogFile.obj
 0001:00001e20       ?deallocate@?$allocator@D@_STL@@QBEXPADI@Z 00402e20 f i LogFile.obj
 0001:00001e50       ?reserve@?$basic_string@DV?$char_traits@D@_STL@@V?$allocator@D@2@@_STL@@QAEXI@Z 00402e50 f i LogFile.obj
 0001:00001f70       ??H_STL@@YA?AV?$basic_string@DV?$char_traits@D@_STL@@V?$allocator@D@2@@0@ABV10@PBD@Z 00402f70 f i LogFile.obj
 0001:000020b0       ?deallocate@?$__node_alloc@$00$0A@@_STL@@SAXPAXI@Z 004030b0 f i LogFile.obj
 0001:000020e0       ?get_allocator@?$basic_string@DV?$char_traits@D@_STL@@V?$allocator@D@2@@_STL@@QBE?AV?$allocator@D@2@XZ 004030e0 f i LogFile.obj
 0001:00002100       ??0?$_String_base@DV?$allocator@D@_STL@@@_STL@@QAE@ABV?$allocator@D@1@@Z 00403100 f i LogFile.obj
 0001:00002110       ??0?$_STLP_alloc_proxy@PADDV?$allocator@D@_STL@@@_STL@@QAE@ABV?$allocator@D@1@PAD@Z 00403110 f i LogFile.obj
 0001:00002120       ?_M_allocate_block@?$_String_base@DV?$allocator@D@_STL@@@_STL@@QAEXI@Z 00403120 f i LogFile.obj
 0001:00002180       ?_M_range_initialize@?$basic_string@DV?$char_traits@D@_STL@@V?$allocator@D@2@@_STL@@AAEXPAD0@Z 00403180 f i LogFile.obj
 0001:00002200       ?_M_assign_dispatch@?$basic_string@DV?$char_traits@D@_STL@@V?$allocator@D@2@@_STL@@AAEAAV12@PAD0ABU__false_type@2@@Z 00403200 f i LogFile.obj
 0001:00002280       ?_M_append_dispatch@?$basic_string@DV?$char_traits@D@_STL@@V?$allocator@D@2@@_STL@@AAEAAV12@PBD0ABU__false_type@2@@Z 00403280 f i LogFile.obj
 0001:000022b0       ?_M_range_initialize@?$basic_string@DV?$char_traits@D@_STL@@V?$allocator@D@2@@_STL@@AAEXPAD0ABUforward_iterator_tag@2@@Z 004032b0 f i LogFile.obj
 0001:00002330       ?append@?$basic_string@DV?$char_traits@D@_STL@@V?$allocator@D@2@@_STL@@AAEAAV12@PBD0ABUforward_iterator_tag@2@@Z 00403330 f i LogFile.obj
 0001:000024c0       ?append@?$basic_string@DV?$char_traits@D@_STL@@V?$allocator@D@2@@_STL@@AAEAAV12@PAD0ABUforward_iterator_tag@2@@Z 004034c0 f i LogFile.obj
 0001:00002660       ?__copy_ptrs@_STL@@YAPADPAD00ABU__false_type@1@@Z 00403660 f i LogFile.obj
 0001:00002690       ?__copy@_STL@@YAPADPAD00ABUrandom_access_iterator_tag@1@PAH@Z 00403690 f i LogFile.obj
 0001:00002700       ?ServerEventNotify@@YGXPAXABK1@Z 00403700 f   main.obj
 0001:00002740       _WinMain@16                00403740 f   main.obj
 0001:00002ed0       ?RegisterSysClass@@YAGPAUHINSTANCE__@@@Z 00403ed0 f   main.obj
 0001:00002f60       ?__copy_trivial@_STL@@YAPAXPBX0PAX@Z 00403f60 f i main.obj
 0001:00003010       ?gTrace@@YAHPBDZZ          00404010 f   main.obj
 0001:00003150       ?gTraceLogFile@@YAXPBDJ@Z  00404150 f   main.obj
 0001:000031d0       ?gClearTrace@@YAXXZ        004041d0 f   main.obj
 0001:000031f0       ?gTimeStamp@@YAHPAD0@Z     004041f0 f   main.obj
 0001:00003240       ?gShowTrace@@YAXXZ         00404240 f   main.obj
 0001:000033c0       ?InitInstance@@YAHPAUHINSTANCE__@@HH@Z 004043c0 f   main.obj
 0001:000034a0       ?About@@YGJPAUHWND__@@IIJ@Z 004044a0 f   main.obj
 0001:000034e0       ?WndProc@@YGJPAUHWND__@@IIJ@Z 004044e0 f   main.obj
 0001:000036d0       ?_M_range_initialize@?$basic_string@DV?$char_traits@D@_STL@@V?$allocator@D@2@@_STL@@AAEXPBD0ABUforward_iterator_tag@2@@Z 004046d0 f i main.obj
 0001:00003750       ?num_rows@S3P_MSSQLServer_Result@@UBEHXZ 00404750 f   S3P_MSSQLServer_Result.obj
 0001:00003800       ?num_fields@S3P_MSSQLServer_Result@@UBEHXZ 00404800 f   S3P_MSSQLServer_Result.obj
 0001:000038d0       ?data_seek@S3P_MSSQLServer_Result@@UBEXIH@Z 004048d0 f   S3P_MSSQLServer_Result.obj
 0001:00003a90       ?get_field_data@S3P_MSSQLServer_Result@@UAE_NIPAXK@Z 00404a90 f   S3P_MSSQLServer_Result.obj
 0001:00003c20       ?unuse@S3P_MSSQLServer_Result@@UAEHXZ 00404c20 f   S3P_MSSQLServer_Result.obj
 0001:00003d20       ??1?$_com_ptr_t@V?$_com_IIID@UFields@@$1?_GUID_00000564_0000_0010_8000_00aa006d2ea4@@3U__s_GUID@@A@@@@QAE@XZ 00404d20 f i S3P_MSSQLServer_Result.obj
 0001:00003d30       ??1?$_com_ptr_t@V?$_com_IIID@UField@@$1?_GUID_00000569_0000_0010_8000_00aa006d2ea4@@3U__s_GUID@@A@@@@QAE@XZ 00404d30 f i S3P_MSSQLServer_Result.obj
 0001:00003d40       ??1_variant_t@@QAE@XZ      00404d40 f i S3P_MSSQLServer_Result.obj
 0001:00003d60       ?GetFields@Recordset15@@QAE?AV?$_com_ptr_t@V?$_com_IIID@UFields@@$1?_GUID_00000564_0000_0010_8000_00aa006d2ea4@@3U__s_GUID@@A@@@@XZ 00404d60 f i S3P_MSSQLServer_Result.obj
 0001:00003db0       ?GetItem@Fields15@@QAE?AV?$_com_ptr_t@V?$_com_IIID@UField@@$1?_GUID_00000569_0000_0010_8000_00aa006d2ea4@@3U__s_GUID@@A@@@@ABV_variant_t@@@Z 00404db0 f i S3P_MSSQLServer_Result.obj
 0001:00003e20       ??0S3PAccount@@QAE@XZ      00404e20 f   S3PAccount.obj
 0001:00003e30       ??_GS3PAccount@@UAEPAXI@Z  00404e30 f i S3PAccount.obj
 0001:00003e30       ??_ES3PAccount@@UAEPAXI@Z  00404e30 f i S3PAccount.obj
 0001:00003e50       ??1S3PAccount@@UAE@XZ      00404e50 f   S3PAccount.obj
 0001:00003e60       ?Login@S3PAccount@@SAHPAVS3PDBConVBC@@PBD1KAAGAAK@Z 00404e60 f   S3PAccount.obj
 0001:00004000       ?LoginGame@S3PAccount@@SAHPAVS3PDBConVBC@@KPBD@Z 00405000 f   S3PAccount.obj
 0001:00004090       ?Logout@S3PAccount@@SAHPAVS3PDBConVBC@@KPBDG@Z 00405090 f   S3PAccount.obj
 0001:000041a0       ?ElapseTime@S3PAccount@@SAHPAVS3PDBConVBC@@KPBDK@Z 004051a0 f   S3PAccount.obj
 0001:00004240       ?QueryTime@S3PAccount@@SAHPAVS3PDBConVBC@@KPBDAAK@Z 00405240 f   S3PAccount.obj
 0001:000042e0       ?ServerLogin@S3PAccount@@SAHPAVS3PDBConVBC@@PBD1KFQBEAAK@Z 004052e0 f   S3PAccount.obj
 0001:000046c0       ?GetServerID@S3PAccount@@SAHPAVS3PDBConVBC@@PBDAAK@Z 004056c0 f   S3PAccount.obj
 0001:000047d0       ?CheckAddress@S3PAccount@@SAHPAVS3PDBConVBC@@KF@Z 004057d0 f   S3PAccount.obj
 0001:00004880       ?UnlockAll@S3PAccount@@SAHPAVS3PDBConVBC@@K@Z 00405880 f   S3PAccount.obj
 0001:000048e0       ?ElapseAll@S3PAccount@@SAHPAVS3PDBConVBC@@K@Z 004058e0 f   S3PAccount.obj
 0001:00004940       ?GetAccountGameID@S3PAccount@@SAHPAVS3PDBConVBC@@PBDAAK@Z 00405940 f   S3PAccount.obj
 0001:00004a60       ?GetLeftSecondsOfDeposit@S3PAccount@@KAHPAVS3PDBConVBC@@PBDAAJ2@Z 00405a60 f   S3PAccount.obj
 0001:00004c00       ?VerifyUserModifyPassword@S3PAccount@@SAHPAVS3PDBConVBC@@KPBD1@Z 00405c00 f   S3PAccount.obj
 0001:00004ce0       ??1_bstr_t@@QAE@XZ         00405ce0 f i S3PAccount.obj
 0001:00004d30       ??4_bstr_t@@QAEAAV0@PBG@Z  00405d30 f i S3PAccount.obj
 0001:00004e10       ?_Free@_bstr_t@@AAEXXZ     00405e10 f i S3PAccount.obj
 0001:00004e60       ??0Data_t@_bstr_t@@QAE@PBG@Z 00405e60 f i S3PAccount.obj
 0001:00004ea0       ?Release@Data_t@_bstr_t@@QAEKXZ 00405ea0 f i S3PAccount.obj
 0001:00004ef0       ?GetString@Data_t@_bstr_t@@QBEPBDXZ 00405ef0 f i S3PAccount.obj
 0001:00004f20       ?ChangeType@_variant_t@@QAEXGPBV1@@Z 00405f20 f i S3PAccount.obj
 0001:00004f60       ??0S3PDB_MSSQLServer_Connection@@QAE@XZ 00405f60 f   S3PDB_MSSQLServer_Connection.obj
 0001:00005030       ??_GS3PDB_MSSQLServer_Connection@@UAEPAXI@Z 00406030 f i S3PDB_MSSQLServer_Connection.obj
 0001:00005030       ??_ES3PDB_MSSQLServer_Connection@@UAEPAXI@Z 00406030 f i S3PDB_MSSQLServer_Connection.obj
 0001:00005050       ??1S3PDB_MSSQLServer_Connection@@UAE@XZ 00406050 f   S3PDB_MSSQLServer_Connection.obj
 0001:00005180       ?CloseConnect@S3PDB_MSSQLServer_Connection@@UAEXXZ 00406180 f   S3PDB_MSSQLServer_Connection.obj
 0001:000051e0       ?OpenConnect@S3PDB_MSSQLServer_Connection@@UAE_NPAUtag_DATABASEINFO@@@Z 004061e0 f   S3PDB_MSSQLServer_Connection.obj
 0001:000055f0       ?Do@S3PDB_MSSQLServer_Connection@@UAE_NPBD@Z 004065f0 f   S3PDB_MSSQLServer_Connection.obj
 0001:00005620       ?DoCmd@S3PDB_MSSQLServer_Connection@@IAE_NPBD@Z 00406620 f   S3PDB_MSSQLServer_Connection.obj
 0001:00005820       ?DoResult@S3PDB_MSSQLServer_Connection@@IAE_NPBD@Z 00406820 f   S3PDB_MSSQLServer_Connection.obj
 0001:00005ac0       ?QuerySql@S3PDB_MSSQLServer_Connection@@UAE_NPBDPAPAVS3PResultVBC@@@Z 00406ac0 f   S3PDB_MSSQLServer_Connection.obj
 0001:00005b50       ?QueryResult@S3PDB_MSSQLServer_Connection@@IAE_NPBDPAVS3P_MSSQLServer_Result@@@Z 00406b50 f   S3PDB_MSSQLServer_Connection.obj
 0001:00005e10       ?QueryCmd@S3PDB_MSSQLServer_Connection@@IAE_NPBDPAVS3P_MSSQLServer_Result@@@Z 00406e10 f   S3PDB_MSSQLServer_Connection.obj
 0001:00006030       ?GetFreeResult@S3PDB_MSSQLServer_Connection@@IAE_NPAPAVS3P_MSSQLServer_Result@@@Z 00407030 f   S3PDB_MSSQLServer_Connection.obj
 0001:00006060       ?c_str@?$basic_string@DV?$char_traits@D@_STL@@V?$allocator@D@2@@_STL@@QBEPBDXZ 00407060 f i S3PDB_MSSQLServer_Connection.obj
 0001:00006070       ??1?$_com_ptr_t@V?$_com_IIID@U_Connection@@$1?_GUID_00000550_0000_0010_8000_00aa006d2ea4@@3U__s_GUID@@A@@@@QAE@XZ 00407070 f i S3PDB_MSSQLServer_Connection.obj
 0001:00006080       ??C?$_com_ptr_t@V?$_com_IIID@U_Connection@@$1?_GUID_00000550_0000_0010_8000_00aa006d2ea4@@3U__s_GUID@@A@@@@QBEPAU_Connection@@XZ 00407080 f i S3PDB_MSSQLServer_Connection.obj
 0001:000060a0       ??8?$_com_ptr_t@V?$_com_IIID@U_Connection@@$1?_GUID_00000550_0000_0010_8000_00aa006d2ea4@@3U__s_GUID@@A@@@@QAE_NH@Z 004070a0 f i S3PDB_MSSQLServer_Connection.obj
 0001:000060d0       ??1?$_com_ptr_t@V?$_com_IIID@U_Recordset@@$1?_GUID_00000556_0000_0010_8000_00aa006d2ea4@@3U__s_GUID@@A@@@@QAE@XZ 004070d0 f i S3PDB_MSSQLServer_Connection.obj
 0001:000060e0       ??1?$_com_ptr_t@V?$_com_IIID@U_Command@@$1?_GUID_b08400bd_f9d1_4d02_b856_71d5dba123e9@@3U__s_GUID@@A@@@@QAE@XZ 004070e0 f i S3PDB_MSSQLServer_Connection.obj
 0001:000060f0       ??C?$_com_ptr_t@V?$_com_IIID@U_Command@@$1?_GUID_b08400bd_f9d1_4d02_b856_71d5dba123e9@@3U__s_GUID@@A@@@@QBEPAU_Command@@XZ 004070f0 f i S3PDB_MSSQLServer_Connection.obj
 0001:00006110       ?append@?$basic_string@DV?$char_traits@D@_STL@@V?$allocator@D@2@@_STL@@QAEAAV12@PBD@Z 00407110 f i S3PDB_MSSQLServer_Connection.obj
 0001:00006150       ?assign@?$basic_string@DV?$char_traits@D@_STL@@V?$allocator@D@2@@_STL@@QAEAAV12@PBD0@Z 00407150 f i S3PDB_MSSQLServer_Connection.obj
 0001:000061f0       ??4?$_com_ptr_t@V?$_com_IIID@U_Connection@@$1?_GUID_00000550_0000_0010_8000_00aa006d2ea4@@3U__s_GUID@@A@@@@QAEAAV0@PAU_Connection@@@Z 004071f0 f i S3PDB_MSSQLServer_Connection.obj
 0001:00006220       ??0_bstr_t@@QAE@PBD@Z      00407220 f i S3PDB_MSSQLServer_Connection.obj
 0001:000062c0       ?CreateInstance@?$_com_ptr_t@V?$_com_IIID@U_Connection@@$1?_GUID_00000550_0000_0010_8000_00aa006d2ea4@@3U__s_GUID@@A@@@@QAEJPAGPAUIUnknown@@K@Z 004072c0 f i S3PDB_MSSQLServer_Connection.obj
 0001:000063a0       ?_Release@?$_com_ptr_t@V?$_com_IIID@U_Connection@@$1?_GUID_00000550_0000_0010_8000_00aa006d2ea4@@3U__s_GUID@@A@@@@AAEXXZ 004073a0 f i S3PDB_MSSQLServer_Connection.obj
 0001:000063b0       ?CreateInstance@?$_com_ptr_t@V?$_com_IIID@U_Recordset@@$1?_GUID_00000556_0000_0010_8000_00aa006d2ea4@@3U__s_GUID@@A@@@@QAEJPAGPAUIUnknown@@K@Z 004073b0 f i S3PDB_MSSQLServer_Connection.obj
 0001:00006490       ?_AddRef@?$_com_ptr_t@V?$_com_IIID@U_Recordset@@$1?_GUID_00000556_0000_0010_8000_00aa006d2ea4@@3U__s_GUID@@A@@@@AAEXXZ 00407490 f i S3PDB_MSSQLServer_Connection.obj
 0001:000064a0       ?CreateInstance@?$_com_ptr_t@V?$_com_IIID@U_Command@@$1?_GUID_b08400bd_f9d1_4d02_b856_71d5dba123e9@@3U__s_GUID@@A@@@@QAEJPAGPAUIUnknown@@K@Z 004074a0 f i S3PDB_MSSQLServer_Connection.obj
 0001:00006580       ?_M_range_initialize@?$basic_string@DV?$char_traits@D@_STL@@V?$allocator@D@2@@_STL@@AAEXPBD0@Z 00407580 f i S3PDB_MSSQLServer_Connection.obj
 0001:00006600       ?_M_append_dispatch@?$basic_string@DV?$char_traits@D@_STL@@V?$allocator@D@2@@_STL@@AAEAAV12@PAD0ABU__false_type@2@@Z 00407600 f i S3PDB_MSSQLServer_Connection.obj
 0001:00006630       ?ErrorMessage@_com_error@@QBEPBDXZ 00407630 f i S3PDB_MSSQLServer_Connection.obj
 0001:00006700       ?PutCommandText@Command15@@QAEXV_bstr_t@@@Z 00407700 f i S3PDB_MSSQLServer_Connection.obj
 0001:000067a0       ?Execute@Command15@@QAE?AV?$_com_ptr_t@V?$_com_IIID@U_Recordset@@$1?_GUID_00000556_0000_0010_8000_00aa006d2ea4@@3U__s_GUID@@A@@@@PAUtagVARIANT@@0J@Z 004077a0 f i S3PDB_MSSQLServer_Connection.obj
 0001:00006800       ?Open@Connection15@@QAEJV_bstr_t@@00J@Z 00407800 f i S3PDB_MSSQLServer_Connection.obj
 0001:00006930       ??1S3P_MSSQLServer_Result@@UAE@XZ 00407930 f i S3PDB_MSSQLServer_Connection.obj
 0001:000069a0       ??_GS3P_MSSQLServer_Result@@UAEPAXI@Z 004079a0 f i S3PDB_MSSQLServer_Connection.obj
 0001:000069a0       ??_ES3P_MSSQLServer_Result@@UAEPAXI@Z 004079a0 f i S3PDB_MSSQLServer_Connection.obj
 0001:000069c0       ?GetGMID@@YAKXZ            004079c0 f   S3PDBConnectionPool.obj
 0001:000069d0       ??0S3PDBConnectionPool@@IAE@XZ 004079d0 f   S3PDBConnectionPool.obj
 0001:000069f0       ??_GS3PDBConnectionPool@@MAEPAXI@Z 004079f0 f i S3PDBConnectionPool.obj
 0001:000069f0       ??_ES3PDBConnectionPool@@MAEPAXI@Z 004079f0 f i S3PDBConnectionPool.obj
 0001:00006a10       ??1S3PDBConnectionPool@@MAE@XZ 00407a10 f   S3PDBConnectionPool.obj
 0001:00006ae0       ?Init@S3PDBConnectionPool@@QAEHABV?$basic_string@DV?$char_traits@D@_STL@@V?$allocator@D@2@@_STL@@0K@Z 00407ae0 f   S3PDBConnectionPool.obj
 0001:00006da0       ??1tag_DATABASEINFO@@QAE@XZ 00407da0 f i S3PDBConnectionPool.obj
 0001:00006e50       ?RemoveDBCon@S3PDBConnectionPool@@QAEHPAPAVS3PDBConVBC@@@Z 00407e50 f   S3PDBConnectionPool.obj
 0001:00006ef0       ?ReturnDBCon@S3PDBConnectionPool@@QAEHPAVS3PDBConVBC@@@Z 00407ef0 f   S3PDBConnectionPool.obj
 0001:00006f90       ?Instance@S3PDBConnectionPool@@SAPAV1@XZ 00407f90 f   S3PDBConnectionPool.obj
 0001:00007000       ?ReleaseInstance@S3PDBConnectionPool@@SAXXZ 00408000 f   S3PDBConnectionPool.obj
 0001:00007020       ?CreateConnection@S3PDBConnectionPool@@IAEHPAUtag_DATABASEINFO@@PAPAVS3PDBConVBC@@@Z 00408020 f   S3PDBConnectionPool.obj
 0001:000070c0       ??1?$vector@PAVS3PDBConVBC@@V?$allocator@PAVS3PDBConVBC@@@_STL@@@_STL@@QAE@XZ 004080c0 f i S3PDBConnectionPool.obj
 0001:00007130       ?_M_insert_overflow@?$vector@PAVS3PDBConVBC@@V?$allocator@PAVS3PDBConVBC@@@_STL@@@_STL@@IAEXPAPAVS3PDBConVBC@@ABQAV3@ABU__true_type@2@I_N@Z 00408130 f i S3PDBConnectionPool.obj
 0001:00007240       ??1?$_STLP_alloc_proxy@PAPAVS3PDBConVBC@@PAV1@V?$allocator@PAVS3PDBConVBC@@@_STL@@@_STL@@QAE@XZ 00408240 f i S3PDBConnectionPool.obj
 0001:00007250       ??0?$basic_string@DV?$char_traits@D@_STL@@V?$allocator@D@2@@_STL@@QAE@XZ 00408250 f i S3PDBConnectionPool.obj
 0001:000072c0       ??0S3PDBConVBC@@IAE@XZ     004082c0 f   S3PDBConVBC.obj
 0001:000072e0       ??_ES3PDBConVBC@@UAEPAXI@Z 004082e0 f i S3PDBConVBC.obj
 0001:000072e0       ??_GS3PDBConVBC@@UAEPAXI@Z 004082e0 f i S3PDBConVBC.obj
 0001:00007300       ??1S3PDBConVBC@@UAE@XZ     00408300 f   S3PDBConVBC.obj
 0001:00007310       ??0S3PDBSocketPool@@IAE@XZ 00408310 f   S3PDBSocketPool.obj
 0001:00007380       ??_GS3PDBSocketPool@@UAEPAXI@Z 00408380 f i S3PDBSocketPool.obj
 0001:00007380       ??_ES3PDBSocketPool@@UAEPAXI@Z 00408380 f i S3PDBSocketPool.obj
 0001:000073a0       ??1S3PDBSocketPool@@UAE@XZ 004083a0 f   S3PDBSocketPool.obj
 0001:00007440       ?Instance@S3PDBSocketPool@@SAPAV1@XZ 00408440 f   S3PDBSocketPool.obj
 0001:000074b0       ?ReleaseInstance@S3PDBSocketPool@@SAXXZ 004084b0 f   S3PDBSocketPool.obj
 0001:000074d0       ?Start@S3PDBSocketPool@@UAEPAXPAUIServer@@H@Z 004084d0 f   S3PDBSocketPool.obj
 0001:000075b0       ?Stop@S3PDBSocketPool@@UAEHXZ 004085b0 f   S3PDBSocketPool.obj
 0001:00007640       ?SendData@S3PDBSocketPool@@QAEHKQBXABI@Z 00408640 f   S3PDBSocketPool.obj
 0001:000076f0       ?CustomSend@S3PDBSocketPool@@QAEHKDPAUKAccountHead@@@Z 004086f0 f   S3PDBSocketPool.obj
 0001:000077d0       ?AddUserClientID@S3PDBSocketPool@@QAEHK@Z 004087d0 f   S3PDBSocketPool.obj
 0001:00007960       ?RemoveUserClientID@S3PDBSocketPool@@QAEHK@Z 00408960 f   S3PDBSocketPool.obj
 0001:000079c0       ?ShowAllClientInfo@S3PDBSocketPool@@QAEHXZ 004089c0 f   S3PDBSocketPool.obj
 0001:00007ac0       ??0KGatewayDataProcess@@QAE@XZ 00408ac0 f   S3PDBSocketPool.obj
 0001:00007be0       ??1KThread_CS@@UAE@XZ      00408be0 f i S3PDBSocketPool.obj
 0001:00007c40       ??_EKThread_CS@@UAEPAXI@Z  00408c40 f i S3PDBSocketPool.obj
 0001:00007c40       ??_GKThread_CS@@UAEPAXI@Z  00408c40 f i S3PDBSocketPool.obj
 0001:00007c60       ??_GKGatewayDataProcess@@UAEPAXI@Z 00408c60 f i S3PDBSocketPool.obj
 0001:00007c60       ??_EKGatewayDataProcess@@UAEPAXI@Z 00408c60 f i S3PDBSocketPool.obj
 0001:00007c80       ??1KGatewayDataProcess@@UAE@XZ 00408c80 f   S3PDBSocketPool.obj
 0001:00007d70       ?AutoTime@KGatewayDataProcess@@IAEXXZ 00408d70 f   S3PDBSocketPool.obj
 0001:00007e90       ?CheckConnectAddress@KGatewayDataProcess@@IAEHK@Z 00408e90 f   S3PDBSocketPool.obj
 0001:00007ed0       ?SendPing@KGatewayDataProcess@@IAEXK@Z 00408ed0 f   S3PDBSocketPool.obj
 0001:00007f10       ?ProcessClientData@KGatewayDataProcess@@IAEXPBXK@Z 00408f10 f   S3PDBSocketPool.obj
 0001:00007fa0       ?ProcessData@KGatewayDataProcess@@IAEKPAVS3PDBConVBC@@PBXK@Z 00408fa0 f   S3PDBSocketPool.obj
 0001:000081d0       ?ProAccountLogin@KGatewayDataProcess@@IAEHPAVS3PDBConVBC@@PBDK@Z 004091d0 f   S3PDBSocketPool.obj
 0001:000084f0       ?ProGameLogin@KGatewayDataProcess@@IAEHPAVS3PDBConVBC@@PBDK@Z 004094f0 f   S3PDBSocketPool.obj
 0001:00008600       ?ProAccountLogout@KGatewayDataProcess@@IAEHPAVS3PDBConVBC@@PBDK@Z 00409600 f   S3PDBSocketPool.obj
 0001:00008740       ?ProGetwayVerify@KGatewayDataProcess@@IAEHPAVS3PDBConVBC@@PBDK@Z 00409740 f   S3PDBSocketPool.obj
 0001:00008900       ?ProUndefine@KGatewayDataProcess@@IAEHPBDK@Z 00409900 f   S3PDBSocketPool.obj
 0001:00008910       ?GetDB@KGatewayDataProcess@@IAEPAVS3PDBConVBC@@K@Z 00409910 f   S3PDBSocketPool.obj
 0001:00008960       ?Main@KGatewayDataProcess@@MAEKPAX@Z 00409960 f   S3PDBSocketPool.obj
 0001:00008a70       ?Start@KGatewayDataProcess@@UAEPAXPAUIServer@@K@Z 00409a70 f   S3PDBSocketPool.obj
 0001:00008ab0       ?Stop@KGatewayDataProcess@@UAEHXZ 00409ab0 f   S3PDBSocketPool.obj
 0001:00008ae0       ?ConnectErrorWork@KGatewayDataProcess@@QAEHKKF@Z 00409ae0 f   S3PDBSocketPool.obj
 0001:00008b30       ?ConnectFreeWork@KGatewayDataProcess@@QAEHKKF@Z 00409b30 f   S3PDBSocketPool.obj
 0001:00008b90       ?ConnectAgainWork@KGatewayDataProcess@@QAEHKKF@Z 00409b90 f   S3PDBSocketPool.obj
 0001:00008bf0       ?ConnectFreeForErrorWork@KGatewayDataProcess@@QAEHKKF@Z 00409bf0 f   S3PDBSocketPool.obj
 0001:00008c40       ?OutofWork@KGatewayDataProcess@@QAEHK@Z 00409c40 f   S3PDBSocketPool.obj
 0001:00008d00       ?IsWork@KGatewayDataProcess@@QAEHXZ 00409d00 f   S3PDBSocketPool.obj
 0001:00008d30       ?IsWorkAgain@KGatewayDataProcess@@QAEHXZ 00409d30 f   S3PDBSocketPool.obj
 0001:00008d60       ?IsWantData@KGatewayDataProcess@@QAEHXZ 00409d60 f   S3PDBSocketPool.obj
 0001:00008da0       ?IsError@KGatewayDataProcess@@QAEHXZ 00409da0 f   S3PDBSocketPool.obj
 0001:00008dd0       ?GetStatus@KGatewayDataProcess@@QAEHXZ 00409dd0 f   S3PDBSocketPool.obj
 0001:00008df0       ?SetStatus@KGatewayDataProcess@@IAE_NH@Z 00409df0 f   S3PDBSocketPool.obj
 0001:00008ed0       ?IsVerifyTimeout@KGatewayDataProcess@@IAE_NXZ 00409ed0 f   S3PDBSocketPool.obj
 0001:00008f10       ?erase@?$map@UUserName@@KUUserNameCmp@@V?$allocator@U?$pair@$$CBUUserName@@K@_STL@@@_STL@@@_STL@@QAEXU?$_Rb_tree_iterator@U?$pair@$$CBUUserName@@K@_STL@@U?$_Nonconst_traits@U?$pair@$$CBUUserName@@K@_STL@@@2@@2@@Z 00409f10 f i S3PDBSocketPool.obj
 0001:00008f30       ??0?$_Rb_tree_iterator@U?$pair@$$CBUUserName@@K@_STL@@U?$_Nonconst_traits@U?$pair@$$CBUUserName@@K@_STL@@@2@@_STL@@QAE@ABU01@@Z 00409f30 f i S3PDBSocketPool.obj
 0001:00008f40       ?end@?$list@PAVKGatewayDataProcess@@V?$allocator@PAVKGatewayDataProcess@@@_STL@@@_STL@@QAE?AU?$_List_iterator@PAVKGatewayDataProcess@@U?$_Nonconst_traits@PAVKGatewayDataProcess@@@_STL@@@2@XZ 00409f40 f i S3PDBSocketPool.obj
 0001:00008f50       ??1?$allocator@PAVKGatewayDataProcess@@@_STL@@QAE@XZ 00409f50 f i S3PDBSocketPool.obj
 0001:00008f60       ??0?$_List_iterator@PAVKGatewayDataProcess@@U?$_Nonconst_traits@PAVKGatewayDataProcess@@@_STL@@@_STL@@QAE@ABU01@@Z 00409f60 f i S3PDBSocketPool.obj
 0001:00008f70       ?insert@?$map@UUserName@@KUUserNameCmp@@V?$allocator@U?$pair@$$CBUUserName@@K@_STL@@@_STL@@@_STL@@QAE?AU?$_Rb_tree_iterator@U?$pair@$$CBUUserName@@K@_STL@@U?$_Nonconst_traits@U?$pair@$$CBUUserName@@K@_STL@@@2@@2@U32@ABU?$pair@$$CBUUserName@@K@2@@Z 00409f70 f i S3PDBSocketPool.obj
 0001:00008fa0       ?erase@?$_Rb_tree@UUserName@@U?$pair@$$CBUUserName@@K@_STL@@U?$_Select1st@U?$pair@$$CBUUserName@@K@_STL@@@3@UUserNameCmp@@V?$allocator@U?$pair@$$CBUUserName@@K@_STL@@@3@@_STL@@QAEXU?$_Rb_tree_iterator@U?$pair@$$CBUUserName@@K@_STL@@U?$_Nonconst_traits@U?$pair@$$CBUUserName@@K@_STL@@@2@@2@@Z 00409fa0 f i S3PDBSocketPool.obj
 0001:00008fe0       ??_EKThread_CS@@WM@AEPAXI@Z 00409fe0 f i S3PDBSocketPool.obj
 0001:00008ff0       ??1?$_Rb_tree_base@U?$pair@$$CBUUserName@@K@_STL@@V?$allocator@U?$pair@$$CBUUserName@@K@_STL@@@2@@_STL@@QAE@XZ 00409ff0 f i S3PDBSocketPool.obj
 0001:00009040       ??1?$allocator@U?$pair@$$CBUUserName@@K@_STL@@@_STL@@QAE@XZ 0040a040 f i S3PDBSocketPool.obj
 0001:00009050       ?insert@?$list@PAVKGatewayDataProcess@@V?$allocator@PAVKGatewayDataProcess@@@_STL@@@_STL@@QAE?AU?$_List_iterator@PAVKGatewayDataProcess@@U?$_Nonconst_traits@PAVKGatewayDataProcess@@@_STL@@@2@U32@ABQAVKGatewayDataProcess@@@Z 0040a050 f i S3PDBSocketPool.obj
 0001:00009080       ??1?$_STLP_alloc_proxy@PAU?$_Rb_tree_node@U?$pair@$$CBUUserName@@K@_STL@@@_STL@@U12@V?$allocator@U?$pair@$$CBUUserName@@K@_STL@@@2@@_STL@@QAE@XZ 0040a080 f i S3PDBSocketPool.obj
 0001:00009090       ??1?$_STLP_alloc_proxy@PAU?$_List_node@PAVKGatewayDataProcess@@@_STL@@U12@V?$allocator@PAVKGatewayDataProcess@@@2@@_STL@@QAE@XZ 0040a090 f i S3PDBSocketPool.obj
 0001:000090a0       ?erase@?$_Rb_tree@UUserName@@U?$pair@$$CBUUserName@@K@_STL@@U?$_Select1st@U?$pair@$$CBUUserName@@K@_STL@@@3@UUserNameCmp@@V?$allocator@U?$pair@$$CBUUserName@@K@_STL@@@3@@_STL@@QAEXU?$_Rb_tree_iterator@U?$pair@$$CBUUserName@@K@_STL@@U?$_Nonconst_traits@U?$pair@$$CBUUserName@@K@_STL@@@2@@2@0@Z 0040a0a0 f i S3PDBSocketPool.obj
 0001:00009140       ??E?$_Rb_tree_iterator@U?$pair@$$CBUUserName@@K@_STL@@U?$_Nonconst_traits@U?$pair@$$CBUUserName@@K@_STL@@@2@@_STL@@QAE?AU01@H@Z 0040a140 f i S3PDBSocketPool.obj
 0001:00009160       ?lower_bound@?$_Rb_tree@UUserName@@U?$pair@$$CBUUserName@@K@_STL@@U?$_Select1st@U?$pair@$$CBUUserName@@K@_STL@@@3@UUserNameCmp@@V?$allocator@U?$pair@$$CBUUserName@@K@_STL@@@3@@_STL@@QAE?AU?$_Rb_tree_iterator@U?$pair@$$CBUUserName@@K@_STL@@U?$_Nonconst_traits@U?$pair@$$CBUUserName@@K@_STL@@@2@@2@ABUUserName@@@Z 0040a160 f i S3PDBSocketPool.obj
 0001:000091b0       ?deallocate@?$_STLP_alloc_proxy@PAU?$_Rb_tree_node@U?$pair@$$CBUUserName@@K@_STL@@@_STL@@U12@V?$allocator@U?$pair@$$CBUUserName@@K@_STL@@@2@@_STL@@QAEXPAU?$_Rb_tree_node@U?$pair@$$CBUUserName@@K@_STL@@@2@I@Z 0040a1b0 f i S3PDBSocketPool.obj
 0001:000091f0       ?_M_create_node@?$list@PAVKGatewayDataProcess@@V?$allocator@PAVKGatewayDataProcess@@@_STL@@@_STL@@IAEPAU?$_List_node@PAVKGatewayDataProcess@@@2@ABQAVKGatewayDataProcess@@@Z 0040a1f0 f i S3PDBSocketPool.obj
 0001:00009210       ??0?$pair@U?$_Rb_tree_iterator@U?$pair@$$CBUUserName@@K@_STL@@U?$_Nonconst_traits@U?$pair@$$CBUUserName@@K@_STL@@@2@@_STL@@U12@@_STL@@QAE@ABU01@@Z 0040a210 f i S3PDBSocketPool.obj
 0001:00009230       ??0?$pair@U?$_Rb_tree_iterator@U?$pair@$$CBUUserName@@K@_STL@@U?$_Nonconst_traits@U?$pair@$$CBUUserName@@K@_STL@@@2@@_STL@@U12@@_STL@@QAE@ABU?$_Rb_tree_iterator@U?$pair@$$CBUUserName@@K@_STL@@U?$_Nonconst_traits@U?$pair@$$CBUUserName@@K@_STL@@@2@@1@0@Z 0040a230 f i S3PDBSocketPool.obj
 0001:00009250       ?_M_upper_bound@?$_Rb_tree@UUserName@@U?$pair@$$CBUUserName@@K@_STL@@U?$_Select1st@U?$pair@$$CBUUserName@@K@_STL@@@3@UUserNameCmp@@V?$allocator@U?$pair@$$CBUUserName@@K@_STL@@@3@@_STL@@ABEPAU?$_Rb_tree_node@U?$pair@$$CBUUserName@@K@_STL@@@2@ABUUserName@@@Z 0040a250 f i S3PDBSocketPool.obj
 0001:00009290       ?_M_erase@?$_Rb_tree@UUserName@@U?$pair@$$CBUUserName@@K@_STL@@U?$_Select1st@U?$pair@$$CBUUserName@@K@_STL@@@3@UUserNameCmp@@V?$allocator@U?$pair@$$CBUUserName@@K@_STL@@@3@@_STL@@AAEXPAU?$_Rb_tree_node@U?$pair@$$CBUUserName@@K@_STL@@@2@@Z 0040a290 f i S3PDBSocketPool.obj
 0001:000092d0       ?insert_unique@?$_Rb_tree@UUserName@@U?$pair@$$CBUUserName@@K@_STL@@U?$_Select1st@U?$pair@$$CBUUserName@@K@_STL@@@3@UUserNameCmp@@V?$allocator@U?$pair@$$CBUUserName@@K@_STL@@@3@@_STL@@QAE?AU?$_Rb_tree_iterator@U?$pair@$$CBUUserName@@K@_STL@@U?$_Nonconst_traits@U?$pair@$$CBUUserName@@K@_STL@@@2@@2@U32@ABU?$pair@$$CBUUserName@@K@2@@Z 0040a2d0 f i S3PDBSocketPool.obj
 0001:00009900       ?begin@?$_Rb_tree@UUserName@@U?$pair@$$CBUUserName@@K@_STL@@U?$_Select1st@U?$pair@$$CBUUserName@@K@_STL@@@3@UUserNameCmp@@V?$allocator@U?$pair@$$CBUUserName@@K@_STL@@@3@@_STL@@QAE?AU?$_Rb_tree_iterator@U?$pair@$$CBUUserName@@K@_STL@@U?$_Nonconst_traits@U?$pair@$$CBUUserName@@K@_STL@@@2@@2@XZ 0040a900 f i S3PDBSocketPool.obj
 0001:00009910       ?_M_insert@?$_Rb_tree@UUserName@@U?$pair@$$CBUUserName@@K@_STL@@U?$_Select1st@U?$pair@$$CBUUserName@@K@_STL@@@3@UUserNameCmp@@V?$allocator@U?$pair@$$CBUUserName@@K@_STL@@@3@@_STL@@AAE?AU?$_Rb_tree_iterator@U?$pair@$$CBUUserName@@K@_STL@@U?$_Nonconst_traits@U?$pair@$$CBUUserName@@K@_STL@@@2@@2@PAU_Rb_tree_node_base@2@0ABU?$pair@$$CBUUserName@@K@2@0@Z 0040a910 f i S3PDBSocketPool.obj
 0001:000099c0       ?insert_unique@?$_Rb_tree@UUserName@@U?$pair@$$CBUUserName@@K@_STL@@U?$_Select1st@U?$pair@$$CBUUserName@@K@_STL@@@3@UUserNameCmp@@V?$allocator@U?$pair@$$CBUUserName@@K@_STL@@@3@@_STL@@QAE?AU?$pair@U?$_Rb_tree_iterator@U?$pair@$$CBUUserName@@K@_STL@@U?$_Nonconst_traits@U?$pair@$$CBUUserName@@K@_STL@@@2@@_STL@@_N@2@ABU?$pair@$$CBUUserName@@K@2@@Z 0040a9c0 f i S3PDBSocketPool.obj
 0001:00009b80       ?_M_find@?$_Rb_tree@UUserName@@U?$pair@$$CBUUserName@@K@_STL@@U?$_Select1st@U?$pair@$$CBUUserName@@K@_STL@@@3@UUserNameCmp@@V?$allocator@U?$pair@$$CBUUserName@@K@_STL@@@3@@_STL@@ABEPAU?$_Rb_tree_node@U?$pair@$$CBUUserName@@K@_STL@@@2@ABUUserName@@@Z 0040ab80 f i S3PDBSocketPool.obj
 0001:00009be0       ?_M_create_node@?$_Rb_tree@UUserName@@U?$pair@$$CBUUserName@@K@_STL@@U?$_Select1st@U?$pair@$$CBUUserName@@K@_STL@@@3@UUserNameCmp@@V?$allocator@U?$pair@$$CBUUserName@@K@_STL@@@3@@_STL@@IAEPAU?$_Rb_tree_node@U?$pair@$$CBUUserName@@K@_STL@@@2@ABU?$pair@$$CBUUserName@@K@2@@Z 0040abe0 f i S3PDBSocketPool.obj
 0001:00009c10       ??0?$pair@U?$_Rb_tree_iterator@U?$pair@$$CBUUserName@@K@_STL@@U?$_Nonconst_traits@U?$pair@$$CBUUserName@@K@_STL@@@2@@_STL@@_N@_STL@@QAE@ABU?$_Rb_tree_iterator@U?$pair@$$CBUUserName@@K@_STL@@U?$_Nonconst_traits@U?$pair@$$CBUUserName@@K@_STL@@@2@@1@AB_N@Z 0040ac10 f i S3PDBSocketPool.obj
 0001:00009c30       ??0?$pair@U?$_Rb_tree_iterator@U?$pair@$$CBUUserName@@K@_STL@@U?$_Nonconst_traits@U?$pair@$$CBUUserName@@K@_STL@@@2@@_STL@@_N@_STL@@QAE@ABU01@@Z 0040ac30 f i S3PDBSocketPool.obj
 0001:00009c50       ??_EKGatewayDataProcess@@WM@AEPAXI@Z 0040ac50 f i S3PDBSocketPool.obj
 0001:00009c60       ??0S3PResultVBC@@IAE@XZ    0040ac60 f   S3PResultVBC.obj
 0001:00009c70       ??_ES3PResultVBC@@MAEPAXI@Z 0040ac70 f i S3PResultVBC.obj
 0001:00009c70       ??_GS3PResultVBC@@MAEPAXI@Z 0040ac70 f i S3PResultVBC.obj
 0001:00009c90       ??1S3PResultVBC@@MAE@XZ    0040ac90 f   S3PResultVBC.obj
 0001:00009ca0       _WaitForSingleObject@8     0040aca0 f   kernel32:KERNEL32.dll
 0001:00009ca6       _CloseHandle@4             0040aca6 f   kernel32:KERNEL32.dll
 0001:00009cac       _TerminateThread@8         0040acac f   kernel32:KERNEL32.dll
 0001:00009cb2       _CreateEventA@16           0040acb2 f   kernel32:KERNEL32.dll
 0001:00009cb8       _SetEvent@4                0040acb8 f   kernel32:KERNEL32.dll
 0001:00009cbe       _ResetEvent@4              0040acbe f   kernel32:KERNEL32.dll
 0001:00009cc4       _GetModuleFileNameA@12     0040acc4 f   kernel32:KERNEL32.dll
 0001:00009cca       _CreateMutexA@12           0040acca f   kernel32:KERNEL32.dll
 0001:00009cd0       _ReleaseMutex@4            0040acd0 f   kernel32:KERNEL32.dll
 0001:00009cd6       _InitializeCriticalSection@4 0040acd6 f   kernel32:KERNEL32.dll
 0001:00009cdc       _DeleteCriticalSection@4   0040acdc f   kernel32:KERNEL32.dll
 0001:00009ce2       _EnterCriticalSection@4    0040ace2 f   kernel32:KERNEL32.dll
 0001:00009ce8       _LeaveCriticalSection@4    0040ace8 f   kernel32:KERNEL32.dll
 0001:00009cee       _GetFileAttributesA@4      0040acee f   kernel32:KERNEL32.dll
 0001:00009cf4       _WriteFile@20              0040acf4 f   kernel32:KERNEL32.dll
 0001:00009cfa       _GetLocalTime@4            0040acfa f   kernel32:KERNEL32.dll
 0001:00009d00       _GetFileSize@8             0040ad00 f   kernel32:KERNEL32.dll
 0001:00009d06       _CreateDirectoryA@8        0040ad06 f   kernel32:KERNEL32.dll
 0001:00009d0c       _CreateFileA@28            0040ad0c f   kernel32:KERNEL32.dll
 0001:00009d12       _FreeLibrary@4             0040ad12 f   kernel32:KERNEL32.dll
 0001:00009d18       _GetProcAddress@8          0040ad18 f   kernel32:KERNEL32.dll
 0001:00009d1e       _LoadLibraryA@4            0040ad1e f   kernel32:KERNEL32.dll
 0001:00009d24       _LocalFree@4               0040ad24 f   kernel32:KERNEL32.dll
 0001:00009d2a       _InterlockedDecrement@4    0040ad2a f   kernel32:KERNEL32.dll
 0001:00009d30       _LocalAlloc@8              0040ad30 f   kernel32:KERNEL32.dll
 0001:00009d36       _FormatMessageA@28         0040ad36 f   kernel32:KERNEL32.dll
 0001:00009d3c       _GetLastError@0            0040ad3c f   kernel32:KERNEL32.dll
 0001:00009d42       _MultiByteToWideChar@24    0040ad42 f   kernel32:KERNEL32.dll
 0001:00009d48       _lstrlenA@4                0040ad48 f   kernel32:KERNEL32.dll
 0001:00009d4e       _Sleep@4                   0040ad4e f   kernel32:KERNEL32.dll
 0001:00009d54       _GetTickCount@0            0040ad54 f   kernel32:KERNEL32.dll
 0001:00009d5a       _DispatchMessageA@4        0040ad5a f   user32:USER32.dll
 0001:00009d60       _TranslateMessage@4        0040ad60 f   user32:USER32.dll
 0001:00009d66       _GetMessageA@16            0040ad66 f   user32:USER32.dll
 0001:00009d6c       _LoadStringA@16            0040ad6c f   user32:USER32.dll
 0001:00009d72       _MessageBoxA@16            0040ad72 f   user32:USER32.dll
 0001:00009d78       _RegisterClassExA@4        0040ad78 f   user32:USER32.dll
 0001:00009d7e       _LoadCursorA@8             0040ad7e f   user32:USER32.dll
 0001:00009d84       _LoadIconA@8               0040ad84 f   user32:USER32.dll
 0001:00009d8a       _SendMessageA@16           0040ad8a f   user32:USER32.dll
 0001:00009d90       _SetTimer@16               0040ad90 f   user32:USER32.dll
 0001:00009d96       _UpdateWindow@4            0040ad96 f   user32:USER32.dll
 0001:00009d9c       _ShowWindow@8              0040ad9c f   user32:USER32.dll
 0001:00009da2       _GetClientRect@8           0040ada2 f   user32:USER32.dll
 0001:00009da8       _CreateWindowExA@48        0040ada8 f   user32:USER32.dll
 0001:00009dae       _EndDialog@8               0040adae f   user32:USER32.dll
 0001:00009db4       _DialogBoxParamA@20        0040adb4 f   user32:USER32.dll
 0001:00009dba       _DefWindowProcA@16         0040adba f   user32:USER32.dll
 0001:00009dc0       _DestroyWindow@4           0040adc0 f   user32:USER32.dll
 0001:00009dc6       _PostQuitMessage@4         0040adc6 f   user32:USER32.dll
 0001:00009dcc       _KillTimer@8               0040adcc f   user32:USER32.dll
 0001:00009dd2       _MoveWindow@24             0040add2 f   user32:USER32.dll
 0001:00009dd8       _EndPaint@8                0040add8 f   user32:USER32.dll
 0001:00009dde       _BeginPaint@8              0040adde f   user32:USER32.dll
 0001:00009de4       _wsprintfA                 0040ade4 f   user32:USER32.dll
 0001:00009dea       _CoInitializeEx@8          0040adea f   ole32:ole32.dll
 0001:00009df0       _CoUninitialize@0          0040adf0 f   ole32:ole32.dll
 0001:00009df6       _OleRun@4                  0040adf6 f   ole32:ole32.dll
 0001:00009dfc       _CoCreateInstance@20       0040adfc f   ole32:ole32.dll
 0001:00009e02       _CLSIDFromProgID@8         0040ae02 f   ole32:ole32.dll
 0001:00009e08       _CLSIDFromString@8         0040ae08 f   ole32:ole32.dll
 0001:00009e0e       _VariantClear@4            0040ae0e f   oleaut32:OLEAUT32.dll
 0001:00009e14       _VariantInit@4             0040ae14 f   oleaut32:OLEAUT32.dll
 0001:00009e1a       _SysFreeString@4           0040ae1a f   oleaut32:OLEAUT32.dll
 0001:00009e20       _SysAllocString@4          0040ae20 f   oleaut32:OLEAUT32.dll
 0001:00009e26       _VariantChangeType@16      0040ae26 f   oleaut32:OLEAUT32.dll
 0001:00009e2c       _WSACleanup@0              0040ae2c f   Ws2_32:WS2_32.dll
 0001:00009e32       _closesocket@4             0040ae32 f   Ws2_32:WS2_32.dll
 0001:00009e38       _bind@12                   0040ae38 f   Ws2_32:WS2_32.dll
 0001:00009e3e       _htonl@4                   0040ae3e f   Ws2_32:WS2_32.dll
 0001:00009e44       _htons@4                   0040ae44 f   Ws2_32:WS2_32.dll
 0001:00009e4a       _socket@12                 0040ae4a f   Ws2_32:WS2_32.dll
 0001:00009e50       _WSAStartup@8              0040ae50 f   Ws2_32:WS2_32.dll
 0001:00009e56       _inet_addr@4               0040ae56 f   Ws2_32:WS2_32.dll
 0001:00009e5c       _inet_ntoa@4               0040ae5c f   Ws2_32:WS2_32.dll
 0001:00009e70       ?get_allocator@?$basic_string@GV?$char_traits@G@_STL@@V?$allocator@G@2@@_STL@@QBE?AV?$allocator@G@2@XZ 0040ae70 f i stlport_vc6_static:string_w.obj
 0001:00009e90       ??0?$basic_string@GV?$char_traits@G@_STL@@V?$allocator@G@2@@_STL@@QAE@ABV?$allocator@G@1@@Z 0040ae90 f i stlport_vc6_static:string_w.obj
 0001:00009f20       ??0?$basic_string@GV?$char_traits@G@_STL@@V?$allocator@G@2@@_STL@@QAE@U_String_reserve_t@1@IABV?$allocator@G@1@@Z 0040af20 f i stlport_vc6_static:string_w.obj
 0001:00009ff0       ??0?$basic_string@GV?$char_traits@G@_STL@@V?$allocator@G@2@@_STL@@QAE@ABV01@IIABV?$allocator@G@1@@Z 0040aff0 f i stlport_vc6_static:string_w.obj
 0001:0000a160       ??0?$basic_string@GV?$char_traits@G@_STL@@V?$allocator@G@2@@_STL@@QAE@PBGIABV?$allocator@G@1@@Z 0040b160 f i stlport_vc6_static:string_w.obj
 0001:0000a290       ??0?$basic_string@GV?$char_traits@G@_STL@@V?$allocator@G@2@@_STL@@QAE@IGABV?$allocator@G@1@@Z 0040b290 f i stlport_vc6_static:string_w.obj
 0001:0000a360       ??1?$basic_string@GV?$char_traits@G@_STL@@V?$allocator@G@2@@_STL@@QAE@XZ 0040b360 f i stlport_vc6_static:string_w.obj
 0001:0000a3f0       ??4?$basic_string@GV?$char_traits@G@_STL@@V?$allocator@G@2@@_STL@@QAEAAV01@ABV01@@Z 0040b3f0 f i stlport_vc6_static:string_w.obj
 0001:0000a480       ??4?$basic_string@GV?$char_traits@G@_STL@@V?$allocator@G@2@@_STL@@QAEAAV01@PBG@Z 0040b480 f i stlport_vc6_static:string_w.obj
 0001:0000a550       ??4?$basic_string@GV?$char_traits@G@_STL@@V?$allocator@G@2@@_STL@@QAEAAV01@G@Z 0040b550 f i stlport_vc6_static:string_w.obj
 0001:0000a5f0       ?_M_null@?$basic_string@GV?$char_traits@G@_STL@@V?$allocator@G@2@@_STL@@SAGXZ 0040b5f0 f i stlport_vc6_static:string_w.obj
 0001:0000a600       ?_M_construct_null_aux@?$basic_string@GV?$char_traits@G@_STL@@V?$allocator@G@2@@_STL@@AAEXPAGABU__false_type@2@@Z 0040b600 f i stlport_vc6_static:string_w.obj
 0001:0000a610       ?_M_construct_null_aux@?$basic_string@GV?$char_traits@G@_STL@@V?$allocator@G@2@@_STL@@AAEXPAGABU__true_type@2@@Z 0040b610 f i stlport_vc6_static:string_w.obj
 0001:0000a620       ?_M_construct_null@?$basic_string@GV?$char_traits@G@_STL@@V?$allocator@G@2@@_STL@@AAEXPAG@Z 0040b620 f i stlport_vc6_static:string_w.obj
 0001:0000a630       ?_M_terminate_string_aux@?$basic_string@GV?$char_traits@G@_STL@@V?$allocator@G@2@@_STL@@AAEXABU__false_type@2@@Z 0040b630 f i stlport_vc6_static:string_w.obj
 0001:0000a640       ?_M_terminate_string_aux@?$basic_string@GV?$char_traits@G@_STL@@V?$allocator@G@2@@_STL@@AAEXABU__true_type@2@@Z 0040b640 f i stlport_vc6_static:string_w.obj
 0001:0000a650       ?_M_terminate_string@?$basic_string@GV?$char_traits@G@_STL@@V?$allocator@G@2@@_STL@@AAEXXZ 0040b650 f i stlport_vc6_static:string_w.obj
 0001:0000a660       ?begin@?$basic_string@GV?$char_traits@G@_STL@@V?$allocator@G@2@@_STL@@QAEPAGXZ 0040b660 f i stlport_vc6_static:string_w.obj
 0001:0000a670       ?end@?$basic_string@GV?$char_traits@G@_STL@@V?$allocator@G@2@@_STL@@QAEPAGXZ 0040b670 f i stlport_vc6_static:string_w.obj
 0001:0000a680       ?begin@?$basic_string@GV?$char_traits@G@_STL@@V?$allocator@G@2@@_STL@@QBEPBGXZ 0040b680 f i stlport_vc6_static:string_w.obj
 0001:0000a690       ?end@?$basic_string@GV?$char_traits@G@_STL@@V?$allocator@G@2@@_STL@@QBEPBGXZ 0040b690 f i stlport_vc6_static:string_w.obj
 0001:0000a6a0       ?rbegin@?$basic_string@GV?$char_traits@G@_STL@@V?$allocator@G@2@@_STL@@QAE?AV?$reverse_iterator@PAGGAAGPAGH@2@XZ 0040b6a0 f i stlport_vc6_static:string_w.obj
 0001:0000a6b0       ?rend@?$basic_string@GV?$char_traits@G@_STL@@V?$allocator@G@2@@_STL@@QAE?AV?$reverse_iterator@PAGGAAGPAGH@2@XZ 0040b6b0 f i stlport_vc6_static:string_w.obj
 0001:0000a6c0       ?rbegin@?$basic_string@GV?$char_traits@G@_STL@@V?$allocator@G@2@@_STL@@QBE?AV?$reverse_iterator@PBGGABGPBGH@2@XZ 0040b6c0 f i stlport_vc6_static:string_w.obj
 0001:0000a6d0       ?rend@?$basic_string@GV?$char_traits@G@_STL@@V?$allocator@G@2@@_STL@@QBE?AV?$reverse_iterator@PBGGABGPBGH@2@XZ 0040b6d0 f i stlport_vc6_static:string_w.obj
 0001:0000a6e0       ?size@?$basic_string@GV?$char_traits@G@_STL@@V?$allocator@G@2@@_STL@@QBEIXZ 0040b6e0 f i stlport_vc6_static:string_w.obj
 0001:0000a6f0       ?length@?$basic_string@GV?$char_traits@G@_STL@@V?$allocator@G@2@@_STL@@QBEIXZ 0040b6f0 f i stlport_vc6_static:string_w.obj
 0001:0000a700       ?max_size@?$basic_string@GV?$char_traits@G@_STL@@V?$allocator@G@2@@_STL@@QBEIXZ 0040b700 f i stlport_vc6_static:string_w.obj
 0001:0000a710       ?resize@?$basic_string@GV?$char_traits@G@_STL@@V?$allocator@G@2@@_STL@@QAEXIG@Z 0040b710 f i stlport_vc6_static:string_w.obj
 0001:0000a770       ?resize@?$basic_string@GV?$char_traits@G@_STL@@V?$allocator@G@2@@_STL@@QAEXI@Z 0040b770 f i stlport_vc6_static:string_w.obj
 0001:0000a7d0       ?capacity@?$basic_string@GV?$char_traits@G@_STL@@V?$allocator@G@2@@_STL@@QBEIXZ 0040b7d0 f i stlport_vc6_static:string_w.obj
 0001:0000a7e0       ?clear@?$basic_string@GV?$char_traits@G@_STL@@V?$allocator@G@2@@_STL@@QAEXXZ 0040b7e0 f i stlport_vc6_static:string_w.obj
 0001:0000a800       ?empty@?$basic_string@GV?$char_traits@G@_STL@@V?$allocator@G@2@@_STL@@QBE_NXZ 0040b800 f i stlport_vc6_static:string_w.obj
 0001:0000a820       ??A?$basic_string@GV?$char_traits@G@_STL@@V?$allocator@G@2@@_STL@@QBEABGI@Z 0040b820 f i stlport_vc6_static:string_w.obj
 0001:0000a830       ??A?$basic_string@GV?$char_traits@G@_STL@@V?$allocator@G@2@@_STL@@QAEAAGI@Z 0040b830 f i stlport_vc6_static:string_w.obj
 0001:0000a840       ?at@?$basic_string@GV?$char_traits@G@_STL@@V?$allocator@G@2@@_STL@@QBEABGI@Z 0040b840 f i stlport_vc6_static:string_w.obj
 0001:0000a870       ?at@?$basic_string@GV?$char_traits@G@_STL@@V?$allocator@G@2@@_STL@@QAEAAGI@Z 0040b870 f i stlport_vc6_static:string_w.obj
 0001:0000a8a0       ??Y?$basic_string@GV?$char_traits@G@_STL@@V?$allocator@G@2@@_STL@@QAEAAV01@ABV01@@Z 0040b8a0 f i stlport_vc6_static:string_w.obj
 0001:0000a8d0       ??Y?$basic_string@GV?$char_traits@G@_STL@@V?$allocator@G@2@@_STL@@QAEAAV01@PBG@Z 0040b8d0 f i stlport_vc6_static:string_w.obj
 0001:0000a910       ??Y?$basic_string@GV?$char_traits@G@_STL@@V?$allocator@G@2@@_STL@@QAEAAV01@G@Z 0040b910 f i stlport_vc6_static:string_w.obj
 0001:0000a980       ?append@?$basic_string@GV?$char_traits@G@_STL@@V?$allocator@G@2@@_STL@@QAEAAV12@ABV12@@Z 0040b980 f i stlport_vc6_static:string_w.obj
 0001:0000a9b0       ?append@?$basic_string@GV?$char_traits@G@_STL@@V?$allocator@G@2@@_STL@@QAEAAV12@ABV12@II@Z 0040b9b0 f i stlport_vc6_static:string_w.obj
 0001:0000aa20       ?append@?$basic_string@GV?$char_traits@G@_STL@@V?$allocator@G@2@@_STL@@QAEAAV12@PBGI@Z 0040ba20 f i stlport_vc6_static:string_w.obj
 0001:0000aa50       ?append@?$basic_string@GV?$char_traits@G@_STL@@V?$allocator@G@2@@_STL@@QAEAAV12@PBG@Z 0040ba50 f i stlport_vc6_static:string_w.obj
 0001:0000aa90       ?push_back@?$basic_string@GV?$char_traits@G@_STL@@V?$allocator@G@2@@_STL@@QAEXG@Z 0040ba90 f i stlport_vc6_static:string_w.obj
 0001:0000ab00       ?pop_back@?$basic_string@GV?$char_traits@G@_STL@@V?$allocator@G@2@@_STL@@QAEXXZ 0040bb00 f i stlport_vc6_static:string_w.obj
 0001:0000ab20       ?assign@?$basic_string@GV?$char_traits@G@_STL@@V?$allocator@G@2@@_STL@@QAEAAV12@ABV12@@Z 0040bb20 f i stlport_vc6_static:string_w.obj
 0001:0000abb0       ?assign@?$basic_string@GV?$char_traits@G@_STL@@V?$allocator@G@2@@_STL@@QAEAAV12@ABV12@II@Z 0040bbb0 f i stlport_vc6_static:string_w.obj
 0001:0000ac80       ?assign@?$basic_string@GV?$char_traits@G@_STL@@V?$allocator@G@2@@_STL@@QAEAAV12@PBGI@Z 0040bc80 f i stlport_vc6_static:string_w.obj
 0001:0000ad40       ?assign@?$basic_string@GV?$char_traits@G@_STL@@V?$allocator@G@2@@_STL@@QAEAAV12@PBG@Z 0040bd40 f i stlport_vc6_static:string_w.obj
 0001:0000ae10       ?assign@?$basic_string@GV?$char_traits@G@_STL@@V?$allocator@G@2@@_STL@@QAEAAV12@PBG0@Z 0040be10 f i stlport_vc6_static:string_w.obj
 0001:0000aed0       ?_M_acquire_lock@_STLP_mutex_base@_STL@@QAEXXZ 0040bed0 f i stlport_vc6_static:string_w.obj
 0001:0000afc0       ?_M_release_lock@_STLP_mutex_base@_STL@@QAEXXZ 0040bfc0 f i stlport_vc6_static:string_w.obj
 0001:0000afd0       ?insert@?$basic_string@GV?$char_traits@G@_STL@@V?$allocator@G@2@@_STL@@QAEAAV12@IABV12@@Z 0040bfd0 f i stlport_vc6_static:string_w.obj
 0001:0000b050       ?insert@?$basic_string@GV?$char_traits@G@_STL@@V?$allocator@G@2@@_STL@@QAEAAV12@IABV12@II@Z 0040c050 f i stlport_vc6_static:string_w.obj
 0001:0000b100       ?insert@?$basic_string@GV?$char_traits@G@_STL@@V?$allocator@G@2@@_STL@@QAEAAV12@IPBGI@Z 0040c100 f i stlport_vc6_static:string_w.obj
 0001:0000b180       ?insert@?$basic_string@GV?$char_traits@G@_STL@@V?$allocator@G@2@@_STL@@QAEAAV12@IPBG@Z 0040c180 f i stlport_vc6_static:string_w.obj
 0001:0000b210       ?insert@?$basic_string@GV?$char_traits@G@_STL@@V?$allocator@G@2@@_STL@@QAEAAV12@IIG@Z 0040c210 f i stlport_vc6_static:string_w.obj
 0001:0000b280       ?insert@?$basic_string@GV?$char_traits@G@_STL@@V?$allocator@G@2@@_STL@@QAEPAGPAGG@Z 0040c280 f i stlport_vc6_static:string_w.obj
 0001:0000b300       ?_M_copy@?$basic_string@GV?$char_traits@G@_STL@@V?$allocator@G@2@@_STL@@AAEXPBG0PAG@Z 0040c300 f i stlport_vc6_static:string_w.obj
 0001:0000b330       ?erase@?$basic_string@GV?$char_traits@G@_STL@@V?$allocator@G@2@@_STL@@QAEAAV12@II@Z 0040c330 f i stlport_vc6_static:string_w.obj
 0001:0000b3c0       ?erase@?$basic_string@GV?$char_traits@G@_STL@@V?$allocator@G@2@@_STL@@QAEPAGPAG@Z 0040c3c0 f i stlport_vc6_static:string_w.obj
 0001:0000b400       ?erase@?$basic_string@GV?$char_traits@G@_STL@@V?$allocator@G@2@@_STL@@QAEPAGPAG0@Z 0040c400 f i stlport_vc6_static:string_w.obj
 0001:0000b440       ?replace@?$basic_string@GV?$char_traits@G@_STL@@V?$allocator@G@2@@_STL@@QAEAAV12@IIABV12@@Z 0040c440 f i stlport_vc6_static:string_w.obj
 0001:0000b570       ?replace@?$basic_string@GV?$char_traits@G@_STL@@V?$allocator@G@2@@_STL@@QAEAAV12@IIABV12@II@Z 0040c570 f i stlport_vc6_static:string_w.obj
 0001:0000b6d0       ?replace@?$basic_string@GV?$char_traits@G@_STL@@V?$allocator@G@2@@_STL@@QAEAAV12@IIPBGI@Z 0040c6d0 f i stlport_vc6_static:string_w.obj
 0001:0000b800       ?replace@?$basic_string@GV?$char_traits@G@_STL@@V?$allocator@G@2@@_STL@@QAEAAV12@IIPBG@Z 0040c800 f i stlport_vc6_static:string_w.obj
 0001:0000b950       ?replace@?$basic_string@GV?$char_traits@G@_STL@@V?$allocator@G@2@@_STL@@QAEAAV12@IIIG@Z 0040c950 f i stlport_vc6_static:string_w.obj
 0001:0000ba80       ?replace@?$basic_string@GV?$char_traits@G@_STL@@V?$allocator@G@2@@_STL@@QAEAAV12@PAG0ABV12@@Z 0040ca80 f i stlport_vc6_static:string_w.obj
 0001:0000bb40       ?replace@?$basic_string@GV?$char_traits@G@_STL@@V?$allocator@G@2@@_STL@@QAEAAV12@PAG0PBGI@Z 0040cb40 f i stlport_vc6_static:string_w.obj
 0001:0000bc00       ?replace@?$basic_string@GV?$char_traits@G@_STL@@V?$allocator@G@2@@_STL@@QAEAAV12@PAG0PBG@Z 0040cc00 f i stlport_vc6_static:string_w.obj
 0001:0000bce0       ?copy@?$basic_string@GV?$char_traits@G@_STL@@V?$allocator@G@2@@_STL@@QBEIPAGII@Z 0040cce0 f i stlport_vc6_static:string_w.obj
 0001:0000bd50       ?swap@?$basic_string@GV?$char_traits@G@_STL@@V?$allocator@G@2@@_STL@@QAEXAAV12@@Z 0040cd50 f i stlport_vc6_static:string_w.obj
 0001:0000bd80       ?c_str@?$basic_string@GV?$char_traits@G@_STL@@V?$allocator@G@2@@_STL@@QBEPBGXZ 0040cd80 f i stlport_vc6_static:string_w.obj
 0001:0000bd90       ?data@?$basic_string@GV?$char_traits@G@_STL@@V?$allocator@G@2@@_STL@@QBEPBGXZ 0040cd90 f i stlport_vc6_static:string_w.obj
 0001:0000bda0       ?find@?$basic_string@GV?$char_traits@G@_STL@@V?$allocator@G@2@@_STL@@QBEIABV12@I@Z 0040cda0 f i stlport_vc6_static:string_w.obj
 0001:0000bea0       ?find@?$basic_string@GV?$char_traits@G@_STL@@V?$allocator@G@2@@_STL@@QBEIPBGI@Z 0040cea0 f i stlport_vc6_static:string_w.obj
 0001:0000bfa0       ?rfind@?$basic_string@GV?$char_traits@G@_STL@@V?$allocator@G@2@@_STL@@QBEIABV12@I@Z 0040cfa0 f i stlport_vc6_static:string_w.obj
 0001:0000c0f0       ?rfind@?$basic_string@GV?$char_traits@G@_STL@@V?$allocator@G@2@@_STL@@QBEIPBGI@Z 0040d0f0 f i stlport_vc6_static:string_w.obj
 0001:0000c250       ?find_first_of@?$basic_string@GV?$char_traits@G@_STL@@V?$allocator@G@2@@_STL@@QBEIABV12@I@Z 0040d250 f i stlport_vc6_static:string_w.obj
 0001:0000c2c0       ?find_first_of@?$basic_string@GV?$char_traits@G@_STL@@V?$allocator@G@2@@_STL@@QBEIPBGI@Z 0040d2c0 f i stlport_vc6_static:string_w.obj
 0001:0000c340       ?find_first_of@?$basic_string@GV?$char_traits@G@_STL@@V?$allocator@G@2@@_STL@@QBEIGI@Z 0040d340 f i stlport_vc6_static:string_w.obj
 0001:0000c3d0       ?find_last_of@?$basic_string@GV?$char_traits@G@_STL@@V?$allocator@G@2@@_STL@@QBEIABV12@I@Z 0040d3d0 f i stlport_vc6_static:string_w.obj
 0001:0000c460       ?find_last_of@?$basic_string@GV?$char_traits@G@_STL@@V?$allocator@G@2@@_STL@@QBEIPBGI@Z 0040d460 f i stlport_vc6_static:string_w.obj
 0001:0000c500       ?find_last_of@?$basic_string@GV?$char_traits@G@_STL@@V?$allocator@G@2@@_STL@@QBEIGI@Z 0040d500 f i stlport_vc6_static:string_w.obj
 0001:0000c580       ?find_first_not_of@?$basic_string@GV?$char_traits@G@_STL@@V?$allocator@G@2@@_STL@@QBEIABV12@I@Z 0040d580 f i stlport_vc6_static:string_w.obj
 0001:0000c790       ?find_first_not_of@?$basic_string@GV?$char_traits@G@_STL@@V?$allocator@G@2@@_STL@@QBEIPBGI@Z 0040d790 f i stlport_vc6_static:string_w.obj
 0001:0000c970       ?find_last_not_of@?$basic_string@GV?$char_traits@G@_STL@@V?$allocator@G@2@@_STL@@QBEIABV12@I@Z 0040d970 f i stlport_vc6_static:string_w.obj
 0001:0000ca00       ?find_last_not_of@?$basic_string@GV?$char_traits@G@_STL@@V?$allocator@G@2@@_STL@@QBEIPBGI@Z 0040da00 f i stlport_vc6_static:string_w.obj
 0001:0000caa0       ?substr@?$basic_string@GV?$char_traits@G@_STL@@V?$allocator@G@2@@_STL@@QBE?AV12@II@Z 0040daa0 f i stlport_vc6_static:string_w.obj
 0001:0000cbc0       ?__stl_new@_STL@@YAPAXI@Z  0040dbc0 f i stlport_vc6_static:string_w.obj
 0001:0000cbd0       ?compare@?$basic_string@GV?$char_traits@G@_STL@@V?$allocator@G@2@@_STL@@QBEHABV12@@Z 0040dbd0 f i stlport_vc6_static:string_w.obj
 0001:0000cc70       ?compare@?$basic_string@GV?$char_traits@G@_STL@@V?$allocator@G@2@@_STL@@QBEHIIABV12@@Z 0040dc70 f i stlport_vc6_static:string_w.obj
 0001:0000cd50       ?compare@?$basic_string@GV?$char_traits@G@_STL@@V?$allocator@G@2@@_STL@@QBEHIIABV12@II@Z 0040dd50 f i stlport_vc6_static:string_w.obj
 0001:0000ce70       ?compare@?$basic_string@GV?$char_traits@G@_STL@@V?$allocator@G@2@@_STL@@QBEHPBG@Z 0040de70 f i stlport_vc6_static:string_w.obj
 0001:0000cf20       ?compare@?$basic_string@GV?$char_traits@G@_STL@@V?$allocator@G@2@@_STL@@QBEHIIPBG@Z 0040df20 f i stlport_vc6_static:string_w.obj
 0001:0000d000       ?compare@?$basic_string@GV?$char_traits@G@_STL@@V?$allocator@G@2@@_STL@@QBEHIIPBGI@Z 0040e000 f i stlport_vc6_static:string_w.obj
 0001:0000d0d0       ?_M_compare@?$basic_string@GV?$char_traits@G@_STL@@V?$allocator@G@2@@_STL@@SAHPBG000@Z 0040e0d0 f i stlport_vc6_static:string_w.obj
 0001:0000d160       ?_M_deallocate_block@?$_String_base@GV?$allocator@G@_STL@@@_STL@@QAEXXZ 0040e160 f i stlport_vc6_static:string_w.obj
 0001:0000d190       ?max_size@?$_String_base@GV?$allocator@G@_STL@@@_STL@@QBEIXZ 0040e190 f i stlport_vc6_static:string_w.obj
 0001:0000d1a0       ??0?$_String_base@GV?$allocator@G@_STL@@@_STL@@QAE@ABV?$allocator@G@1@@Z 0040e1a0 f i stlport_vc6_static:string_w.obj
 0001:0000d1b0       ??0?$_String_base@GV?$allocator@G@_STL@@@_STL@@QAE@ABV?$allocator@G@1@I@Z 0040e1b0 f i stlport_vc6_static:string_w.obj
 0001:0000d300       ??1?$_String_base@GV?$allocator@G@_STL@@@_STL@@QAE@XZ 0040e300 f i stlport_vc6_static:string_w.obj
 0001:0000d390       ??0?$allocator@G@_STL@@QAE@XZ 0040e390 f i stlport_vc6_static:string_w.obj
 0001:0000d3a0       ??0?$allocator@G@_STL@@QAE@ABV01@@Z 0040e3a0 f i stlport_vc6_static:string_w.obj
 0001:0000d3b0       ??1?$allocator@G@_STL@@QAE@XZ 0040e3b0 f i stlport_vc6_static:string_w.obj
 0001:0000d3c0       ?address@?$allocator@G@_STL@@QAEPAGAAG@Z 0040e3c0 f i stlport_vc6_static:string_w.obj
 0001:0000d3d0       ?address@?$allocator@G@_STL@@QBEPBGABG@Z 0040e3d0 f i stlport_vc6_static:string_w.obj
 0001:0000d3e0       ?allocate@?$allocator@G@_STL@@QBEPAGIPBX@Z 0040e3e0 f i stlport_vc6_static:string_w.obj
 0001:0000d410       ?deallocate@?$allocator@G@_STL@@QBEXPAGI@Z 0040e410 f i stlport_vc6_static:string_w.obj
 0001:0000d440       ?deallocate@?$allocator@G@_STL@@QBEXPAG@Z 0040e440 f i stlport_vc6_static:string_w.obj
 0001:0000d460       ?max_size@?$allocator@G@_STL@@QBEIXZ 0040e460 f i stlport_vc6_static:string_w.obj
 0001:0000d470       ?construct@?$allocator@G@_STL@@QBEXPAGABG@Z 0040e470 f i stlport_vc6_static:string_w.obj
 0001:0000d490       ?destroy@?$allocator@G@_STL@@QBEXPAG@Z 0040e490 f i stlport_vc6_static:string_w.obj
 0001:0000d4a0       ??1?$_STLP_alloc_proxy@PAGGV?$allocator@G@_STL@@@_STL@@QAE@XZ 0040e4a0 f i stlport_vc6_static:string_w.obj
 0001:0000d4b0       ??0?$reverse_iterator@PBGGABGPBGH@_STL@@QAE@PBG@Z 0040e4b0 f i stlport_vc6_static:string_w.obj
 0001:0000d4c0       ?_M_do_lock@?$_STLP_mutex_spin@$0A@@_STL@@SAXPCJ@Z 0040e4c0 f i stlport_vc6_static:string_w.obj
 0001:0000d5b0       ?_M_allocate_block@?$_String_base@GV?$allocator@G@_STL@@@_STL@@QAEXI@Z 0040e5b0 f i stlport_vc6_static:string_w.obj
 0001:0000d610       ?_M_throw_length_error@?$_String_base@GV?$allocator@G@_STL@@@_STL@@QBEXXZ 0040e610 f i stlport_vc6_static:string_w.obj
 0001:0000d620       ?_M_throw_out_of_range@?$_String_base@GV?$allocator@G@_STL@@@_STL@@QBEXXZ 0040e620 f i stlport_vc6_static:string_w.obj
 0001:0000d630       ??0?$basic_string@GV?$char_traits@G@_STL@@V?$allocator@G@2@@_STL@@QAE@PBGABV?$allocator@G@1@@Z 0040e630 f i stlport_vc6_static:string_w.obj
 0001:0000d700       ??0?$basic_string@GV?$char_traits@G@_STL@@V?$allocator@G@2@@_STL@@QAE@ABV01@@Z 0040e700 f i stlport_vc6_static:string_w.obj
 0001:0000d7d0       ??0?$basic_string@GV?$char_traits@G@_STL@@V?$allocator@G@2@@_STL@@QAE@XZ 0040e7d0 f i stlport_vc6_static:string_w.obj
 0001:0000d8a0       ?reserve@?$basic_string@GV?$char_traits@G@_STL@@V?$allocator@G@2@@_STL@@QAEXI@Z 0040e8a0 f i stlport_vc6_static:string_w.obj
 0001:0000da60       ?append@?$basic_string@GV?$char_traits@G@_STL@@V?$allocator@G@2@@_STL@@QAEAAV12@IG@Z 0040ea60 f i stlport_vc6_static:string_w.obj
 0001:0000db20       ?assign@?$basic_string@GV?$char_traits@G@_STL@@V?$allocator@G@2@@_STL@@QAEAAV12@IG@Z 0040eb20 f i stlport_vc6_static:string_w.obj
 0001:0000dbd0       ?insert@?$basic_string@GV?$char_traits@G@_STL@@V?$allocator@G@2@@_STL@@QAEXPAGIG@Z 0040ebd0 f i stlport_vc6_static:string_w.obj
 0001:0000de90       ?_M_insert_aux@?$basic_string@GV?$char_traits@G@_STL@@V?$allocator@G@2@@_STL@@AAEPAGPAGG@Z 0040ee90 f i stlport_vc6_static:string_w.obj
 0001:0000e0b0       ?replace@?$basic_string@GV?$char_traits@G@_STL@@V?$allocator@G@2@@_STL@@QAEAAV12@PAG0IG@Z 0040f0b0 f i stlport_vc6_static:string_w.obj
 0001:0000e170       ?find@?$basic_string@GV?$char_traits@G@_STL@@V?$allocator@G@2@@_STL@@QBEIGI@Z 0040f170 f i stlport_vc6_static:string_w.obj
 0001:0000e200       ?find@?$basic_string@GV?$char_traits@G@_STL@@V?$allocator@G@2@@_STL@@QBEIPBGII@Z 0040f200 f i stlport_vc6_static:string_w.obj
 0001:0000e2f0       ?rfind@?$basic_string@GV?$char_traits@G@_STL@@V?$allocator@G@2@@_STL@@QBEIGI@Z 0040f2f0 f i stlport_vc6_static:string_w.obj
 0001:0000e370       ?rfind@?$basic_string@GV?$char_traits@G@_STL@@V?$allocator@G@2@@_STL@@QBEIPBGII@Z 0040f370 f i stlport_vc6_static:string_w.obj
 0001:0000e4b0       ?find_first_of@?$basic_string@GV?$char_traits@G@_STL@@V?$allocator@G@2@@_STL@@QBEIPBGII@Z 0040f4b0 f i stlport_vc6_static:string_w.obj
 0001:0000e520       ?find_last_of@?$basic_string@GV?$char_traits@G@_STL@@V?$allocator@G@2@@_STL@@QBEIPBGII@Z 0040f520 f i stlport_vc6_static:string_w.obj
 0001:0000e5b0       ?find_first_not_of@?$basic_string@GV?$char_traits@G@_STL@@V?$allocator@G@2@@_STL@@QBEIGI@Z 0040f5b0 f i stlport_vc6_static:string_w.obj
 0001:0000e640       ?find_first_not_of@?$basic_string@GV?$char_traits@G@_STL@@V?$allocator@G@2@@_STL@@QBEIPBGII@Z 0040f640 f i stlport_vc6_static:string_w.obj
 0001:0000e850       ?find_last_not_of@?$basic_string@GV?$char_traits@G@_STL@@V?$allocator@G@2@@_STL@@QBEIGI@Z 0040f850 f i stlport_vc6_static:string_w.obj
 0001:0000e8d0       ?find_last_not_of@?$basic_string@GV?$char_traits@G@_STL@@V?$allocator@G@2@@_STL@@QBEIPBGII@Z 0040f8d0 f i stlport_vc6_static:string_w.obj
 0001:0000e960       ?_M_range_initialize@?$basic_string@GV?$char_traits@G@_STL@@V?$allocator@G@2@@_STL@@AAEXPAG0@Z 0040f960 f i stlport_vc6_static:string_w.obj
 0001:0000e9f0       ?_M_range_initialize@?$basic_string@GV?$char_traits@G@_STL@@V?$allocator@G@2@@_STL@@AAEXPBG0@Z 0040f9f0 f i stlport_vc6_static:string_w.obj
 0001:0000ea80       ?assign@?$basic_string@GV?$char_traits@G@_STL@@V?$allocator@G@2@@_STL@@QAEAAV12@PAG0@Z 0040fa80 f i stlport_vc6_static:string_w.obj
 0001:0000eb10       ?append@?$basic_string@GV?$char_traits@G@_STL@@V?$allocator@G@2@@_STL@@QAEAAV12@PAG0@Z 0040fb10 f i stlport_vc6_static:string_w.obj
 0001:0000eb40       ?append@?$basic_string@GV?$char_traits@G@_STL@@V?$allocator@G@2@@_STL@@QAEAAV12@PBG0@Z 0040fb40 f i stlport_vc6_static:string_w.obj
 0001:0000eb70       ?insert@?$basic_string@GV?$char_traits@G@_STL@@V?$allocator@G@2@@_STL@@QAEXPAG00@Z 0040fb70 f i stlport_vc6_static:string_w.obj
 0001:0000eba0       ?insert@?$basic_string@GV?$char_traits@G@_STL@@V?$allocator@G@2@@_STL@@QAEXPAGPBG1@Z 0040fba0 f i stlport_vc6_static:string_w.obj
 0001:0000ebd0       ?replace@?$basic_string@GV?$char_traits@G@_STL@@V?$allocator@G@2@@_STL@@QAEAAV12@PAG000@Z 0040fbd0 f i stlport_vc6_static:string_w.obj
 0001:0000ec90       ?replace@?$basic_string@GV?$char_traits@G@_STL@@V?$allocator@G@2@@_STL@@QAEAAV12@PAG0PBG1@Z 0040fc90 f i stlport_vc6_static:string_w.obj
 0001:0000ed50       ?swap@_STL@@YAXAAV?$_STLP_alloc_proxy@PAGGV?$allocator@G@_STL@@@1@0@Z 0040fd50 f i stlport_vc6_static:string_w.obj
 0001:0000ed70       ??0?$basic_string@GV?$char_traits@G@_STL@@V?$allocator@G@2@@_STL@@QAE@PAG0@Z 0040fd70 f i stlport_vc6_static:string_w.obj
 0001:0000ee80       ?_M_allocate@?$__node_alloc@$00$0A@@_STL@@CAPAXI@Z 0040fe80 f i stlport_vc6_static:string_w.obj
 0001:0000f030       ?_M_deallocate@?$__node_alloc@$00$0A@@_STL@@CAXPAXI@Z 00410030 f i stlport_vc6_static:string_w.obj
 0001:0000f160       ??0?$reverse_iterator@PBGGABGPBGH@_STL@@QAE@ABV01@@Z 00410160 f i stlport_vc6_static:string_w.obj
 0001:0000f170       ??0?$_Node_Alloc_Lock@$00$0A@@_STL@@QAE@XZ 00410170 f i stlport_vc6_static:string_w.obj
 0001:0000f280       ??1?$_Node_Alloc_Lock@$00$0A@@_STL@@QAE@XZ 00410280 f i stlport_vc6_static:string_w.obj
 0001:0000f290       ?find_if@_STL@@YA?AV?$reverse_iterator@PBGGABGPBGH@1@V21@0U?$_Eq_char_bound@V?$char_traits@G@_STL@@@1@@Z 00410290 f i stlport_vc6_static:string_w.obj
 0001:0000f2d0       ?__find_first_of@_STL@@YA?AV?$reverse_iterator@PBGGABGPBGH@1@V21@0PBG1U?$_Eq_traits@V?$char_traits@G@_STL@@@1@@Z 004102d0 f i stlport_vc6_static:string_w.obj
 0001:0000f320       ?find_if@_STL@@YA?AV?$reverse_iterator@PBGGABGPBGH@1@V21@0U?$_Neq_char_bound@V?$char_traits@G@_STL@@@1@@Z 00410320 f i stlport_vc6_static:string_w.obj
 0001:0000f360       ?find_if@_STL@@YA?AV?$reverse_iterator@PBGGABGPBGH@1@V21@0U?$_Not_within_traits@V?$char_traits@G@_STL@@@1@@Z 00410360 f i stlport_vc6_static:string_w.obj
 0001:0000f3b0       ?iterator_category@_STL@@YA?AUrandom_access_iterator_tag@1@PBG@Z 004103b0 f i stlport_vc6_static:string_w.obj
 0001:0000f3c0       ?_M_range_initialize@?$basic_string@GV?$char_traits@G@_STL@@V?$allocator@G@2@@_STL@@AAEXPAG0ABUforward_iterator_tag@2@@Z 004103c0 f i stlport_vc6_static:string_w.obj
 0001:0000f450       ?_M_range_initialize@?$basic_string@GV?$char_traits@G@_STL@@V?$allocator@G@2@@_STL@@AAEXPBG0ABUforward_iterator_tag@2@@Z 00410450 f i stlport_vc6_static:string_w.obj
 0001:0000f4e0       ?_M_assign_dispatch@?$basic_string@GV?$char_traits@G@_STL@@V?$allocator@G@2@@_STL@@AAEAAV12@PAG0ABU__false_type@2@@Z 004104e0 f i stlport_vc6_static:string_w.obj
 0001:0000f570       ?_M_append_dispatch@?$basic_string@GV?$char_traits@G@_STL@@V?$allocator@G@2@@_STL@@AAEAAV12@PAG0ABU__false_type@2@@Z 00410570 f i stlport_vc6_static:string_w.obj
 0001:0000f5a0       ?_M_append_dispatch@?$basic_string@GV?$char_traits@G@_STL@@V?$allocator@G@2@@_STL@@AAEAAV12@PBG0ABU__false_type@2@@Z 004105a0 f i stlport_vc6_static:string_w.obj
 0001:0000f5d0       ?_M_insert_dispatch@?$basic_string@GV?$char_traits@G@_STL@@V?$allocator@G@2@@_STL@@AAEXPAG00ABU__false_type@2@@Z 004105d0 f i stlport_vc6_static:string_w.obj
 0001:0000f600       ?_M_insert_dispatch@?$basic_string@GV?$char_traits@G@_STL@@V?$allocator@G@2@@_STL@@AAEXPAGPBG1ABU__false_type@2@@Z 00410600 f i stlport_vc6_static:string_w.obj
 0001:0000f630       ?_M_replace_dispatch@?$basic_string@GV?$char_traits@G@_STL@@V?$allocator@G@2@@_STL@@AAEAAV12@PAG000ABU__false_type@2@@Z 00410630 f i stlport_vc6_static:string_w.obj
 0001:0000f6f0       ?_M_replace_dispatch@?$basic_string@GV?$char_traits@G@_STL@@V?$allocator@G@2@@_STL@@AAEAAV12@PAG0PBG1ABU__false_type@2@@Z 004106f0 f i stlport_vc6_static:string_w.obj
 0001:0000f7b0       ?_M_initialize_dispatch@?$basic_string@GV?$char_traits@G@_STL@@V?$allocator@G@2@@_STL@@AAEXPAG0ABU__false_type@2@@Z 004107b0 f i stlport_vc6_static:string_w.obj
 0001:0000f840       ?_S_refill@?$__node_alloc@$00$0A@@_STL@@CAPAXI@Z 00410840 f i stlport_vc6_static:string_w.obj
 0001:0000f9a0       ?__find_if@_STL@@YA?AV?$reverse_iterator@PBGGABGPBGH@1@V21@0U?$_Eq_char_bound@V?$char_traits@G@_STL@@@1@ABUrandom_access_iterator_tag@1@@Z 004109a0 f i stlport_vc6_static:string_w.obj
 0001:0000fa40       ?__find_if@_STL@@YA?AV?$reverse_iterator@PBGGABGPBGH@1@V21@0U?$_Neq_char_bound@V?$char_traits@G@_STL@@@1@ABUrandom_access_iterator_tag@1@@Z 00410a40 f i stlport_vc6_static:string_w.obj
 0001:0000fae0       ?__find_if@_STL@@YA?AV?$reverse_iterator@PBGGABGPBGH@1@V21@0U?$_Not_within_traits@V?$char_traits@G@_STL@@@1@ABUrandom_access_iterator_tag@1@@Z 00410ae0 f i stlport_vc6_static:string_w.obj
 0001:0000fcb0       ?append@?$basic_string@GV?$char_traits@G@_STL@@V?$allocator@G@2@@_STL@@AAEAAV12@PAG0ABUforward_iterator_tag@2@@Z 00410cb0 f i stlport_vc6_static:string_w.obj
 0001:0000fe70       ?append@?$basic_string@GV?$char_traits@G@_STL@@V?$allocator@G@2@@_STL@@AAEAAV12@PBG0ABUforward_iterator_tag@2@@Z 00410e70 f i stlport_vc6_static:string_w.obj
 0001:00010020       ?insert@?$basic_string@GV?$char_traits@G@_STL@@V?$allocator@G@2@@_STL@@AAEXPAG00ABUforward_iterator_tag@2@@Z 00411020 f i stlport_vc6_static:string_w.obj
 0001:000102e0       ?insert@?$basic_string@GV?$char_traits@G@_STL@@V?$allocator@G@2@@_STL@@AAEXPAGPBG1ABUforward_iterator_tag@2@@Z 004112e0 f i stlport_vc6_static:string_w.obj
 0001:000105a0       ?replace@?$basic_string@GV?$char_traits@G@_STL@@V?$allocator@G@2@@_STL@@AAEAAV12@PAG000ABUforward_iterator_tag@2@@Z 004115a0 f i stlport_vc6_static:string_w.obj
 0001:00010660       ?replace@?$basic_string@GV?$char_traits@G@_STL@@V?$allocator@G@2@@_STL@@AAEAAV12@PAG0PBG1ABUforward_iterator_tag@2@@Z 00411660 f i stlport_vc6_static:string_w.obj
 0001:00010720       ?_S_chunk_alloc@?$__node_alloc@$00$0A@@_STL@@CAPADIAAH@Z 00411720 f i stlport_vc6_static:string_w.obj
 0001:00010850       ?__copy_aux@_STL@@YAPAGPAG00ABU__true_type@1@@Z 00411850 f i stlport_vc6_static:string_w.obj
 0001:00010880       ?_M_copy@?$basic_string@GV?$char_traits@G@_STL@@V?$allocator@G@2@@_STL@@AAEXPAG00@Z 00411880 f i stlport_vc6_static:string_w.obj
 0001:000108b0       ?__copy_ptrs@_STL@@YAPAGPAG00ABU__false_type@1@@Z 004118b0 f i stlport_vc6_static:string_w.obj
 0001:000108e0       ?__find_if@_STL@@YAPAGPAG0U?$_Eq_char_bound@V?$char_traits@G@_STL@@@1@ABUrandom_access_iterator_tag@1@@Z 004118e0 f i stlport_vc6_static:string_w.obj
 0001:00010950       ?distance_type@_STL@@YAPAHPBG@Z 00411950 f i stlport_vc6_static:string_w.obj
 0001:00010960       ?__copy@_STL@@YAPAGPAG00ABUrandom_access_iterator_tag@1@PAH@Z 00411960 f i stlport_vc6_static:string_w.obj
 0001:00010990       ?__stl_throw_range_error@_STL@@YAXPBD@Z 00411990 f   stlport_vc6_static:dll_main.obj
 0001:00010b10       ??_Eruntime_error@_STL@@UAEPAXI@Z 00411b10 f i stlport_vc6_static:dll_main.obj
 0001:00010b10       ??_Gruntime_error@_STL@@UAEPAXI@Z 00411b10 f i stlport_vc6_static:dll_main.obj
 0001:00010b30       ??_Grange_error@_STL@@UAEPAXI@Z 00411b30 f i stlport_vc6_static:dll_main.obj
 0001:00010b30       ??_Erange_error@_STL@@UAEPAXI@Z 00411b30 f i stlport_vc6_static:dll_main.obj
 0001:00010b50       ??0range_error@_STL@@QAE@ABV01@@Z 00411b50 f i stlport_vc6_static:dll_main.obj
 0001:00010ba0       ??0runtime_error@_STL@@QAE@ABV01@@Z 00411ba0 f i stlport_vc6_static:dll_main.obj
 0001:00010bf0       ??0__Named_exception@_STL@@QAE@ABV01@@Z 00411bf0 f i stlport_vc6_static:dll_main.obj
 0001:00010c30       ??_E__Named_exception@_STL@@UAEPAXI@Z 00411c30 f i stlport_vc6_static:dll_main.obj
 0001:00010c30       ??_G__Named_exception@_STL@@UAEPAXI@Z 00411c30 f i stlport_vc6_static:dll_main.obj
 0001:00010c60       ?__stl_throw_out_of_range@_STL@@YAXPBD@Z 00411c60 f   stlport_vc6_static:dll_main.obj
 0001:00010de0       ??_Elogic_error@_STL@@UAEPAXI@Z 00411de0 f i stlport_vc6_static:dll_main.obj
 0001:00010de0       ??_Glogic_error@_STL@@UAEPAXI@Z 00411de0 f i stlport_vc6_static:dll_main.obj
 0001:00010e00       ??_Gout_of_range@_STL@@UAEPAXI@Z 00411e00 f i stlport_vc6_static:dll_main.obj
 0001:00010e00       ??_Eout_of_range@_STL@@UAEPAXI@Z 00411e00 f i stlport_vc6_static:dll_main.obj
 0001:00010e20       ??0out_of_range@_STL@@QAE@ABV01@@Z 00411e20 f i stlport_vc6_static:dll_main.obj
 0001:00010e70       ??0logic_error@_STL@@QAE@ABV01@@Z 00411e70 f i stlport_vc6_static:dll_main.obj
 0001:00010ec0       ?__stl_throw_length_error@_STL@@YAXPBD@Z 00411ec0 f   stlport_vc6_static:dll_main.obj
 0001:00011040       ??_Glength_error@_STL@@UAEPAXI@Z 00412040 f i stlport_vc6_static:dll_main.obj
 0001:00011040       ??_Elength_error@_STL@@UAEPAXI@Z 00412040 f i stlport_vc6_static:dll_main.obj
 0001:00011060       ??0length_error@_STL@@QAE@ABV01@@Z 00412060 f i stlport_vc6_static:dll_main.obj
 0001:000110b0       ?__stl_throw_invalid_argument@_STL@@YAXPBD@Z 004120b0 f   stlport_vc6_static:dll_main.obj
 0001:00011230       ??_Ginvalid_argument@_STL@@UAEPAXI@Z 00412230 f i stlport_vc6_static:dll_main.obj
 0001:00011230       ??_Einvalid_argument@_STL@@UAEPAXI@Z 00412230 f i stlport_vc6_static:dll_main.obj
 0001:00011250       ??0invalid_argument@_STL@@QAE@ABV01@@Z 00412250 f i stlport_vc6_static:dll_main.obj
 0001:000112a0       ?__stl_throw_overflow_error@_STL@@YAXPBD@Z 004122a0 f   stlport_vc6_static:dll_main.obj
 0001:00011420       ??_Goverflow_error@_STL@@UAEPAXI@Z 00412420 f i stlport_vc6_static:dll_main.obj
 0001:00011420       ??_Eoverflow_error@_STL@@UAEPAXI@Z 00412420 f i stlport_vc6_static:dll_main.obj
 0001:00011440       ??0overflow_error@_STL@@QAE@ABV01@@Z 00412440 f i stlport_vc6_static:dll_main.obj
 0001:00011490       ?__get_c_string@_STL@@YAPBDABV?$basic_string@DV?$char_traits@D@_STL@@V?$allocator@D@2@@1@@Z 00412490 f   stlport_vc6_static:dll_main.obj
 0001:000114b0       ??0__Named_exception@_STL@@QAE@ABV?$basic_string@DV?$char_traits@D@_STL@@V?$allocator@D@2@@1@@Z 004124b0 f   stlport_vc6_static:dll_main.obj
 0001:00011530       ?what@__Named_exception@_STL@@UBEPBDXZ 00412530 f   stlport_vc6_static:dll_main.obj
 0001:00011550       ??1__Named_exception@_STL@@UAE@XZ 00412550 f   stlport_vc6_static:dll_main.obj
 0001:00011570       ??1logic_error@_STL@@UAE@XZ 00412570 f   stlport_vc6_static:dll_main.obj
 0001:00011590       ??1runtime_error@_STL@@UAE@XZ 00412590 f   stlport_vc6_static:dll_main.obj
 0001:000115b0       ??1domain_error@_STL@@UAE@XZ 004125b0 f   stlport_vc6_static:dll_main.obj
 0001:000115d0       ??_Gdomain_error@_STL@@UAEPAXI@Z 004125d0 f i stlport_vc6_static:dll_main.obj
 0001:000115d0       ??_Edomain_error@_STL@@UAEPAXI@Z 004125d0 f i stlport_vc6_static:dll_main.obj
 0001:000115f0       ??1invalid_argument@_STL@@UAE@XZ 004125f0 f   stlport_vc6_static:dll_main.obj
 0001:00011610       ??1length_error@_STL@@UAE@XZ 00412610 f   stlport_vc6_static:dll_main.obj
 0001:00011630       ??1out_of_range@_STL@@UAE@XZ 00412630 f   stlport_vc6_static:dll_main.obj
 0001:00011650       ??1range_error@_STL@@UAE@XZ 00412650 f   stlport_vc6_static:dll_main.obj
 0001:00011670       ??1overflow_error@_STL@@UAE@XZ 00412670 f   stlport_vc6_static:dll_main.obj
 0001:00011690       ??1underflow_error@_STL@@UAE@XZ 00412690 f   stlport_vc6_static:dll_main.obj
 0001:000116b0       ??_Gunderflow_error@_STL@@UAEPAXI@Z 004126b0 f i stlport_vc6_static:dll_main.obj
 0001:000116b0       ??_Eunderflow_error@_STL@@UAEPAXI@Z 004126b0 f i stlport_vc6_static:dll_main.obj
 0001:000116d0       ??0?$basic_string@DV?$char_traits@D@_STL@@V?$allocator@D@2@@_STL@@QAE@ABV?$allocator@D@1@@Z 004126d0 f i stlport_vc6_static:dll_main.obj
 0001:00011850       ??0?$basic_string@DV?$char_traits@D@_STL@@V?$allocator@D@2@@_STL@@QAE@U_String_reserve_t@1@IABV?$allocator@D@1@@Z 00412850 f i stlport_vc6_static:dll_main.obj
 0001:000119d0       ??0?$basic_string@DV?$char_traits@D@_STL@@V?$allocator@D@2@@_STL@@QAE@ABV01@IIABV?$allocator@D@1@@Z 004129d0 f i stlport_vc6_static:dll_main.obj
 0001:00011cc0       ??0?$basic_string@DV?$char_traits@D@_STL@@V?$allocator@D@2@@_STL@@QAE@PBDIABV?$allocator@D@1@@Z 00412cc0 f i stlport_vc6_static:dll_main.obj
 0001:00011ea0       ??0?$basic_string@DV?$char_traits@D@_STL@@V?$allocator@D@2@@_STL@@QAE@IDABV?$allocator@D@1@@Z 00412ea0 f i stlport_vc6_static:dll_main.obj
 0001:00011ff0       ??4?$basic_string@DV?$char_traits@D@_STL@@V?$allocator@D@2@@_STL@@QAEAAV01@ABV01@@Z 00412ff0 f i stlport_vc6_static:dll_main.obj
 0001:000120f0       ??4?$basic_string@DV?$char_traits@D@_STL@@V?$allocator@D@2@@_STL@@QAEAAV01@PBD@Z 004130f0 f i stlport_vc6_static:dll_main.obj
 0001:00012250       ??4?$basic_string@DV?$char_traits@D@_STL@@V?$allocator@D@2@@_STL@@QAEAAV01@D@Z 00413250 f i stlport_vc6_static:dll_main.obj
 0001:00012380       ?_M_null@?$basic_string@DV?$char_traits@D@_STL@@V?$allocator@D@2@@_STL@@SADXZ 00413380 f i stlport_vc6_static:dll_main.obj
 0001:00012390       ?_M_construct_null_aux@?$basic_string@DV?$char_traits@D@_STL@@V?$allocator@D@2@@_STL@@AAEXPADABU__false_type@2@@Z 00413390 f i stlport_vc6_static:dll_main.obj
 0001:000123b0       ?_M_construct_null_aux@?$basic_string@DV?$char_traits@D@_STL@@V?$allocator@D@2@@_STL@@AAEXPADABU__true_type@2@@Z 004133b0 f i stlport_vc6_static:dll_main.obj
 0001:000123d0       ?_M_construct_null@?$basic_string@DV?$char_traits@D@_STL@@V?$allocator@D@2@@_STL@@AAEXPAD@Z 004133d0 f i stlport_vc6_static:dll_main.obj
 0001:000123f0       ?_M_terminate_string_aux@?$basic_string@DV?$char_traits@D@_STL@@V?$allocator@D@2@@_STL@@AAEXABU__false_type@2@@Z 004133f0 f i stlport_vc6_static:dll_main.obj
 0001:00012450       ?_M_terminate_string_aux@?$basic_string@DV?$char_traits@D@_STL@@V?$allocator@D@2@@_STL@@AAEXABU__true_type@2@@Z 00413450 f i stlport_vc6_static:dll_main.obj
 0001:00012470       ?_M_terminate_string@?$basic_string@DV?$char_traits@D@_STL@@V?$allocator@D@2@@_STL@@AAEXXZ 00413470 f i stlport_vc6_static:dll_main.obj
 0001:00012490       ?begin@?$basic_string@DV?$char_traits@D@_STL@@V?$allocator@D@2@@_STL@@QAEPADXZ 00413490 f i stlport_vc6_static:dll_main.obj
 0001:000124a0       ?end@?$basic_string@DV?$char_traits@D@_STL@@V?$allocator@D@2@@_STL@@QAEPADXZ 004134a0 f i stlport_vc6_static:dll_main.obj
 0001:000124c0       ?begin@?$basic_string@DV?$char_traits@D@_STL@@V?$allocator@D@2@@_STL@@QBEPBDXZ 004134c0 f i stlport_vc6_static:dll_main.obj
 0001:000124d0       ?end@?$basic_string@DV?$char_traits@D@_STL@@V?$allocator@D@2@@_STL@@QBEPBDXZ 004134d0 f i stlport_vc6_static:dll_main.obj
 0001:000124f0       ?rbegin@?$basic_string@DV?$char_traits@D@_STL@@V?$allocator@D@2@@_STL@@QAE?AV?$reverse_iterator@PADDAADPADH@2@XZ 004134f0 f i stlport_vc6_static:dll_main.obj
 0001:00012520       ?rend@?$basic_string@DV?$char_traits@D@_STL@@V?$allocator@D@2@@_STL@@QAE?AV?$reverse_iterator@PADDAADPADH@2@XZ 00413520 f i stlport_vc6_static:dll_main.obj
 0001:00012550       ?rbegin@?$basic_string@DV?$char_traits@D@_STL@@V?$allocator@D@2@@_STL@@QBE?AV?$reverse_iterator@PBDDABDPBDH@2@XZ 00413550 f i stlport_vc6_static:dll_main.obj
 0001:00012580       ?rend@?$basic_string@DV?$char_traits@D@_STL@@V?$allocator@D@2@@_STL@@QBE?AV?$reverse_iterator@PBDDABDPBDH@2@XZ 00413580 f i stlport_vc6_static:dll_main.obj
 0001:000125b0       ?size@?$basic_string@DV?$char_traits@D@_STL@@V?$allocator@D@2@@_STL@@QBEIXZ 004135b0 f i stlport_vc6_static:dll_main.obj
 0001:000125d0       ?length@?$basic_string@DV?$char_traits@D@_STL@@V?$allocator@D@2@@_STL@@QBEIXZ 004135d0 f i stlport_vc6_static:dll_main.obj
 0001:000125f0       ?max_size@?$basic_string@DV?$char_traits@D@_STL@@V?$allocator@D@2@@_STL@@QBEIXZ 004135f0 f i stlport_vc6_static:dll_main.obj
 0001:00012600       ?resize@?$basic_string@DV?$char_traits@D@_STL@@V?$allocator@D@2@@_STL@@QAEXID@Z 00413600 f i stlport_vc6_static:dll_main.obj
 0001:000126b0       ?resize@?$basic_string@DV?$char_traits@D@_STL@@V?$allocator@D@2@@_STL@@QAEXI@Z 004136b0 f i stlport_vc6_static:dll_main.obj
 0001:00012760       ?capacity@?$basic_string@DV?$char_traits@D@_STL@@V?$allocator@D@2@@_STL@@QBEIXZ 00413760 f i stlport_vc6_static:dll_main.obj
 0001:00012780       ?clear@?$basic_string@DV?$char_traits@D@_STL@@V?$allocator@D@2@@_STL@@QAEXXZ 00413780 f i stlport_vc6_static:dll_main.obj
 0001:000127d0       ?empty@?$basic_string@DV?$char_traits@D@_STL@@V?$allocator@D@2@@_STL@@QBE_NXZ 004137d0 f i stlport_vc6_static:dll_main.obj
 0001:000127f0       ??A?$basic_string@DV?$char_traits@D@_STL@@V?$allocator@D@2@@_STL@@QBEABDI@Z 004137f0 f i stlport_vc6_static:dll_main.obj
 0001:00012810       ??A?$basic_string@DV?$char_traits@D@_STL@@V?$allocator@D@2@@_STL@@QAEAADI@Z 00413810 f i stlport_vc6_static:dll_main.obj
 0001:00012830       ?at@?$basic_string@DV?$char_traits@D@_STL@@V?$allocator@D@2@@_STL@@QBEABDI@Z 00413830 f i stlport_vc6_static:dll_main.obj
 0001:00012870       ?at@?$basic_string@DV?$char_traits@D@_STL@@V?$allocator@D@2@@_STL@@QAEAADI@Z 00413870 f i stlport_vc6_static:dll_main.obj
 0001:000128b0       ??Y?$basic_string@DV?$char_traits@D@_STL@@V?$allocator@D@2@@_STL@@QAEAAV01@ABV01@@Z 004138b0 f i stlport_vc6_static:dll_main.obj
 0001:000128f0       ??Y?$basic_string@DV?$char_traits@D@_STL@@V?$allocator@D@2@@_STL@@QAEAAV01@PBD@Z 004138f0 f i stlport_vc6_static:dll_main.obj
 0001:00012940       ??Y?$basic_string@DV?$char_traits@D@_STL@@V?$allocator@D@2@@_STL@@QAEAAV01@D@Z 00413940 f i stlport_vc6_static:dll_main.obj
 0001:000129f0       ?append@?$basic_string@DV?$char_traits@D@_STL@@V?$allocator@D@2@@_STL@@QAEAAV12@ABV12@@Z 004139f0 f i stlport_vc6_static:dll_main.obj
 0001:00012a30       ?append@?$basic_string@DV?$char_traits@D@_STL@@V?$allocator@D@2@@_STL@@QAEAAV12@ABV12@II@Z 00413a30 f i stlport_vc6_static:dll_main.obj
 0001:00012ac0       ?append@?$basic_string@DV?$char_traits@D@_STL@@V?$allocator@D@2@@_STL@@QAEAAV12@PBDI@Z 00413ac0 f i stlport_vc6_static:dll_main.obj
 0001:00012af0       ?pop_back@?$basic_string@DV?$char_traits@D@_STL@@V?$allocator@D@2@@_STL@@QAEXXZ 00413af0 f i stlport_vc6_static:dll_main.obj
 0001:00012b30       ?assign@?$basic_string@DV?$char_traits@D@_STL@@V?$allocator@D@2@@_STL@@QAEAAV12@ABV12@@Z 00413b30 f i stlport_vc6_static:dll_main.obj
 0001:00012c20       ?assign@?$basic_string@DV?$char_traits@D@_STL@@V?$allocator@D@2@@_STL@@QAEAAV12@ABV12@II@Z 00413c20 f i stlport_vc6_static:dll_main.obj
 0001:00012d60       ?assign@?$basic_string@DV?$char_traits@D@_STL@@V?$allocator@D@2@@_STL@@QAEAAV12@PBDI@Z 00413d60 f i stlport_vc6_static:dll_main.obj
 0001:00012eb0       ?assign@?$basic_string@DV?$char_traits@D@_STL@@V?$allocator@D@2@@_STL@@QAEAAV12@PBD@Z 00413eb0 f i stlport_vc6_static:dll_main.obj
 0001:00013010       ?insert@?$basic_string@DV?$char_traits@D@_STL@@V?$allocator@D@2@@_STL@@QAEAAV12@IABV12@@Z 00414010 f i stlport_vc6_static:dll_main.obj
 0001:000130b0       ?insert@?$basic_string@DV?$char_traits@D@_STL@@V?$allocator@D@2@@_STL@@QAEAAV12@IABV12@II@Z 004140b0 f i stlport_vc6_static:dll_main.obj
 0001:00013190       ?insert@?$basic_string@DV?$char_traits@D@_STL@@V?$allocator@D@2@@_STL@@QAEAAV12@IPBDI@Z 00414190 f i stlport_vc6_static:dll_main.obj
 0001:00013210       ?insert@?$basic_string@DV?$char_traits@D@_STL@@V?$allocator@D@2@@_STL@@QAEAAV12@IPBD@Z 00414210 f i stlport_vc6_static:dll_main.obj
 0001:000132b0       ?insert@?$basic_string@DV?$char_traits@D@_STL@@V?$allocator@D@2@@_STL@@QAEAAV12@IID@Z 004142b0 f i stlport_vc6_static:dll_main.obj
 0001:00013330       ?insert@?$basic_string@DV?$char_traits@D@_STL@@V?$allocator@D@2@@_STL@@QAEPADPADD@Z 00414330 f i stlport_vc6_static:dll_main.obj
 0001:00013410       ?_M_copy@?$basic_string@DV?$char_traits@D@_STL@@V?$allocator@D@2@@_STL@@AAEXPBD0PAD@Z 00414410 f i stlport_vc6_static:dll_main.obj
 0001:00013460       ?erase@?$basic_string@DV?$char_traits@D@_STL@@V?$allocator@D@2@@_STL@@QAEAAV12@II@Z 00414460 f i stlport_vc6_static:dll_main.obj
 0001:00013540       ?erase@?$basic_string@DV?$char_traits@D@_STL@@V?$allocator@D@2@@_STL@@QAEPADPAD@Z 00414540 f i stlport_vc6_static:dll_main.obj
 0001:000135a0       ?replace@?$basic_string@DV?$char_traits@D@_STL@@V?$allocator@D@2@@_STL@@QAEAAV12@IIABV12@@Z 004145a0 f i stlport_vc6_static:dll_main.obj
 0001:00013820       ?replace@?$basic_string@DV?$char_traits@D@_STL@@V?$allocator@D@2@@_STL@@QAEAAV12@IIABV12@II@Z 00414820 f i stlport_vc6_static:dll_main.obj
 0001:00013b10       ?replace@?$basic_string@DV?$char_traits@D@_STL@@V?$allocator@D@2@@_STL@@QAEAAV12@IIPBDI@Z 00414b10 f i stlport_vc6_static:dll_main.obj
 0001:00013d90       ?replace@?$basic_string@DV?$char_traits@D@_STL@@V?$allocator@D@2@@_STL@@QAEAAV12@IIPBD@Z 00414d90 f i stlport_vc6_static:dll_main.obj
 0001:00014050       ?replace@?$basic_string@DV?$char_traits@D@_STL@@V?$allocator@D@2@@_STL@@QAEAAV12@IIID@Z 00415050 f i stlport_vc6_static:dll_main.obj
 0001:000141e0       ?replace@?$basic_string@DV?$char_traits@D@_STL@@V?$allocator@D@2@@_STL@@QAEAAV12@PAD0ABV12@@Z 004151e0 f i stlport_vc6_static:dll_main.obj
 0001:00014350       ?replace@?$basic_string@DV?$char_traits@D@_STL@@V?$allocator@D@2@@_STL@@QAEAAV12@PAD0PBDI@Z 00415350 f i stlport_vc6_static:dll_main.obj
 0001:000144c0       ?replace@?$basic_string@DV?$char_traits@D@_STL@@V?$allocator@D@2@@_STL@@QAEAAV12@PAD0PBD@Z 004154c0 f i stlport_vc6_static:dll_main.obj
 0001:00014650       ?copy@?$basic_string@DV?$char_traits@D@_STL@@V?$allocator@D@2@@_STL@@QBEIPADII@Z 00415650 f i stlport_vc6_static:dll_main.obj
 0001:000146f0       ?swap@?$basic_string@DV?$char_traits@D@_STL@@V?$allocator@D@2@@_STL@@QAEXAAV12@@Z 004156f0 f i stlport_vc6_static:dll_main.obj
 0001:00014760       ?data@?$basic_string@DV?$char_traits@D@_STL@@V?$allocator@D@2@@_STL@@QBEPBDXZ 00415760 f i stlport_vc6_static:dll_main.obj
 0001:00014770       ?find@?$basic_string@DV?$char_traits@D@_STL@@V?$allocator@D@2@@_STL@@QBEIABV12@I@Z 00415770 f i stlport_vc6_static:dll_main.obj
 0001:00014990       ?find@?$basic_string@DV?$char_traits@D@_STL@@V?$allocator@D@2@@_STL@@QBEIPBDI@Z 00415990 f i stlport_vc6_static:dll_main.obj
 0001:00014bb0       ?rfind@?$basic_string@DV?$char_traits@D@_STL@@V?$allocator@D@2@@_STL@@QBEIABV12@I@Z 00415bb0 f i stlport_vc6_static:dll_main.obj
 0001:00014e90       ?rfind@?$basic_string@DV?$char_traits@D@_STL@@V?$allocator@D@2@@_STL@@QBEIPBDI@Z 00415e90 f i stlport_vc6_static:dll_main.obj
 0001:00015170       ?find_first_of@?$basic_string@DV?$char_traits@D@_STL@@V?$allocator@D@2@@_STL@@QBEIABV12@I@Z 00416170 f i stlport_vc6_static:dll_main.obj
 0001:00015270       ?find_first_of@?$basic_string@DV?$char_traits@D@_STL@@V?$allocator@D@2@@_STL@@QBEIPBDI@Z 00416270 f i stlport_vc6_static:dll_main.obj
 0001:00015370       ?find_first_of@?$basic_string@DV?$char_traits@D@_STL@@V?$allocator@D@2@@_STL@@QBEIDI@Z 00416370 f i stlport_vc6_static:dll_main.obj
 0001:00015580       ?find_last_of@?$basic_string@DV?$char_traits@D@_STL@@V?$allocator@D@2@@_STL@@QBEIABV12@I@Z 00416580 f i stlport_vc6_static:dll_main.obj
 0001:00015690       ?find_last_of@?$basic_string@DV?$char_traits@D@_STL@@V?$allocator@D@2@@_STL@@QBEIPBDI@Z 00416690 f i stlport_vc6_static:dll_main.obj
 0001:000157a0       ?find_last_of@?$basic_string@DV?$char_traits@D@_STL@@V?$allocator@D@2@@_STL@@QBEIDI@Z 004167a0 f i stlport_vc6_static:dll_main.obj
 0001:000158a0       ?find_first_not_of@?$basic_string@DV?$char_traits@D@_STL@@V?$allocator@D@2@@_STL@@QBEIABV12@I@Z 004168a0 f i stlport_vc6_static:dll_main.obj
 0001:00016050       ?find_first_not_of@?$basic_string@DV?$char_traits@D@_STL@@V?$allocator@D@2@@_STL@@QBEIPBDI@Z 00417050 f i stlport_vc6_static:dll_main.obj
 0001:000167f0       ?find_last_not_of@?$basic_string@DV?$char_traits@D@_STL@@V?$allocator@D@2@@_STL@@QBEIABV12@I@Z 004177f0 f i stlport_vc6_static:dll_main.obj
 0001:00016910       ?find_last_not_of@?$basic_string@DV?$char_traits@D@_STL@@V?$allocator@D@2@@_STL@@QBEIPBDI@Z 00417910 f i stlport_vc6_static:dll_main.obj
 0001:00016a30       ?substr@?$basic_string@DV?$char_traits@D@_STL@@V?$allocator@D@2@@_STL@@QBE?AV12@II@Z 00417a30 f i stlport_vc6_static:dll_main.obj
 0001:00016c80       ?compare@?$basic_string@DV?$char_traits@D@_STL@@V?$allocator@D@2@@_STL@@QBEHABV12@@Z 00417c80 f i stlport_vc6_static:dll_main.obj
 0001:00016d50       ?compare@?$basic_string@DV?$char_traits@D@_STL@@V?$allocator@D@2@@_STL@@QBEHIIABV12@@Z 00417d50 f i stlport_vc6_static:dll_main.obj
 0001:00016e70       ?compare@?$basic_string@DV?$char_traits@D@_STL@@V?$allocator@D@2@@_STL@@QBEHIIABV12@II@Z 00417e70 f i stlport_vc6_static:dll_main.obj
 0001:00016fe0       ?compare@?$basic_string@DV?$char_traits@D@_STL@@V?$allocator@D@2@@_STL@@QBEHPBD@Z 00417fe0 f i stlport_vc6_static:dll_main.obj
 0001:000170b0       ?compare@?$basic_string@DV?$char_traits@D@_STL@@V?$allocator@D@2@@_STL@@QBEHIIPBD@Z 004180b0 f i stlport_vc6_static:dll_main.obj
 0001:000171e0       ?compare@?$basic_string@DV?$char_traits@D@_STL@@V?$allocator@D@2@@_STL@@QBEHIIPBDI@Z 004181e0 f i stlport_vc6_static:dll_main.obj
 0001:000172f0       ?_M_compare@?$basic_string@DV?$char_traits@D@_STL@@V?$allocator@D@2@@_STL@@SAHPBD000@Z 004182f0 f i stlport_vc6_static:dll_main.obj
 0001:00017390       ?max_size@?$_String_base@DV?$allocator@D@_STL@@@_STL@@QBEIXZ 00418390 f i stlport_vc6_static:dll_main.obj
 0001:000173a0       ??0?$_String_base@DV?$allocator@D@_STL@@@_STL@@QAE@ABV?$allocator@D@1@I@Z 004183a0 f i stlport_vc6_static:dll_main.obj
 0001:000175b0       ?allocate@?$_STLP_alloc_proxy@PADDV?$allocator@D@_STL@@@_STL@@QAEPADI@Z 004185b0 f i stlport_vc6_static:dll_main.obj
 0001:00017600       ??0?$allocator@D@_STL@@QAE@XZ 00418600 f i stlport_vc6_static:dll_main.obj
 0001:00017610       ??0?$allocator@D@_STL@@QAE@ABV01@@Z 00418610 f i stlport_vc6_static:dll_main.obj
 0001:00017620       ?address@?$allocator@D@_STL@@QAEPADAAD@Z 00418620 f i stlport_vc6_static:dll_main.obj
 0001:00017630       ?address@?$allocator@D@_STL@@QBEPBDABD@Z 00418630 f i stlport_vc6_static:dll_main.obj
 0001:00017640       ?allocate@?$allocator@D@_STL@@QBEPADIPBX@Z 00418640 f i stlport_vc6_static:dll_main.obj
 0001:00017690       ?deallocate@?$allocator@D@_STL@@QBEXPAD@Z 00418690 f i stlport_vc6_static:dll_main.obj
 0001:000176d0       ?max_size@?$allocator@D@_STL@@QBEIXZ 004186d0 f i stlport_vc6_static:dll_main.obj
 0001:000176e0       ?construct@?$allocator@D@_STL@@QBEXPADABD@Z 004186e0 f i stlport_vc6_static:dll_main.obj
 0001:00017720       ?destroy@?$allocator@D@_STL@@QBEXPAD@Z 00418720 f i stlport_vc6_static:dll_main.obj
 0001:00017730       ?_S_round_up@?$__node_alloc@$0A@$0A@@_STL@@SAII@Z 00418730 f i stlport_vc6_static:dll_main.obj
 0001:00017740       ?allocate@?$__node_alloc@$0A@$0A@@_STL@@SAPAXI@Z 00418740 f i stlport_vc6_static:dll_main.obj
 0001:00017780       ?deallocate@?$__node_alloc@$0A@$0A@@_STL@@SAXPAXI@Z 00418780 f i stlport_vc6_static:dll_main.obj
 0001:000177b0       ?_S_round_up@?$__node_alloc@$00$0A@@_STL@@SAII@Z 004187b0 f i stlport_vc6_static:dll_main.obj
 0001:000177c0       ?allocate@?$__node_alloc@$00$0A@@_STL@@SAPAXI@Z 004187c0 f i stlport_vc6_static:dll_main.obj
 0001:00017800       ?__extra_before_chunk@?$__debug_alloc@V?$__node_alloc@$00$0A@@_STL@@@_STL@@CAIXZ 00418800 f i stlport_vc6_static:dll_main.obj
 0001:00017810       ?__extra_after_chunk@?$__debug_alloc@V?$__node_alloc@$00$0A@@_STL@@@_STL@@CAIXZ 00418810 f i stlport_vc6_static:dll_main.obj
 0001:00017820       ??0?$__debug_alloc@V?$__node_alloc@$00$0A@@_STL@@@_STL@@QAE@XZ 00418820 f i stlport_vc6_static:dll_main.obj
 0001:00017830       ??1?$__debug_alloc@V?$__node_alloc@$00$0A@@_STL@@@_STL@@QAE@XZ 00418830 f i stlport_vc6_static:dll_main.obj
 0001:00017840       ?__extra_before_chunk@?$__debug_alloc@V?$__node_alloc@$0A@$0A@@_STL@@@_STL@@CAIXZ 00418840 f i stlport_vc6_static:dll_main.obj
 0001:00017850       ?__extra_after_chunk@?$__debug_alloc@V?$__node_alloc@$0A@$0A@@_STL@@@_STL@@CAIXZ 00418850 f i stlport_vc6_static:dll_main.obj
 0001:00017860       ??0?$__debug_alloc@V?$__node_alloc@$0A@$0A@@_STL@@@_STL@@QAE@XZ 00418860 f i stlport_vc6_static:dll_main.obj
 0001:00017870       ??1?$__debug_alloc@V?$__node_alloc@$0A@$0A@@_STL@@@_STL@@QAE@XZ 00418870 f i stlport_vc6_static:dll_main.obj
 0001:00017880       ?__extra_before_chunk@?$__debug_alloc@V__new_alloc@_STL@@@_STL@@CAIXZ 00418880 f i stlport_vc6_static:dll_main.obj
 0001:00017890       ?__extra_after_chunk@?$__debug_alloc@V__new_alloc@_STL@@@_STL@@CAIXZ 00418890 f i stlport_vc6_static:dll_main.obj
 0001:000178a0       ??0?$__debug_alloc@V__new_alloc@_STL@@@_STL@@QAE@XZ 004188a0 f i stlport_vc6_static:dll_main.obj
 0001:000178b0       ??1?$__debug_alloc@V__new_alloc@_STL@@@_STL@@QAE@XZ 004188b0 f i stlport_vc6_static:dll_main.obj
 0001:000178c0       ?allocate@?$__malloc_alloc@$0A@@_STL@@SAPAXI@Z 004188c0 f i stlport_vc6_static:dll_main.obj
 0001:00017930       ??0bad_alloc@std@@QAE@PBD@Z 00418930 f i stlport_vc6_static:dll_main.obj
 0001:00017950       ??1bad_alloc@std@@UAE@XZ   00418950 f i stlport_vc6_static:dll_main.obj
 0001:00017960       ?_Doraise@bad_alloc@std@@MBEXXZ 00418960 f i stlport_vc6_static:dll_main.obj
 0001:00017980       ??_Gbad_alloc@std@@UAEPAXI@Z 00418980 f i stlport_vc6_static:dll_main.obj
 0001:00017980       ??_Ebad_alloc@std@@UAEPAXI@Z 00418980 f i stlport_vc6_static:dll_main.obj
 0001:000179a0       ??0bad_alloc@std@@QAE@ABV01@@Z 004189a0 f i stlport_vc6_static:dll_main.obj
 0001:000179c0       ?deallocate@?$__malloc_alloc@$0A@@_STL@@SAXPAXI@Z 004189c0 f i stlport_vc6_static:dll_main.obj
 0001:000179e0       ?set_malloc_handler@?$__malloc_alloc@$0A@@_STL@@SAP6AXXZP6AXXZ@Z 004189e0 f i stlport_vc6_static:dll_main.obj
 0001:00017a00       ??0?$allocator@PAX@_STL@@QAE@XZ 00418a00 f i stlport_vc6_static:dll_main.obj
 0001:00017a10       ??0?$allocator@PAX@_STL@@QAE@ABV01@@Z 00418a10 f i stlport_vc6_static:dll_main.obj
 0001:00017a20       ??1?$allocator@PAX@_STL@@QAE@XZ 00418a20 f i stlport_vc6_static:dll_main.obj
 0001:00017a30       ?address@?$allocator@PAX@_STL@@QAEPAPAXAAPAX@Z 00418a30 f i stlport_vc6_static:dll_main.obj
 0001:00017a40       ?address@?$allocator@PAX@_STL@@QBEPBQAXABQAX@Z 00418a40 f i stlport_vc6_static:dll_main.obj
 0001:00017a50       ?allocate@?$allocator@PAX@_STL@@QBEPAPAXIPBX@Z 00418a50 f i stlport_vc6_static:dll_main.obj
 0001:00017ab0       ?deallocate@?$allocator@PAX@_STL@@QBEXPAPAXI@Z 00418ab0 f i stlport_vc6_static:dll_main.obj
 0001:00017b00       ?deallocate@?$allocator@PAX@_STL@@QBEXPAPAX@Z 00418b00 f i stlport_vc6_static:dll_main.obj
 0001:00017b40       ?max_size@?$allocator@PAX@_STL@@QBEIXZ 00418b40 f i stlport_vc6_static:dll_main.obj
 0001:00017b50       ?construct@?$allocator@PAX@_STL@@QBEXPAPAXABQAX@Z 00418b50 f i stlport_vc6_static:dll_main.obj
 0001:00017b90       ?destroy@?$allocator@PAX@_STL@@QBEXPAPAX@Z 00418b90 f i stlport_vc6_static:dll_main.obj
 0001:00017ba0       ??0?$_STLP_alloc_proxy@PAPAXPAXV?$allocator@PAX@_STL@@@_STL@@QAE@ABV?$allocator@PAX@1@PAPAX@Z 00418ba0 f i stlport_vc6_static:dll_main.obj
 0001:00017bc0       ?allocate@?$_STLP_alloc_proxy@PAPAXPAXV?$allocator@PAX@_STL@@@_STL@@QAEPAPAXI@Z 00418bc0 f i stlport_vc6_static:dll_main.obj
 0001:00017c20       ?deallocate@?$_STLP_alloc_proxy@PAPAXPAXV?$allocator@PAX@_STL@@@_STL@@QAEXPAPAXI@Z 00418c20 f i stlport_vc6_static:dll_main.obj
 0001:00017c70       ??0?$_Vector_base@PAXV?$allocator@PAX@_STL@@@_STL@@QAE@ABV?$allocator@PAX@1@@Z 00418c70 f i stlport_vc6_static:dll_main.obj
 0001:00017cb0       ??0?$_Vector_base@PAXV?$allocator@PAX@_STL@@@_STL@@QAE@IABV?$allocator@PAX@1@@Z 00418cb0 f i stlport_vc6_static:dll_main.obj
 0001:00017fb0       ??1?$_Vector_base@PAXV?$allocator@PAX@_STL@@@_STL@@QAE@XZ 00418fb0 f i stlport_vc6_static:dll_main.obj
 0001:00018090       ?get_allocator@?$vector@PAXV?$allocator@PAX@_STL@@@_STL@@QBE?AV?$allocator@PAX@2@XZ 00419090 f i stlport_vc6_static:dll_main.obj
 0001:000180c0       ?_M_insert_overflow@?$vector@PAXV?$allocator@PAX@_STL@@@_STL@@IAEXPAPAXABQAXABU__false_type@2@I_N@Z 004190c0 f i stlport_vc6_static:dll_main.obj
 0001:00018430       ?_M_insert_overflow@?$vector@PAXV?$allocator@PAX@_STL@@@_STL@@IAEXPAPAXABQAXABU__true_type@2@I_N@Z 00419430 f i stlport_vc6_static:dll_main.obj
 0001:00018600       ?_M_range_check@?$vector@PAXV?$allocator@PAX@_STL@@@_STL@@IBEXI@Z 00419600 f i stlport_vc6_static:dll_main.obj
 0001:00018630       ?begin@?$vector@PAXV?$allocator@PAX@_STL@@@_STL@@QAEPAPAXXZ 00419630 f i stlport_vc6_static:dll_main.obj
 0001:00018640       ?begin@?$vector@PAXV?$allocator@PAX@_STL@@@_STL@@QBEPBQAXXZ 00419640 f i stlport_vc6_static:dll_main.obj
 0001:00018650       ?end@?$vector@PAXV?$allocator@PAX@_STL@@@_STL@@QAEPAPAXXZ 00419650 f i stlport_vc6_static:dll_main.obj
 0001:00018670       ?end@?$vector@PAXV?$allocator@PAX@_STL@@@_STL@@QBEPBQAXXZ 00419670 f i stlport_vc6_static:dll_main.obj
 0001:00018690       ?rbegin@?$vector@PAXV?$allocator@PAX@_STL@@@_STL@@QAE?AV?$reverse_iterator@PAPAXPAXAAPAXPAPAXH@2@XZ 00419690 f i stlport_vc6_static:dll_main.obj
 0001:000186c0       ?rbegin@?$vector@PAXV?$allocator@PAX@_STL@@@_STL@@QBE?AV?$reverse_iterator@PBQAXPAXABQAXPBQAXH@2@XZ 004196c0 f i stlport_vc6_static:dll_main.obj
 0001:000186f0       ?rend@?$vector@PAXV?$allocator@PAX@_STL@@@_STL@@QAE?AV?$reverse_iterator@PAPAXPAXAAPAXPAPAXH@2@XZ 004196f0 f i stlport_vc6_static:dll_main.obj
 0001:00018720       ?rend@?$vector@PAXV?$allocator@PAX@_STL@@@_STL@@QBE?AV?$reverse_iterator@PBQAXPAXABQAXPBQAXH@2@XZ 00419720 f i stlport_vc6_static:dll_main.obj
 0001:00018750       ?size@?$vector@PAXV?$allocator@PAX@_STL@@@_STL@@QBEIXZ 00419750 f i stlport_vc6_static:dll_main.obj
 0001:00018770       ?max_size@?$vector@PAXV?$allocator@PAX@_STL@@@_STL@@QBEIXZ 00419770 f i stlport_vc6_static:dll_main.obj
 0001:00018780       ?capacity@?$vector@PAXV?$allocator@PAX@_STL@@@_STL@@QBEIXZ 00419780 f i stlport_vc6_static:dll_main.obj
 0001:000187a0       ?empty@?$vector@PAXV?$allocator@PAX@_STL@@@_STL@@QBE_NXZ 004197a0 f i stlport_vc6_static:dll_main.obj
 0001:000187c0       ??A?$vector@PAXV?$allocator@PAX@_STL@@@_STL@@QAEAAPAXI@Z 004197c0 f i stlport_vc6_static:dll_main.obj
 0001:000187e0       ??A?$vector@PAXV?$allocator@PAX@_STL@@@_STL@@QBEABQAXI@Z 004197e0 f i stlport_vc6_static:dll_main.obj
 0001:00018800       ?front@?$vector@PAXV?$allocator@PAX@_STL@@@_STL@@QAEAAPAXXZ 00419800 f i stlport_vc6_static:dll_main.obj
 0001:00018820       ?front@?$vector@PAXV?$allocator@PAX@_STL@@@_STL@@QBEABQAXXZ 00419820 f i stlport_vc6_static:dll_main.obj
 0001:00018840       ?back@?$vector@PAXV?$allocator@PAX@_STL@@@_STL@@QAEAAPAXXZ 00419840 f i stlport_vc6_static:dll_main.obj
 0001:00018860       ?back@?$vector@PAXV?$allocator@PAX@_STL@@@_STL@@QBEABQAXXZ 00419860 f i stlport_vc6_static:dll_main.obj
 0001:00018880       ?at@?$vector@PAXV?$allocator@PAX@_STL@@@_STL@@QAEAAPAXI@Z 00419880 f i stlport_vc6_static:dll_main.obj
 0001:000188c0       ?at@?$vector@PAXV?$allocator@PAX@_STL@@@_STL@@QBEABQAXI@Z 004198c0 f i stlport_vc6_static:dll_main.obj
 0001:00018900       ??0?$vector@PAXV?$allocator@PAX@_STL@@@_STL@@QAE@ABV?$allocator@PAX@1@@Z 00419900 f i stlport_vc6_static:dll_main.obj
 0001:00018940       ??0?$vector@PAXV?$allocator@PAX@_STL@@@_STL@@QAE@IABQAXABV?$allocator@PAX@1@@Z 00419940 f i stlport_vc6_static:dll_main.obj
 0001:00018b80       ??0?$vector@PAXV?$allocator@PAX@_STL@@@_STL@@QAE@I@Z 00419b80 f i stlport_vc6_static:dll_main.obj
 0001:00018d30       ??0?$vector@PAXV?$allocator@PAX@_STL@@@_STL@@QAE@ABV01@@Z 00419d30 f i stlport_vc6_static:dll_main.obj
 0001:00018f10       ??1?$vector@PAXV?$allocator@PAX@_STL@@@_STL@@QAE@XZ 00419f10 f i stlport_vc6_static:dll_main.obj
 0001:00018ff0       ?assign@?$vector@PAXV?$allocator@PAX@_STL@@@_STL@@QAEXIABQAX@Z 00419ff0 f i stlport_vc6_static:dll_main.obj
 0001:00019010       ?push_back@?$vector@PAXV?$allocator@PAX@_STL@@@_STL@@QAEXABQAX@Z 0041a010 f i stlport_vc6_static:dll_main.obj
 0001:00019240       ?swap@?$vector@PAXV?$allocator@PAX@_STL@@@_STL@@QAEXAAV12@@Z 0041a240 f i stlport_vc6_static:dll_main.obj
 0001:000192b0       ?insert@?$vector@PAXV?$allocator@PAX@_STL@@@_STL@@QAEPAPAXPAPAXABQAX@Z 0041a2b0 f i stlport_vc6_static:dll_main.obj
 0001:000195c0       ?push_back@?$vector@PAXV?$allocator@PAX@_STL@@@_STL@@QAEXXZ 0041a5c0 f i stlport_vc6_static:dll_main.obj
 0001:000197f0       ?insert@?$vector@PAXV?$allocator@PAX@_STL@@@_STL@@QAEPAPAXPAPAX@Z 0041a7f0 f i stlport_vc6_static:dll_main.obj
 0001:00019af0       ?insert@?$vector@PAXV?$allocator@PAX@_STL@@@_STL@@QAEXPAPAXIABQAX@Z 0041aaf0 f i stlport_vc6_static:dll_main.obj
 0001:00019fa0       ?pop_back@?$vector@PAXV?$allocator@PAX@_STL@@@_STL@@QAEXXZ 0041afa0 f i stlport_vc6_static:dll_main.obj
 0001:00019fc0       ?erase@?$vector@PAXV?$allocator@PAX@_STL@@@_STL@@QAEPAPAXPAPAX@Z 0041afc0 f i stlport_vc6_static:dll_main.obj
 0001:0001a040       ?erase@?$vector@PAXV?$allocator@PAX@_STL@@@_STL@@QAEPAPAXPAPAX0@Z 0041b040 f i stlport_vc6_static:dll_main.obj
 0001:0001a0a0       ?resize@?$vector@PAXV?$allocator@PAX@_STL@@@_STL@@QAEXIABQAX@Z 0041b0a0 f i stlport_vc6_static:dll_main.obj
 0001:0001a600       ?resize@?$vector@PAXV?$allocator@PAX@_STL@@@_STL@@QAEXI@Z 0041b600 f i stlport_vc6_static:dll_main.obj
 0001:0001ab10       ?clear@?$vector@PAXV?$allocator@PAX@_STL@@@_STL@@QAEXXZ 0041bb10 f i stlport_vc6_static:dll_main.obj
 0001:0001ab80       ?_M_clear@?$vector@PAXV?$allocator@PAX@_STL@@@_STL@@IAEXXZ 0041bb80 f i stlport_vc6_static:dll_main.obj
 0001:0001abe0       ?_M_set@?$vector@PAXV?$allocator@PAX@_STL@@@_STL@@IAEXPAPAX00@Z 0041bbe0 f i stlport_vc6_static:dll_main.obj
 0001:0001ac10       ?__previous@?$_Sl_global@_N@_STL@@SAPBU_Slist_node_base@2@PBU32@0@Z 0041bc10 f i stlport_vc6_static:dll_main.obj
 0001:0001ac40       ??1?$_STLP_alloc_proxy@PAPAXPAXV?$allocator@PAX@_STL@@@_STL@@QAE@XZ 0041bc40 f i stlport_vc6_static:dll_main.obj
 0001:0001ac50       ??0?$reverse_iterator@PBDDABDPBDH@_STL@@QAE@PBD@Z 0041bc50 f i stlport_vc6_static:dll_main.obj
 0001:0001ac70       ?_M_throw_length_error@?$_String_base@DV?$allocator@D@_STL@@@_STL@@QBEXXZ 0041bc70 f i stlport_vc6_static:dll_main.obj
 0001:0001ac90       ?_M_throw_out_of_range@?$_String_base@DV?$allocator@D@_STL@@@_STL@@QBEXXZ 0041bc90 f i stlport_vc6_static:dll_main.obj
 0001:0001acb0       ??0?$basic_string@DV?$char_traits@D@_STL@@V?$allocator@D@2@@_STL@@QAE@PBDABV?$allocator@D@1@@Z 0041bcb0 f i stlport_vc6_static:dll_main.obj
 0001:0001aeb0       ??0?$basic_string@DV?$char_traits@D@_STL@@V?$allocator@D@2@@_STL@@QAE@ABV01@@Z 0041beb0 f i stlport_vc6_static:dll_main.obj
 0001:0001b0c0       ?append@?$basic_string@DV?$char_traits@D@_STL@@V?$allocator@D@2@@_STL@@QAEAAV12@ID@Z 0041c0c0 f i stlport_vc6_static:dll_main.obj
 0001:0001b230       ?assign@?$basic_string@DV?$char_traits@D@_STL@@V?$allocator@D@2@@_STL@@QAEAAV12@ID@Z 0041c230 f i stlport_vc6_static:dll_main.obj
 0001:0001b350       ?insert@?$basic_string@DV?$char_traits@D@_STL@@V?$allocator@D@2@@_STL@@QAEXPADID@Z 0041c350 f i stlport_vc6_static:dll_main.obj
 0001:0001b940       ?_M_insert_aux@?$basic_string@DV?$char_traits@D@_STL@@V?$allocator@D@2@@_STL@@AAEPADPADD@Z 0041c940 f i stlport_vc6_static:dll_main.obj
 0001:0001bdd0       ?replace@?$basic_string@DV?$char_traits@D@_STL@@V?$allocator@D@2@@_STL@@QAEAAV12@PAD0ID@Z 0041cdd0 f i stlport_vc6_static:dll_main.obj
 0001:0001bec0       ?find@?$basic_string@DV?$char_traits@D@_STL@@V?$allocator@D@2@@_STL@@QBEIDI@Z 0041cec0 f i stlport_vc6_static:dll_main.obj
 0001:0001c0c0       ?find@?$basic_string@DV?$char_traits@D@_STL@@V?$allocator@D@2@@_STL@@QBEIPBDII@Z 0041d0c0 f i stlport_vc6_static:dll_main.obj
 0001:0001c2c0       ?rfind@?$basic_string@DV?$char_traits@D@_STL@@V?$allocator@D@2@@_STL@@QBEIDI@Z 0041d2c0 f i stlport_vc6_static:dll_main.obj
 0001:0001c3b0       ?rfind@?$basic_string@DV?$char_traits@D@_STL@@V?$allocator@D@2@@_STL@@QBEIPBDII@Z 0041d3b0 f i stlport_vc6_static:dll_main.obj
 0001:0001c660       ?find_first_of@?$basic_string@DV?$char_traits@D@_STL@@V?$allocator@D@2@@_STL@@QBEIPBDII@Z 0041d660 f i stlport_vc6_static:dll_main.obj
 0001:0001c740       ?find_last_of@?$basic_string@DV?$char_traits@D@_STL@@V?$allocator@D@2@@_STL@@QBEIPBDII@Z 0041d740 f i stlport_vc6_static:dll_main.obj
 0001:0001c830       ?find_first_not_of@?$basic_string@DV?$char_traits@D@_STL@@V?$allocator@D@2@@_STL@@QBEIDI@Z 0041d830 f i stlport_vc6_static:dll_main.obj
 0001:0001ca80       ?find_first_not_of@?$basic_string@DV?$char_traits@D@_STL@@V?$allocator@D@2@@_STL@@QBEIPBDII@Z 0041da80 f i stlport_vc6_static:dll_main.obj
 0001:0001d1f0       ?find_last_not_of@?$basic_string@DV?$char_traits@D@_STL@@V?$allocator@D@2@@_STL@@QBEIDI@Z 0041e1f0 f i stlport_vc6_static:dll_main.obj
 0001:0001d2e0       ?find_last_not_of@?$basic_string@DV?$char_traits@D@_STL@@V?$allocator@D@2@@_STL@@QBEIPBDII@Z 0041e2e0 f i stlport_vc6_static:dll_main.obj
 0001:0001d3e0       ?_Message@?$__stl_debug_engine@_N@_STL@@SAXPBDZZ 0041e3e0 f i stlport_vc6_static:dll_main.obj
 0001:0001d440       ?_IndexedError@?$__stl_debug_engine@_N@_STL@@SAXHPBDH@Z 0041e440 f i stlport_vc6_static:dll_main.obj
 0001:0001d470       ?_Assert@?$__stl_debug_engine@_N@_STL@@SAXPBD0H@Z 0041e470 f i stlport_vc6_static:dll_main.obj
 0001:0001d4a0       ?_VerboseAssert@?$__stl_debug_engine@_N@_STL@@SAXPBDH0H@Z 0041e4a0 f i stlport_vc6_static:dll_main.obj
 0001:0001d4e0       ?_Terminate@?$__stl_debug_engine@_N@_STL@@SAXXZ 0041e4e0 f i stlport_vc6_static:dll_main.obj
 0001:0001d4f0       ?_S_refill@?$__node_alloc@$0A@$0A@@_STL@@CAPAXI@Z 0041e4f0 f i stlport_vc6_static:dll_main.obj
 0001:0001d730       ?_S_chunk_alloc@?$__node_alloc@$0A@$0A@@_STL@@CAPADIAAH@Z 0041e730 f i stlport_vc6_static:dll_main.obj
 0001:0001d8e0       ?_M_allocate@?$__node_alloc@$0A@$0A@@_STL@@CAPAXI@Z 0041e8e0 f i stlport_vc6_static:dll_main.obj
 0001:0001db40       ?_M_deallocate@?$__node_alloc@$0A@$0A@@_STL@@CAXPAXI@Z 0041eb40 f i stlport_vc6_static:dll_main.obj
 0001:0001dcb0       ?allocate@?$__debug_alloc@V?$__node_alloc@$00$0A@@_STL@@@_STL@@SAPAXI@Z 0041ecb0 f i stlport_vc6_static:dll_main.obj
 0001:0001dd50       ?deallocate@?$__debug_alloc@V?$__node_alloc@$00$0A@@_STL@@@_STL@@SAXPAXI@Z 0041ed50 f i stlport_vc6_static:dll_main.obj
 0001:0001de10       ?allocate@?$__debug_alloc@V?$__node_alloc@$0A@$0A@@_STL@@@_STL@@SAPAXI@Z 0041ee10 f i stlport_vc6_static:dll_main.obj
 0001:0001deb0       ?deallocate@?$__debug_alloc@V?$__node_alloc@$0A@$0A@@_STL@@@_STL@@SAXPAXI@Z 0041eeb0 f i stlport_vc6_static:dll_main.obj
 0001:0001df70       ?allocate@?$__debug_alloc@V__new_alloc@_STL@@@_STL@@SAPAXI@Z 0041ef70 f i stlport_vc6_static:dll_main.obj
 0001:0001dff0       ?deallocate@?$__debug_alloc@V__new_alloc@_STL@@@_STL@@SAXPAXI@Z 0041eff0 f i stlport_vc6_static:dll_main.obj
 0001:0001e090       ?_S_oom_malloc@?$__malloc_alloc@$0A@@_STL@@CAPAXI@Z 0041f090 f i stlport_vc6_static:dll_main.obj
 0001:0001e0f0       ??4?$vector@PAXV?$allocator@PAX@_STL@@@_STL@@QAEAAV01@ABV01@@Z 0041f0f0 f i stlport_vc6_static:dll_main.obj
 0001:0001e2f0       ?reserve@?$vector@PAXV?$allocator@PAX@_STL@@@_STL@@QAEXI@Z 0041f2f0 f i stlport_vc6_static:dll_main.obj
 0001:0001e410       ?_M_fill_assign@?$vector@PAXV?$allocator@PAX@_STL@@@_STL@@QAEXIABQAX@Z 0041f410 f i stlport_vc6_static:dll_main.obj
 0001:0001e710       ?_M_fill_insert@?$vector@PAXV?$allocator@PAX@_STL@@@_STL@@QAEXPAPAXIABQAX@Z 0041f710 f i stlport_vc6_static:dll_main.obj
 0001:0001ec10       ?_Rebalance@?$_Rb_global@_N@_STL@@SAXPAU_Rb_tree_node_base@2@AAPAU32@@Z 0041fc10 f i stlport_vc6_static:dll_main.obj
 0001:0001ef90       ?_Rebalance_for_erase@?$_Rb_global@_N@_STL@@SAPAU_Rb_tree_node_base@2@PAU32@AAPAU32@11@Z 0041ff90 f i stlport_vc6_static:dll_main.obj
 0001:0001f6e0       ?_M_increment@?$_Rb_global@_N@_STL@@SAPAU_Rb_tree_node_base@2@PAU32@@Z 004206e0 f i stlport_vc6_static:dll_main.obj
 0001:0001f750       ?_M_decrement@?$_Rb_global@_N@_STL@@SAPAU_Rb_tree_node_base@2@PAU32@@Z 00420750 f i stlport_vc6_static:dll_main.obj
 0001:0001f7e0       ?_Rotate_left@?$_Rb_global@_N@_STL@@SAXPAU_Rb_tree_node_base@2@AAPAU32@@Z 004207e0 f i stlport_vc6_static:dll_main.obj
 0001:0001f870       ?_Rotate_right@?$_Rb_global@_N@_STL@@SAXPAU_Rb_tree_node_base@2@AAPAU32@@Z 00420870 f i stlport_vc6_static:dll_main.obj
 0001:0001f900       ?_Transfer@?$_List_global@_N@_STL@@SAXPAU_List_node_base@2@00@Z 00420900 f i stlport_vc6_static:dll_main.obj
 0001:0001f960       ?size@?$_Sl_global@_N@_STL@@SAIPAU_Slist_node_base@2@@Z 00420960 f i stlport_vc6_static:dll_main.obj
 0001:0001f990       ?__reverse@?$_Sl_global@_N@_STL@@SAPAU_Slist_node_base@2@PAU32@@Z 00420990 f i stlport_vc6_static:dll_main.obj
 0001:0001f9e0       ?__splice_after@?$_Sl_global@_N@_STL@@SAXPAU_Slist_node_base@2@0@Z 004209e0 f i stlport_vc6_static:dll_main.obj
 0001:0001fa50       ?__splice_after@?$_Sl_global@_N@_STL@@SAXPAU_Slist_node_base@2@00@Z 00420a50 f i stlport_vc6_static:dll_main.obj
 0001:0001faa0       ?__previous@?$_Sl_global@_N@_STL@@SAPAU_Slist_node_base@2@PAU32@PBU32@@Z 00420aa0 f i stlport_vc6_static:dll_main.obj
 0001:0001fad0       ?assign@?$basic_string@DV?$char_traits@D@_STL@@V?$allocator@D@2@@_STL@@QAEAAV12@PAD0@Z 00420ad0 f i stlport_vc6_static:dll_main.obj
 0001:0001fbb0       ?append@?$basic_string@DV?$char_traits@D@_STL@@V?$allocator@D@2@@_STL@@QAEAAV12@PAD0@Z 00420bb0 f i stlport_vc6_static:dll_main.obj
 0001:0001fbe0       ?append@?$basic_string@DV?$char_traits@D@_STL@@V?$allocator@D@2@@_STL@@QAEAAV12@PBD0@Z 00420be0 f i stlport_vc6_static:dll_main.obj
 0001:0001fc10       ?insert@?$basic_string@DV?$char_traits@D@_STL@@V?$allocator@D@2@@_STL@@QAEXPAD00@Z 00420c10 f i stlport_vc6_static:dll_main.obj
 0001:0001fc40       ?insert@?$basic_string@DV?$char_traits@D@_STL@@V?$allocator@D@2@@_STL@@QAEXPADPBD1@Z 00420c40 f i stlport_vc6_static:dll_main.obj
 0001:0001fc70       ?replace@?$basic_string@DV?$char_traits@D@_STL@@V?$allocator@D@2@@_STL@@QAEAAV12@PAD000@Z 00420c70 f i stlport_vc6_static:dll_main.obj
 0001:0001fdd0       ?replace@?$basic_string@DV?$char_traits@D@_STL@@V?$allocator@D@2@@_STL@@QAEAAV12@PAD0PBD1@Z 00420dd0 f i stlport_vc6_static:dll_main.obj
 0001:0001ff40       ?swap@_STL@@YAXAAV?$_STLP_alloc_proxy@PADDV?$allocator@D@_STL@@@1@0@Z 00420f40 f i stlport_vc6_static:dll_main.obj
 0001:0001ff70       ??0?$basic_string@DV?$char_traits@D@_STL@@V?$allocator@D@2@@_STL@@QAE@PAD0@Z 00420f70 f i stlport_vc6_static:dll_main.obj
 0001:000201d0       ?__uninitialized_copy@_STL@@YAPAPAXPAPAX00ABU__false_type@1@@Z 004211d0 f i stlport_vc6_static:dll_main.obj
 0001:00020270       ?__uninitialized_fill_n@_STL@@YAPAPAXPAPAXIABQAXABU__false_type@1@@Z 00421270 f i stlport_vc6_static:dll_main.obj
 0001:00020300       ?fill_n@_STL@@YAPAPAXPAPAXIABQAX@Z 00421300 f i stlport_vc6_static:dll_main.obj
 0001:00020330       ?swap@_STL@@YAXAAV?$_STLP_alloc_proxy@PAPAXPAXV?$allocator@PAX@_STL@@@1@0@Z 00421330 f i stlport_vc6_static:dll_main.obj
 0001:00020360       ??0?$_STLP_alloc_proxy@PADDV?$allocator@D@_STL@@@_STL@@QAE@ABV01@@Z 00421360 f i stlport_vc6_static:dll_main.obj
 0001:00020380       ??0?$_STLP_alloc_proxy@PAPAXPAXV?$allocator@PAX@_STL@@@_STL@@QAE@ABV01@@Z 00421380 f i stlport_vc6_static:dll_main.obj
 0001:000203a0       ??0?$reverse_iterator@PBDDABDPBDH@_STL@@QAE@ABV01@@Z 004213a0 f i stlport_vc6_static:dll_main.obj
 0001:000203d0       ??1?$_Node_Alloc_Lock@$0A@$0A@@_STL@@QAE@XZ 004213d0 f i stlport_vc6_static:dll_main.obj
 0001:00020400       ?find_if@_STL@@YA?AV?$reverse_iterator@PBDDABDPBDH@1@V21@0U?$_Eq_char_bound@V?$char_traits@D@_STL@@@1@@Z 00421400 f i stlport_vc6_static:dll_main.obj
 0001:00020440       ?__find_first_of@_STL@@YA?AV?$reverse_iterator@PBDDABDPBDH@1@V21@0PBD1U?$_Eq_traits@V?$char_traits@D@_STL@@@1@@Z 00421440 f i stlport_vc6_static:dll_main.obj
 0001:000204d0       ?find_if@_STL@@YA?AV?$reverse_iterator@PBDDABDPBDH@1@V21@0U?$_Neq_char_bound@V?$char_traits@D@_STL@@@1@@Z 004214d0 f i stlport_vc6_static:dll_main.obj
 0001:00020510       ?find_if@_STL@@YA?AV?$reverse_iterator@PBDDABDPBDH@1@V21@0U?$_Not_within_traits@V?$char_traits@D@_STL@@@1@@Z 00421510 f i stlport_vc6_static:dll_main.obj
 0001:00020560       ?_M_allocate_and_copy@?$vector@PAXV?$allocator@PAX@_STL@@@_STL@@IAEPAPAXIPBQAX0@Z 00421560 f i stlport_vc6_static:dll_main.obj
 0001:00020910       ?_S_nsec_sleep@?$_STLP_mutex_spin@$0A@@_STL@@SAXH@Z 00421910 f i stlport_vc6_static:dll_main.obj
 0001:00020940       ?_M_allocate_and_copy@?$vector@PAXV?$allocator@PAX@_STL@@@_STL@@IAEPAPAXIPAPAX0@Z 00421940 f i stlport_vc6_static:dll_main.obj
 0001:00020cf0       ?iterator_category@_STL@@YA?AUrandom_access_iterator_tag@1@PBD@Z 00421cf0 f i stlport_vc6_static:dll_main.obj
 0001:00020d10       ?_M_insert_dispatch@?$basic_string@DV?$char_traits@D@_STL@@V?$allocator@D@2@@_STL@@AAEXPAD00ABU__false_type@2@@Z 00421d10 f i stlport_vc6_static:dll_main.obj
 0001:00020d40       ?_M_insert_dispatch@?$basic_string@DV?$char_traits@D@_STL@@V?$allocator@D@2@@_STL@@AAEXPADPBD1ABU__false_type@2@@Z 00421d40 f i stlport_vc6_static:dll_main.obj
 0001:00020d70       ?_M_replace_dispatch@?$basic_string@DV?$char_traits@D@_STL@@V?$allocator@D@2@@_STL@@AAEAAV12@PAD000ABU__false_type@2@@Z 00421d70 f i stlport_vc6_static:dll_main.obj
 0001:00020ed0       ?_M_replace_dispatch@?$basic_string@DV?$char_traits@D@_STL@@V?$allocator@D@2@@_STL@@AAEAAV12@PAD0PBD1ABU__false_type@2@@Z 00421ed0 f i stlport_vc6_static:dll_main.obj
 0001:00021040       ?_M_initialize_dispatch@?$basic_string@DV?$char_traits@D@_STL@@V?$allocator@D@2@@_STL@@AAEXPAD0ABU__false_type@2@@Z 00422040 f i stlport_vc6_static:dll_main.obj
 0001:00021190       ?__find_if@_STL@@YA?AV?$reverse_iterator@PBDDABDPBDH@1@V21@0U?$_Eq_char_bound@V?$char_traits@D@_STL@@@1@ABUrandom_access_iterator_tag@1@@Z 00422190 f i stlport_vc6_static:dll_main.obj
 0001:00021350       ?__find_if@_STL@@YA?AV?$reverse_iterator@PBDDABDPBDH@1@V21@0U?$_Neq_char_bound@V?$char_traits@D@_STL@@@1@ABUrandom_access_iterator_tag@1@@Z 00422350 f i stlport_vc6_static:dll_main.obj
 0001:00021560       ?__find_if@_STL@@YA?AV?$reverse_iterator@PBDDABDPBDH@1@V21@0U?$_Not_within_traits@V?$char_traits@D@_STL@@@1@ABUrandom_access_iterator_tag@1@@Z 00422560 f i stlport_vc6_static:dll_main.obj
 0001:000219d0       ?insert@?$basic_string@DV?$char_traits@D@_STL@@V?$allocator@D@2@@_STL@@AAEXPAD00ABUforward_iterator_tag@2@@Z 004229d0 f i stlport_vc6_static:dll_main.obj
 0001:00022050       ?insert@?$basic_string@DV?$char_traits@D@_STL@@V?$allocator@D@2@@_STL@@AAEXPADPBD1ABUforward_iterator_tag@2@@Z 00423050 f i stlport_vc6_static:dll_main.obj
 0001:00022720       ?replace@?$basic_string@DV?$char_traits@D@_STL@@V?$allocator@D@2@@_STL@@AAEAAV12@PAD000ABUforward_iterator_tag@2@@Z 00423720 f i stlport_vc6_static:dll_main.obj
 0001:00022870       ?replace@?$basic_string@DV?$char_traits@D@_STL@@V?$allocator@D@2@@_STL@@AAEAAV12@PAD0PBD1ABUforward_iterator_tag@2@@Z 00423870 f i stlport_vc6_static:dll_main.obj
 0001:000229d0       ?__copy_aux@_STL@@YAPADPAD00ABU__true_type@1@@Z 004239d0 f i stlport_vc6_static:dll_main.obj
 0001:00022a40       ?_M_copy@?$basic_string@DV?$char_traits@D@_STL@@V?$allocator@D@2@@_STL@@AAEXPAD00@Z 00423a40 f i stlport_vc6_static:dll_main.obj
 0001:00022a80       ?__find_if@_STL@@YAPADPAD0U?$_Eq_char_bound@V?$char_traits@D@_STL@@@1@ABUrandom_access_iterator_tag@1@@Z 00423a80 f i stlport_vc6_static:dll_main.obj
 0001:00022bf0       ?distance_type@_STL@@YAPAHPBD@Z 00423bf0 f i stlport_vc6_static:dll_main.obj
 0001:00022bf7       ??3@YAXPAX@Z               00423bf7 f   LIBCMT:delete.obj
 0001:00022c02       _fwrite                    00423c02 f   LIBCMT:fwrite.obj
 0001:00022c31       __fwrite_lk                00423c31 f   LIBCMT:fwrite.obj
 0001:00022d3b       _fclose                    00423d3b f   LIBCMT:fclose.obj
 0001:00022d6c       __fclose_lk                00423d6c f   LIBCMT:fclose.obj
 0001:00022db8       _fread                     00423db8 f   LIBCMT:fread.obj
 0001:00022de7       __fread_lk                 00423de7 f   LIBCMT:fread.obj
 0001:00022ecf       ??2@YAPAXI@Z               00423ecf f   LIBCMT:new.obj
 0001:00022edd       _ftell                     00423edd f   LIBCMT:ftell.obj
 0001:00022eff       __ftell_lk                 00423eff f   LIBCMT:ftell.obj
 0001:00023060       _fseek                     00424060 f   LIBCMT:fseek.obj
 0001:0002308c       __fseek_lk                 0042408c f   LIBCMT:fseek.obj
 0001:00023119       __fsopen                   00424119 f   LIBCMT:fopen.obj
 0001:0002314a       _fopen                     0042414a f   LIBCMT:fopen.obj
 0001:0002315d       ?_JumpToContinuation@@YGXPAXPAUEHRegistrationNode@@@Z 0042415d f   LIBCMT:trnsctrl.obj
 0001:00023191       ?_CallMemberFunction0@@YGXPAX0@Z 00424191 f   LIBCMT:trnsctrl.obj
 0001:00023198       ?_CallMemberFunction1@@YGXPAX00@Z 00424198 f   LIBCMT:trnsctrl.obj
 0001:0002319f       ?_CallMemberFunction2@@YGXPAX00H@Z 0042419f f   LIBCMT:trnsctrl.obj
 0001:000231a6       ?_UnwindNestedFrames@@YGXPAUEHRegistrationNode@@PAUEHExceptionRecord@@@Z 004241a6 f   LIBCMT:trnsctrl.obj
 0001:000231f5       ___CxxFrameHandler         004241f5 f   LIBCMT:trnsctrl.obj
 0001:0002322b       ___CxxLongjmpUnwind@4      0042422b f   LIBCMT:trnsctrl.obj
 0001:00023245       ?_CallCatchBlock2@@YAPAXPAUEHRegistrationNode@@PBU_s_FuncInfo@@PAXHK@Z 00424245 f   LIBCMT:trnsctrl.obj
 0001:000232be       ?_CallSETranslator@@YAHPAUEHExceptionRecord@@PAUEHRegistrationNode@@PAX2PBU_s_FuncInfo@@H1@Z 004242be f   LIBCMT:trnsctrl.obj
 0001:000233e9       ?_GetRangeOfTrysToCheck@@YAPBU_s_TryBlockMapEntry@@PBU_s_FuncInfo@@HHPAI1@Z 004243e9 f   LIBCMT:trnsctrl.obj
 0001:00023464       __global_unwind2           00424464 f   LIBCMT:exsup.obj
 0001:000234a6       __local_unwind2            004244a6 f   LIBCMT:exsup.obj
 0001:000234fe       __NLG_Return2              004244fe f   LIBCMT:exsup.obj
 0001:0002350e       __abnormal_termination     0042450e f   LIBCMT:exsup.obj
 0001:00023531       __NLG_Notify1              00424531 f   LIBCMT:exsup.obj
 0001:0002353a       __NLG_Notify               0042453a f   LIBCMT:exsup.obj
 0001:0002354d       __NLG_Dispatch             0042454d f   LIBCMT:exsup.obj
 0001:00023552       __mbsnbcmp                 00424552 f   LIBCMT:mbsnbcmp.obj
 0001:00023641       __beginthreadex            00424641 f   LIBCMT:threadex.obj
 0001:00023772       __endthreadex              00424772 f   LIBCMT:threadex.obj
 0001:000237a4       _vfprintf                  004247a4 f   LIBCMT:vfprintf.obj
 0001:000237df       __purecall                 004247df f   LIBCMT:purevirt.obj
 0001:000237f0       _memmove                   004247f0 f   LIBCMT:memmove.obj
 0001:00023b25       _sprintf                   00424b25 f   LIBCMT:sprintf.obj
 0001:00023b77       __CxxThrowException@8      00424b77 f   LIBCMT:throw.obj
 0001:00023bb1       __onexit                   00424bb1 f   LIBCMT:onexit.obj
 0001:00023c2f       _atexit                    00424c2f f   LIBCMT:onexit.obj
 0001:00023c41       ___onexitinit              00424c41 f   LIBCMT:onexit.obj
 0001:00023c70       _atol                      00424c70 f   LIBCMT:atox.obj
 0001:00023cfb       _atoi                      00424cfb f   LIBCMT:atox.obj
 0001:00023d06       __atoi64                   00424d06 f   LIBCMT:atox.obj
 0001:00023dc0       _vsprintf                  00424dc0 f   LIBCMT:vsprintf.obj
 0001:00023e11       _localtime                 00424e11 f   LIBCMT:localtim.obj
 0001:00023f71       _time                      00424f71 f   LIBCMT:time.obj
 0001:0002404d       ??1type_info@@UAE@XZ       0042504d f   LIBCMT:typinfo.obj
 0001:00024076       ??_Gtype_info@@UAEPAXI@Z   00425076 f i LIBCMT:typinfo.obj
 0001:00024076       ??_Etype_info@@UAEPAXI@Z   00425076 f i LIBCMT:typinfo.obj
 0001:00024092       ??8type_info@@QBEHABV0@@Z  00425092 f   LIBCMT:typinfo.obj
 0001:000240ad       ??9type_info@@QBEHABV0@@Z  004250ad f   LIBCMT:typinfo.obj
 0001:000240c9       ?before@type_info@@QBEHABV1@@Z 004250c9 f   LIBCMT:typinfo.obj
 0001:000240e8       ?raw_name@type_info@@QBEPBDXZ 004250e8 f   LIBCMT:typinfo.obj
 0001:000240ec       ??0type_info@@AAE@ABV0@@Z  004250ec f   LIBCMT:typinfo.obj
 0001:000240f7       ??4type_info@@AAEAAV0@ABV0@@Z 004250f7 f   LIBCMT:typinfo.obj
 0001:00024100       __chkstk                   00425100 f   LIBCMT:chkstk.obj
 0001:00024100       __alloca_probe             00425100 f   LIBCMT:chkstk.obj
 0001:00024130       _strncpy                   00425130 f   LIBCMT:strncpy.obj
 0001:0002422e       _WinMainCRTStartup         0042522e f   LIBCMT:wincrt0.obj
 0001:00024336       __amsg_exit                00425336 f   LIBCMT:wincrt0.obj
 0001:0002437f       ??0exception@@QAE@XZ       0042537f f   LIBCMT:stdexcpt.obj
 0001:00024390       ??_Eexception@@UAEPAXI@Z   00425390 f i LIBCMT:stdexcpt.obj
 0001:00024390       ??_Gexception@@UAEPAXI@Z   00425390 f i LIBCMT:stdexcpt.obj
 0001:000243ac       ??0exception@@QAE@ABQBD@Z  004253ac f   LIBCMT:stdexcpt.obj
 0001:000243e9       ??0exception@@QAE@ABV0@@Z  004253e9 f   LIBCMT:stdexcpt.obj
 0001:00024433       ??4exception@@QAEAAV0@ABV0@@Z 00425433 f   LIBCMT:stdexcpt.obj
 0001:00024452       ??1exception@@UAE@XZ       00425452 f   LIBCMT:stdexcpt.obj
 0001:00024468       ?what@exception@@UBEPBDXZ  00425468 f   LIBCMT:stdexcpt.obj
 0001:00024475       _malloc                    00425475 f   LIBCMT:malloc.obj
 0001:00024487       __nh_malloc                00425487 f   LIBCMT:malloc.obj
 0001:000244b3       __heap_alloc               004254b3 f   LIBCMT:malloc.obj
 0001:000245af       _free                      004255af f   LIBCMT:free.obj
 0001:00024698       __vsnprintf                00425698 f   LIBCMT:vsnprint.obj
 0001:000246e8       _abort                     004256e8 f   LIBCMT:abort.obj
 0001:000246ff       ___initstdio               004256ff f   LIBCMT:_file.obj
 0001:000247a7       ___endstdio                004257a7 f   LIBCMT:_file.obj
 0001:000247bb       __lock_file                004257bb f   LIBCMT:_file.obj
 0001:000247ea       __lock_file2               004257ea f   LIBCMT:_file.obj
 0001:0002480d       __unlock_file              0042580d f   LIBCMT:_file.obj
 0001:0002483c       __unlock_file2             0042583c f   LIBCMT:_file.obj
 0001:0002485f       __flsbuf                   0042585f f   LIBCMT:_flsbuf.obj
 0001:00024977       __write                    00425977 f   LIBCMT:write.obj
 0001:000249dc       __write_lk                 004259dc f   LIBCMT:write.obj
 0001:00024b67       _fflush                    00425b67 f   LIBCMT:fflush.obj
 0001:00024b96       __fflush_lk                00425b96 f   LIBCMT:fflush.obj
 0001:00024bc4       __flush                    00425bc4 f   LIBCMT:fflush.obj
 0001:00024c20       __flushall                 00425c20 f   LIBCMT:fflush.obj
 0001:00024cd0       _memcpy                    00425cd0 f   LIBCMT:memcpy.obj
 0001:00025005       __close                    00426005 f   LIBCMT:close.obj
 0001:00025062       __close_lk                 00426062 f   LIBCMT:close.obj
 0001:000250e5       __freebuf                  004260e5 f   LIBCMT:_freebuf.obj
 0001:00025110       __filbuf                   00426110 f   LIBCMT:_filbuf.obj
 0001:000251ec       __read                     004261ec f   LIBCMT:read.obj
 0001:00025251       __read_lk                  00426251 f   LIBCMT:read.obj
 0001:0002542a       __dosmaperr                0042642a f   LIBCMT:dosmap.obj
 0001:0002549d       __errno                    0042649d f   LIBCMT:dosmap.obj
 0001:000254a6       ___doserrno                004264a6 f   LIBCMT:dosmap.obj
 0001:000254af       __ioinit                   004264af f   LIBCMT:ioinit.obj
 0001:0002566b       __ioterm                   0042666b f   LIBCMT:ioinit.obj
 0001:000256bf       __lseek                    004266bf f   LIBCMT:lseek.obj
 0001:00025724       __lseek_lk                 00426724 f   LIBCMT:lseek.obj
 0001:00025797       __openfile                 00426797 f   LIBCMT:_open.obj
 0001:00025907       __getstream                00426907 f   LIBCMT:stream.obj
 0001:000259cf       ___InternalCxxFrameHandler 004269cf f   LIBCMT:frame.obj
 0001:00025d24       ___FrameUnwindToState      00426d24 f   LIBCMT:frame.obj
 0001:0002615c       ?_DestructExceptionObject@@YAXPAUEHExceptionRecord@@E@Z 0042715c f   LIBCMT:frame.obj
 0001:000261f0       __CallSettingFrame@12      004271f0 f   LIBCMT:lowhelpr.obj
 0001:00026217       __NLG_Return               00427217 f   LIBCMT:lowhelpr.obj
 0001:0002623c       __mtinit                   0042723c f   LIBCMT:tidtable.obj
 0001:00026290       __mtterm                   00427290 f   LIBCMT:tidtable.obj
 0001:000262ae       __initptd                  004272ae f   LIBCMT:tidtable.obj
 0001:000262c1       __getptd                   004272c1 f   LIBCMT:tidtable.obj
 0001:00026328       __freeptd                  00427328 f   LIBCMT:tidtable.obj
 0001:000263c8       ___threadid                004273c8 f   LIBCMT:tidtable.obj
 0001:000263ce       ___threadhandle            004273ce f   LIBCMT:tidtable.obj
 0001:000263d4       ?terminate@@YAXXZ          004273d4 f   LIBCMT:hooks.obj
 0001:00026435       ?unexpected@@YAXXZ         00427435 f   LIBCMT:hooks.obj
 0001:0002644d       ?_inconsistency@@YAXXZ     0042744d f   LIBCMT:hooks.obj
 0001:000264a3       __mtinitlocks              004274a3 f   LIBCMT:mlock.obj
 0001:000264cc       __mtdeletelocks            004274cc f   LIBCMT:mlock.obj
 0001:00026538       __lock                     00427538 f   LIBCMT:mlock.obj
 0001:00026599       __unlock                   00427599 f   LIBCMT:mlock.obj
 0001:000265ae       __lockerr_exit             004275ae f   LIBCMT:mlock.obj
 0001:000265c6       __setmbcp                  004275c6 f   LIBCMT:mbctype.obj
 0001:0002699e       __getmbcp                  0042799e f   LIBCMT:mbctype.obj
 0001:000269ae       ___initmbctable            004279ae f   LIBCMT:mbctype.obj
 0001:000269d0       _strncmp                   004279d0 f   LIBCMT:strncmp.obj
 0001:00026a08       _calloc                    00427a08 f   LIBCMT:calloc.obj
 0001:00026b45       __cinit                    00427b45 f   LIBCMT:crt0dat.obj
 0001:00026b72       _exit                      00427b72 f   LIBCMT:crt0dat.obj
 0001:00026b83       __exit                     00427b83 f   LIBCMT:crt0dat.obj
 0001:00026b94       __cexit                    00427b94 f   LIBCMT:crt0dat.obj
 0001:00026ba3       __c_exit                   00427ba3 f   LIBCMT:crt0dat.obj
 0001:00026c57       __lockexit                 00427c57 f   LIBCMT:crt0dat.obj
 0001:00026c60       __unlockexit               00427c60 f   LIBCMT:crt0dat.obj
 0001:00026c83       __XcptFilter               00427c83 f   LIBCMT:winxfltr.obj
 0001:00026e04       __except_handler3          00427e04 f   LIBCMT:exsup3.obj
 0001:00026ec1       __seh_longjmp_unwind@4     00427ec1 f   LIBCMT:exsup3.obj
 0001:00026edc       __stbuf                    00427edc f   LIBCMT:_sftbuf.obj
 0001:00026f69       __ftbuf                    00427f69 f   LIBCMT:_sftbuf.obj
 0001:00026f93       __output                   00427f93 f   LIBCMT:output.obj
 0001:000277fa       ?__CxxUnhandledExceptionFilter@@YGJPAU_EXCEPTION_POINTERS@@@Z 004287fa f   LIBCMT:unhandld.obj
 0001:00027840       ?__CxxSetUnhandledExceptionFilter@@YAXXZ 00428840 f   LIBCMT:unhandld.obj
 0001:00027851       ?__CxxRestoreUnhandledExceptionFilter@@YAXXZ 00428851 f   LIBCMT:unhandld.obj
 0001:0002785e       _realloc                   0042885e f   LIBCMT:realloc.obj
 0001:00027b8d       __msize                    00428b8d f   LIBCMT:msize.obj
 0001:00027c7b       __isctype                  00428c7b f   LIBCMT:isctype.obj
 0001:00027cf0       __allmul                   00428cf0 f   LIBCMT:llmul.obj
 0001:00027d24       ___tzset                   00428d24 f   LIBCMT:tzset.obj
 0001:00027d52       __tzset                    00428d52 f   LIBCMT:tzset.obj
 0001:00027fef       __isindst                  00428fef f   LIBCMT:tzset.obj
 0001:000282fc       _gmtime                    004292fc f   LIBCMT:gmtime.obj
 0001:00028406       ___loctotime_t             00429406 f   LIBCMT:dtoxtime.obj
 0001:000284d0       _strcmp                    004294d0 f   LIBCMT:strcmp.obj
 0001:00028554       __wincmdln                 00429554 f   LIBCMT:wincmdln.obj
 0001:000285ac       __setenvp                  004295ac f   LIBCMT:stdenvp.obj
 0001:00028665       __setargv                  00429665 f   LIBCMT:stdargv.obj
 0001:000288b2       ___crtGetEnvironmentStringsA 004298b2 f   LIBCMT:a_env.obj
 0001:000289e4       __GetLinkerVersion         004299e4 f   LIBCMT:heapinit.obj
 0001:00028a11       ___heap_select             00429a11 f   LIBCMT:heapinit.obj
 0001:00028b59       __heap_init                00429b59 f   LIBCMT:heapinit.obj
 0001:00028bb6       __heap_term                00429bb6 f   LIBCMT:heapinit.obj
 0001:00028c5e       __FF_MSGBANNER             00429c5e f   LIBCMT:crt0msg.obj
 0001:00028c97       __NMSG_WRITE               00429c97 f   LIBCMT:crt0msg.obj
 0001:00028dea       __GET_RTERRMSG             00429dea f   LIBCMT:crt0msg.obj
 0001:00028e20       _strcpy                    00429e20 f   LIBCMT:strcat.obj
 0001:00028e30       _strcat                    00429e30 f   LIBCMT:strcat.obj
 0001:00028f10       _strlen                    00429f10 f   LIBCMT:strlen.obj
 0001:00028f8b       ?_set_new_handler@@YAP6AHI@ZP6AHI@Z@Z 00429f8b f   LIBCMT:handler.obj
 0001:00028faf       ?_query_new_handler@@YAP6AHI@ZXZ 00429faf f   LIBCMT:handler.obj
 0001:00028fb5       __callnewh                 00429fb5 f   LIBCMT:handler.obj
 0001:00028fd0       __get_sbh_threshold        00429fd0 f   LIBCMT:sbheap.obj
 0001:00028fef       __set_sbh_threshold        00429fef f   LIBCMT:sbheap.obj
 0001:000290a2       ___sbh_heap_init           0042a0a2 f   LIBCMT:sbheap.obj
 0001:000290ea       ___sbh_find_block          0042a0ea f   LIBCMT:sbheap.obj
 0001:00029115       ___sbh_free_block          0042a115 f   LIBCMT:sbheap.obj
 0001:0002943e       ___sbh_alloc_block         0042a43e f   LIBCMT:sbheap.obj
 0001:00029747       ___sbh_alloc_new_region    0042a747 f   LIBCMT:sbheap.obj
 0001:000297f8       ___sbh_alloc_new_group     0042a7f8 f   LIBCMT:sbheap.obj
 0001:000298f3       ___sbh_resize_block        0042a8f3 f   LIBCMT:sbheap.obj
 0001:00029be9       ___sbh_heapmin             0042abe9 f   LIBCMT:sbheap.obj
 0001:00029cba       ___sbh_heap_check          0042acba f   LIBCMT:sbheap.obj
 0001:00029fe9       __get_old_sbh_threshold    0042afe9 f   LIBCMT:sbheap.obj
 0001:00029fef       __set_old_sbh_threshold    0042afef f   LIBCMT:sbheap.obj
 0001:0002a00b       ___old_sbh_new_region      0042b00b f   LIBCMT:sbheap.obj
 0001:0002a14f       ___old_sbh_release_region  0042b14f f   LIBCMT:sbheap.obj
 0001:0002a1a5       ___old_sbh_decommit_pages  0042b1a5 f   LIBCMT:sbheap.obj
 0001:0002a267       ___old_sbh_find_block      0042b267 f   LIBCMT:sbheap.obj
 0001:0002a2be       ___old_sbh_free_block      0042b2be f   LIBCMT:sbheap.obj
 0001:0002a303       ___old_sbh_alloc_block     0042b303 f   LIBCMT:sbheap.obj
 0001:0002a50b       ___old_sbh_alloc_block_from_page 0042b50b f   LIBCMT:sbheap.obj
 0001:0002a62f       ___old_sbh_resize_block    0042b62f f   LIBCMT:sbheap.obj
 0001:0002a6d8       ___old_sbh_heap_check      0042b6d8 f   LIBCMT:sbheap.obj
 0001:0002a836       _signal                    0042b836 f   LIBCMT:winsig.obj
 0001:0002aa1a       _raise                     0042ba1a f   LIBCMT:winsig.obj
 0001:0002abd9       ___fpecode                 0042bbd9 f   LIBCMT:winsig.obj
 0001:0002abe2       ___pxcptinfoptrs           0042bbe2 f   LIBCMT:winsig.obj
 0001:0002abeb       __fcloseall                0042bbeb f   LIBCMT:closeall.obj
 0001:0002ac6c       __getbuf                   0042bc6c f   LIBCMT:_getbuf.obj
 0001:0002acb0       __isatty                   0042bcb0 f   LIBCMT:isatty.obj
 0001:0002acd9       __alloc_osfhnd             0042bcd9 f   LIBCMT:osfinfo.obj
 0001:0002adfc       __set_osfhnd               0042bdfc f   LIBCMT:osfinfo.obj
 0001:0002ae78       __free_osfhnd              0042be78 f   LIBCMT:osfinfo.obj
 0001:0002aef7       __get_osfhandle            0042bef7 f   LIBCMT:osfinfo.obj
 0001:0002af39       __open_osfhandle           0042bf39 f   LIBCMT:osfinfo.obj
 0001:0002afe0       __lock_fhandle             0042bfe0 f   LIBCMT:osfinfo.obj
 0001:0002b03f       __unlock_fhandle           0042c03f f   LIBCMT:osfinfo.obj
 0001:0002b061       __commit                   0042c061 f   LIBCMT:commit.obj
 0001:0002b0f4       __open                     0042c0f4 f   LIBCMT:open.obj
 0001:0002b10b       __sopen                    0042c10b f   LIBCMT:open.obj
 0001:0002b3da       ?_ValidateRead@@YAHPBXI@Z  0042c3da f   LIBCMT:validate.obj
 0001:0002b3f6       ?_ValidateWrite@@YAHPAXI@Z 0042c3f6 f   LIBCMT:validate.obj
 0001:0002b412       ?_ValidateExecute@@YAHP6GHXZ@Z 0042c412 f   LIBCMT:validate.obj
 0001:0002b42a       ___crtLCMapStringA         0042c42a f   LIBCMT:a_map.obj
 0001:0002b679       ___crtGetStringTypeA       0042c679 f   LIBCMT:a_str.obj
 0001:0002b7d0       _memset                    0042c7d0 f   LIBCMT:memset.obj
 0001:0002b828       _wctomb                    0042c828 f   LIBCMT:wctomb.obj
 0001:0002b881       __wctomb_lk                0042c881 f   LIBCMT:wctomb.obj
 0001:0002b8f0       __aulldiv                  0042c8f0 f   LIBCMT:ulldiv.obj
 0001:0002b960       __aullrem                  0042c960 f   LIBCMT:ullrem.obj
 0001:0002b9d5       _getenv                    0042c9d5 f   LIBCMT:getenv.obj
 0001:0002b9f6       __getenv_lk                0042c9f6 f   LIBCMT:getenv.obj
 0001:0002ba73       __ismbbkalnum              0042ca73 f   LIBCMT:ismbbyte.obj
 0001:0002ba84       __ismbbkprint              0042ca84 f   LIBCMT:ismbbyte.obj
 0001:0002ba95       __ismbbkpunct              0042ca95 f   LIBCMT:ismbbyte.obj
 0001:0002baa6       __ismbbalnum               0042caa6 f   LIBCMT:ismbbyte.obj
 0001:0002baba       __ismbbalpha               0042caba f   LIBCMT:ismbbyte.obj
 0001:0002bace       __ismbbgraph               0042cace f   LIBCMT:ismbbyte.obj
 0001:0002bae2       __ismbbprint               0042cae2 f   LIBCMT:ismbbyte.obj
 0001:0002baf6       __ismbbpunct               0042caf6 f   LIBCMT:ismbbyte.obj
 0001:0002bb07       __ismbblead                0042cb07 f   LIBCMT:ismbbyte.obj
 0001:0002bb18       __ismbbtrail               0042cb18 f   LIBCMT:ismbbyte.obj
 0001:0002bb29       __ismbbkana                0042cb29 f   LIBCMT:ismbbyte.obj
 0001:0002bb81       _strtol                    0042cb81 f   LIBCMT:strtol.obj
 0001:0002bd9d       _strtoul                   0042cd9d f   LIBCMT:strtol.obj
 0001:0002bdd0       _strchr                    0042cdd0 f   LIBCMT:strchr.obj
 0001:0002bdd6       ___from_strstr_to_strchr   0042cdd6 f   LIBCMT:strchr.obj
 0001:0002be90       _strstr                    0042ce90 f   LIBCMT:strstr.obj
 0001:0002bf10       ___crtMessageBoxA          0042cf10 f   LIBCMT:crtmbox.obj
 0001:0002bf99       __chsize                   0042cf99 f   LIBCMT:chsize.obj
 0001:0002bff2       __chsize_lk                0042cff2 f   LIBCMT:chsize.obj
 0001:0002c117       __fptrap                   0042d117 f   LIBCMT:crt0fp.obj
 0001:0002c120       _setlocale                 0042d120 f   LIBCMT:setlocal.obj
 0001:0002c53a       __expandlocale             0042d53a f   LIBCMT:setlocal.obj
 0001:0002c652       ___init_dummy              0042d652 f   LIBCMT:setlocal.obj
 0001:0002c655       __strcats                  0042d655 f   LIBCMT:setlocal.obj
 0001:0002c67a       ___lc_strtolc              0042d67a f   LIBCMT:setlocal.obj
 0001:0002c746       ___lc_lctostr              0042d746 f   LIBCMT:setlocal.obj
 0001:0002c799       __mbsnbicoll               0042d799 f   LIBCMT:mbsnbico.obj
 0001:0002c7d8       ___wtomb_environ           0042d7d8 f   LIBCMT:wtombenv.obj
 0001:0002c846       __toupper                  0042d846 f   LIBCMT:toupper.obj
 0001:0002c84e       _toupper                   0042d84e f   LIBCMT:toupper.obj
 0001:0002c8bd       __toupper_lk               0042d8bd f   LIBCMT:toupper.obj
 0001:0002c989       __setmode                  0042d989 f   LIBCMT:setmode.obj
 0001:0002c9e2       __setmode_lk               0042d9e2 f   LIBCMT:setmode.obj
 0001:0002ca43       ___init_time               0042da43 f   LIBCMT:inittime.obj
 0001:0002cfb2       ___init_numeric            0042dfb2 f   LIBCMT:initnum.obj
 0001:0002d1be       ___init_monetary           0042e1be f   LIBCMT:initmon.obj
 0001:0002d430       ___init_ctype              0042e430 f   LIBCMT:initctyp.obj
 0001:0002d675       ___init_collate            0042e675 f   LIBCMT:initcoll.obj
 0001:0002d680       _strcspn                   0042e680 f   LIBCMT:strcspn.obj
 0001:0002d6c0       _strpbrk                   0042e6c0 f   LIBCMT:strpbrk.obj
 0001:0002d6fa       ___get_qualified_locale    0042e6fa f   LIBCMT:getqloc.obj
 0001:0002dfa1       ___crtCompareStringA       0042efa1 f   LIBCMT:a_cmp.obj
 0001:0002e249       ___crtsetenv               0042f249 f   LIBCMT:setenv.obj
 0001:0002e48f       __Getdays                  0042f48f f   LIBCMT:strftime.obj
 0001:0002e51e       __Getmonths                0042f51e f   LIBCMT:strftime.obj
 0001:0002e5b3       __Gettnames                0042f5b3 f   LIBCMT:strftime.obj
 0001:0002e7e5       _strftime                  0042f7e5 f   LIBCMT:strftime.obj
 0001:0002e800       __Strftime                 0042f800 f   LIBCMT:strftime.obj
 0001:0002f0d6       ___getlocaleinfo           004300d6 f   LIBCMT:inithelp.obj
 0001:0002f20e       _localeconv                0043020e f   LIBCMT:lconv.obj
 0001:0002f214       ___crtGetStringTypeW       00430214 f   LIBCMT:w_str.obj
 0001:0002f3d9       __itoa                     004303d9 f   LIBCMT:xtoa.obj
 0001:0002f462       __ltoa                     00430462 f   LIBCMT:xtoa.obj
 0001:0002f48c       __ultoa                    0043048c f   LIBCMT:xtoa.obj
 0001:0002f4a7       __i64toa                   004304a7 f   LIBCMT:xtoa.obj
 0001:0002f55e       __ui64toa                  0043055e f   LIBCMT:xtoa.obj
 0001:0002f580       __strcmpi                  00430580 f   LIBCMT:stricmp.obj
 0001:0002f580       _strcmpi                   00430580 f   LIBCMT:stricmp.obj
 0001:0002f580       __stricmp                  00430580 f   LIBCMT:stricmp.obj
 0001:0002f580       _stricmp                   00430580 f   LIBCMT:stricmp.obj
 0001:0002f650       __strnicmp                 00430650 f   LIBCMT:strnicmp.obj
 0001:0002f751       __mbschr                   00430751 f   LIBCMT:mbschr.obj
 0001:0002f7e8       __strdup                   004307e8 f   LIBCMT:strdup.obj
 0001:0002f813       ___crtGetLocaleInfoW       00430813 f   LIBCMT:w_loc.obj
 0001:0002f926       ___crtGetLocaleInfoA       00430926 f   LIBCMT:a_loc.obj
 0001:0002fa44       __tolower                  00430a44 f   LIBCMT:tolower.obj
 0001:0002fa4c       _tolower                   00430a4c f   LIBCMT:tolower.obj
 0001:0002fabb       __tolower_lk               00430abb f   LIBCMT:tolower.obj
 0001:0002fb90       ?_com_issue_error@@YGXJ@Z  00430b90 f   comsupp:comsupp.obj
 0001:0002fb9e       ?_com_issue_errorex@@YGXJPAUIUnknown@@ABU_GUID@@@Z 00430b9e f   comsupp:comsupp.obj
 0001:0002fbff       ?_com_dispatch_raw_method@@YAJPAUIDispatch@@JGGPAXPBGZZ 00430bff f   comsupp:comsupp.obj
 0001:00030120       ?_com_dispatch_method@@YAJPAUIDispatch@@JGGPAXPBGZZ 00431120 f   comsupp:comsupp.obj
 0001:0003015a       ?_com_dispatch_raw_propget@@YGJPAUIDispatch@@JGPAX@Z 0043115a f   comsupp:comsupp.obj
 0001:00030179       ?_com_dispatch_propget@@YGJPAUIDispatch@@JGPAX@Z 00431179 f   comsupp:comsupp.obj
 0001:00030198       ?_com_dispatch_raw_propput@@YAJPAUIDispatch@@JGZZ 00431198 f   comsupp:comsupp.obj
 0001:000301f1       ?_com_dispatch_propput@@YAJPAUIDispatch@@JGZZ 004311f1 f   comsupp:comsupp.obj
 0001:00030286       ?ConvertStringToBSTR@_com_util@@YGPAGPBD@Z 00431286 f   comsupp:comutil.obj
 0001:000302fb       ?ConvertBSTRToString@_com_util@@YGPADPAG@Z 004312fb f   comsupp:comutil.obj
 0001:0003036f       ??0_variant_t@@QAE@JG@Z    0043136f f i comsupp:comutil.obj
 0001:000303cb       ?_com_raise_error@@YGXJPAUIErrorInfo@@@Z 004313cb f   comsupp:comraise.obj
 0001:000303ef       ??0_com_error@@QAE@JPAUIErrorInfo@@_N@Z 004313ef f i comsupp:comraise.obj
 0001:00030421       ??_G_com_error@@UAEPAXI@Z  00431421 f i comsupp:comraise.obj
 0001:00030421       ??_E_com_error@@UAEPAXI@Z  00431421 f i comsupp:comraise.obj
 0001:0003043d       ??0_com_error@@QAE@ABV0@@Z 0043143d f i comsupp:comraise.obj
 0001:0003046a       ??1_com_error@@UAE@XZ      0043146a f i comsupp:comraise.obj
 0001:00030490       _InterlockedExchange@8     00431490 f   kernel32:KERNEL32.dll
 0001:00030496       _OutputDebugStringA@4      00431496 f   kernel32:KERNEL32.dll
 0001:0003049c       _RtlUnwind@16              0043149c f   kernel32:KERNEL32.dll
 0001:000304a2       _CreateThread@24           004314a2 f   kernel32:KERNEL32.dll
 0001:000304a8       _GetCurrentThreadId@0      004314a8 f   kernel32:KERNEL32.dll
 0001:000304ae       _TlsSetValue@8             004314ae f   kernel32:KERNEL32.dll
 0001:000304b4       _TlsGetValue@4             004314b4 f   kernel32:KERNEL32.dll
 0001:000304ba       _ExitThread@4              004314ba f   kernel32:KERNEL32.dll
 0001:000304c0       _RaiseException@16         004314c0 f   kernel32:KERNEL32.dll
 0001:000304c6       _GetTimeZoneInformation@4  004314c6 f   kernel32:KERNEL32.dll
 0001:000304cc       _GetSystemTime@4           004314cc f   kernel32:KERNEL32.dll
 0001:000304d2       _GetModuleHandleA@4        004314d2 f   kernel32:KERNEL32.dll
 0001:000304d8       _GetStartupInfoA@4         004314d8 f   kernel32:KERNEL32.dll
 0001:000304de       _GetCommandLineA@0         004314de f   kernel32:KERNEL32.dll
 0001:000304e4       _GetVersion@0              004314e4 f   kernel32:KERNEL32.dll
 0001:000304ea       _ExitProcess@4             004314ea f   kernel32:KERNEL32.dll
 0001:000304f0       _HeapAlloc@12              004314f0 f   kernel32:KERNEL32.dll
 0001:000304f6       _HeapFree@12               004314f6 f   kernel32:KERNEL32.dll
 0001:000304fc       _ReadFile@20               004314fc f   kernel32:KERNEL32.dll
 0001:00030502       _SetHandleCount@4          00431502 f   kernel32:KERNEL32.dll
 0001:00030508       _GetStdHandle@4            00431508 f   kernel32:KERNEL32.dll
 0001:0003050e       _GetFileType@4             0043150e f   kernel32:KERNEL32.dll
 0001:00030514       _SetFilePointer@16         00431514 f   kernel32:KERNEL32.dll
 0001:0003051a       _TlsAlloc@0                0043151a f   kernel32:KERNEL32.dll
 0001:00030520       _TlsFree@4                 00431520 f   kernel32:KERNEL32.dll
 0001:00030526       _SetLastError@4            00431526 f   kernel32:KERNEL32.dll
 0001:0003052c       _GetCurrentThread@0        0043152c f   kernel32:KERNEL32.dll
 0001:00030532       _FatalAppExitA@8           00431532 f   kernel32:KERNEL32.dll
 0001:00030538       _GetCPInfo@8               00431538 f   kernel32:KERNEL32.dll
 0001:0003053e       _GetACP@0                  0043153e f   kernel32:KERNEL32.dll
 0001:00030544       _GetOEMCP@0                00431544 f   kernel32:KERNEL32.dll
 0001:0003054a       _TerminateProcess@8        0043154a f   kernel32:KERNEL32.dll
 0001:00030550       _GetCurrentProcess@0       00431550 f   kernel32:KERNEL32.dll
 0001:00030556       _UnhandledExceptionFilter@4 00431556 f   kernel32:KERNEL32.dll
 0001:0003055c       _SetUnhandledExceptionFilter@4 0043155c f   kernel32:KERNEL32.dll
 0001:00030562       _HeapReAlloc@16            00431562 f   kernel32:KERNEL32.dll
 0001:00030568       _HeapSize@12               00431568 f   kernel32:KERNEL32.dll
 0001:0003056e       _WideCharToMultiByte@32    0043156e f   kernel32:KERNEL32.dll
 0001:00030574       _FreeEnvironmentStringsA@4 00431574 f   kernel32:KERNEL32.dll
 0001:0003057a       _FreeEnvironmentStringsW@4 0043157a f   kernel32:KERNEL32.dll
 0001:00030580       _GetEnvironmentStrings@0   00431580 f   kernel32:KERNEL32.dll
 0001:00030586       _GetEnvironmentStringsW@0  00431586 f   kernel32:KERNEL32.dll
 0001:0003058c       _GetEnvironmentVariableA@12 0043158c f   kernel32:KERNEL32.dll
 0001:00030592       _GetVersionExA@4           00431592 f   kernel32:KERNEL32.dll
 0001:00030598       _HeapDestroy@4             00431598 f   kernel32:KERNEL32.dll
 0001:0003059e       _HeapCreate@12             0043159e f   kernel32:KERNEL32.dll
 0001:000305a4       _VirtualFree@12            004315a4 f   kernel32:KERNEL32.dll
 0001:000305aa       _VirtualAlloc@16           004315aa f   kernel32:KERNEL32.dll
 0001:000305b0       _IsBadWritePtr@8           004315b0 f   kernel32:KERNEL32.dll
 0001:000305b6       _SetConsoleCtrlHandler@8   004315b6 f   kernel32:KERNEL32.dll
 0001:000305bc       _SetStdHandle@8            004315bc f   kernel32:KERNEL32.dll
 0001:000305c2       _FlushFileBuffers@4        004315c2 f   kernel32:KERNEL32.dll
 0001:000305c8       _IsBadReadPtr@8            004315c8 f   kernel32:KERNEL32.dll
 0001:000305ce       _IsBadCodePtr@4            004315ce f   kernel32:KERNEL32.dll
 0001:000305d4       _LCMapStringA@24           004315d4 f   kernel32:KERNEL32.dll
 0001:000305da       _LCMapStringW@24           004315da f   kernel32:KERNEL32.dll
 0001:000305e0       _GetStringTypeA@20         004315e0 f   kernel32:KERNEL32.dll
 0001:000305e6       _GetStringTypeW@16         004315e6 f   kernel32:KERNEL32.dll
 0001:000305ec       _InterlockedIncrement@4    004315ec f   kernel32:KERNEL32.dll
 0001:000305f2       _SetEndOfFile@4            004315f2 f   kernel32:KERNEL32.dll
 0001:000305f8       _IsValidLocale@8           004315f8 f   kernel32:KERNEL32.dll
 0001:000305fe       _IsValidCodePage@4         004315fe f   kernel32:KERNEL32.dll
 0001:00030604       _GetLocaleInfoA@16         00431604 f   kernel32:KERNEL32.dll
 0001:0003060a       _EnumSystemLocalesA@8      0043160a f   kernel32:KERNEL32.dll
 0001:00030610       _GetUserDefaultLCID@0      00431610 f   kernel32:KERNEL32.dll
 0001:00030616       _CompareStringA@24         00431616 f   kernel32:KERNEL32.dll
 0001:0003061c       _CompareStringW@24         0043161c f   kernel32:KERNEL32.dll
 0001:00030622       _SetEnvironmentVariableA@8 00431622 f   kernel32:KERNEL32.dll
 0001:00030628       _GetLocaleInfoW@16         00431628 f   kernel32:KERNEL32.dll
 0001:0003062e       _lstrlenW@4                0043162e f   kernel32:KERNEL32.dll
 0001:00030634       _GetErrorInfo@8            00431634 f   oleaut32:OLEAUT32.dll
 0001:0003063a       _SetErrorInfo@8            0043163a f   oleaut32:OLEAUT32.dll
 0001:00030640       _CreateErrorInfo@4         00431640 f   oleaut32:OLEAUT32.dll
 0001:00030646       _wcslen                    00431646 f   LIBCMT:wcslen.obj
 0002:00000000       __imp__WaitForSingleObject@8 00433000     kernel32:KERNEL32.dll
 0002:00000004       __imp__CloseHandle@4       00433004     kernel32:KERNEL32.dll
 0002:00000008       __imp__TerminateThread@8   00433008     kernel32:KERNEL32.dll
 0002:0000000c       __imp__CreateEventA@16     0043300c     kernel32:KERNEL32.dll
 0002:00000010       __imp__SetEvent@4          00433010     kernel32:KERNEL32.dll
 0002:00000014       __imp__ResetEvent@4        00433014     kernel32:KERNEL32.dll
 0002:00000018       __imp__GetModuleFileNameA@12 00433018     kernel32:KERNEL32.dll
 0002:0000001c       __imp__CreateMutexA@12     0043301c     kernel32:KERNEL32.dll
 0002:00000020       __imp__ReleaseMutex@4      00433020     kernel32:KERNEL32.dll
 0002:00000024       __imp__InitializeCriticalSection@4 00433024     kernel32:KERNEL32.dll
 0002:00000028       __imp__DeleteCriticalSection@4 00433028     kernel32:KERNEL32.dll
 0002:0000002c       __imp__EnterCriticalSection@4 0043302c     kernel32:KERNEL32.dll
 0002:00000030       __imp__LeaveCriticalSection@4 00433030     kernel32:KERNEL32.dll
 0002:00000034       __imp__GetFileAttributesA@4 00433034     kernel32:KERNEL32.dll
 0002:00000038       __imp__WriteFile@20        00433038     kernel32:KERNEL32.dll
 0002:0000003c       __imp__GetLocalTime@4      0043303c     kernel32:KERNEL32.dll
 0002:00000040       __imp__GetFileSize@8       00433040     kernel32:KERNEL32.dll
 0002:00000044       __imp__CreateDirectoryA@8  00433044     kernel32:KERNEL32.dll
 0002:00000048       __imp__CreateFileA@28      00433048     kernel32:KERNEL32.dll
 0002:0000004c       __imp__FreeLibrary@4       0043304c     kernel32:KERNEL32.dll
 0002:00000050       __imp__GetProcAddress@8    00433050     kernel32:KERNEL32.dll
 0002:00000054       __imp__LoadLibraryA@4      00433054     kernel32:KERNEL32.dll
 0002:00000058       __imp__LocalFree@4         00433058     kernel32:KERNEL32.dll
 0002:0000005c       __imp__InterlockedDecrement@4 0043305c     kernel32:KERNEL32.dll
 0002:00000060       __imp__LocalAlloc@8        00433060     kernel32:KERNEL32.dll
 0002:00000064       __imp__FormatMessageA@28   00433064     kernel32:KERNEL32.dll
 0002:00000068       __imp__GetLastError@0      00433068     kernel32:KERNEL32.dll
 0002:0000006c       __imp__MultiByteToWideChar@24 0043306c     kernel32:KERNEL32.dll
 0002:00000070       __imp__lstrlenA@4          00433070     kernel32:KERNEL32.dll
 0002:00000074       __imp__Sleep@4             00433074     kernel32:KERNEL32.dll
 0002:00000078       __imp__GetTickCount@0      00433078     kernel32:KERNEL32.dll
 0002:0000007c       __imp__GetACP@0            0043307c     kernel32:KERNEL32.dll
 0002:00000080       __imp__GetCPInfo@8         00433080     kernel32:KERNEL32.dll
 0002:00000084       __imp__lstrlenW@4          00433084     kernel32:KERNEL32.dll
 0002:00000088       __imp__GetLocaleInfoW@16   00433088     kernel32:KERNEL32.dll
 0002:0000008c       __imp__SetEnvironmentVariableA@8 0043308c     kernel32:KERNEL32.dll
 0002:00000090       __imp__CompareStringW@24   00433090     kernel32:KERNEL32.dll
 0002:00000094       __imp__CompareStringA@24   00433094     kernel32:KERNEL32.dll
 0002:00000098       __imp__GetUserDefaultLCID@0 00433098     kernel32:KERNEL32.dll
 0002:0000009c       __imp__EnumSystemLocalesA@8 0043309c     kernel32:KERNEL32.dll
 0002:000000a0       __imp__GetLocaleInfoA@16   004330a0     kernel32:KERNEL32.dll
 0002:000000a4       __imp__IsValidCodePage@4   004330a4     kernel32:KERNEL32.dll
 0002:000000a8       __imp__IsValidLocale@8     004330a8     kernel32:KERNEL32.dll
 0002:000000ac       __imp__SetEndOfFile@4      004330ac     kernel32:KERNEL32.dll
 0002:000000b0       __imp__InterlockedIncrement@4 004330b0     kernel32:KERNEL32.dll
 0002:000000b4       __imp__GetStringTypeW@16   004330b4     kernel32:KERNEL32.dll
 0002:000000b8       __imp__GetStringTypeA@20   004330b8     kernel32:KERNEL32.dll
 0002:000000bc       __imp__LCMapStringW@24     004330bc     kernel32:KERNEL32.dll
 0002:000000c0       __imp__LCMapStringA@24     004330c0     kernel32:KERNEL32.dll
 0002:000000c4       __imp__IsBadCodePtr@4      004330c4     kernel32:KERNEL32.dll
 0002:000000c8       __imp__IsBadReadPtr@8      004330c8     kernel32:KERNEL32.dll
 0002:000000cc       __imp__FlushFileBuffers@4  004330cc     kernel32:KERNEL32.dll
 0002:000000d0       __imp__SetStdHandle@8      004330d0     kernel32:KERNEL32.dll
 0002:000000d4       __imp__SetConsoleCtrlHandler@8 004330d4     kernel32:KERNEL32.dll
 0002:000000d8       __imp__IsBadWritePtr@8     004330d8     kernel32:KERNEL32.dll
 0002:000000dc       __imp__VirtualAlloc@16     004330dc     kernel32:KERNEL32.dll
 0002:000000e0       __imp__VirtualFree@12      004330e0     kernel32:KERNEL32.dll
 0002:000000e4       __imp__HeapCreate@12       004330e4     kernel32:KERNEL32.dll
 0002:000000e8       __imp__HeapDestroy@4       004330e8     kernel32:KERNEL32.dll
 0002:000000ec       __imp__GetVersionExA@4     004330ec     kernel32:KERNEL32.dll
 0002:000000f0       __imp__GetEnvironmentVariableA@12 004330f0     kernel32:KERNEL32.dll
 0002:000000f4       __imp__GetEnvironmentStringsW@0 004330f4     kernel32:KERNEL32.dll
 0002:000000f8       __imp__GetEnvironmentStrings@0 004330f8     kernel32:KERNEL32.dll
 0002:000000fc       __imp__FatalAppExitA@8     004330fc     kernel32:KERNEL32.dll
 0002:00000100       __imp__GetCurrentThread@0  00433100     kernel32:KERNEL32.dll
 0002:00000104       __imp__SetLastError@4      00433104     kernel32:KERNEL32.dll
 0002:00000108       __imp__TlsFree@4           00433108     kernel32:KERNEL32.dll
 0002:0000010c       __imp__TlsAlloc@0          0043310c     kernel32:KERNEL32.dll
 0002:00000110       __imp__SetFilePointer@16   00433110     kernel32:KERNEL32.dll
 0002:00000114       __imp__FreeEnvironmentStringsW@4 00433114     kernel32:KERNEL32.dll
 0002:00000118       __imp__FreeEnvironmentStringsA@4 00433118     kernel32:KERNEL32.dll
 0002:0000011c       __imp__WideCharToMultiByte@32 0043311c     kernel32:KERNEL32.dll
 0002:00000120       __imp__HeapSize@12         00433120     kernel32:KERNEL32.dll
 0002:00000124       __imp__HeapReAlloc@16      00433124     kernel32:KERNEL32.dll
 0002:00000128       __imp__SetUnhandledExceptionFilter@4 00433128     kernel32:KERNEL32.dll
 0002:0000012c       __imp__GetFileType@4       0043312c     kernel32:KERNEL32.dll
 0002:00000130       __imp__UnhandledExceptionFilter@4 00433130     kernel32:KERNEL32.dll
 0002:00000134       __imp__GetCurrentProcess@0 00433134     kernel32:KERNEL32.dll
 0002:00000138       __imp__TerminateProcess@8  00433138     kernel32:KERNEL32.dll
 0002:0000013c       __imp__InterlockedExchange@8 0043313c     kernel32:KERNEL32.dll
 0002:00000140       __imp__OutputDebugStringA@4 00433140     kernel32:KERNEL32.dll
 0002:00000144       __imp__RtlUnwind@16        00433144     kernel32:KERNEL32.dll
 0002:00000148       __imp__CreateThread@24     00433148     kernel32:KERNEL32.dll
 0002:0000014c       __imp__GetCurrentThreadId@0 0043314c     kernel32:KERNEL32.dll
 0002:00000150       __imp__TlsSetValue@8       00433150     kernel32:KERNEL32.dll
 0002:00000154       __imp__TlsGetValue@4       00433154     kernel32:KERNEL32.dll
 0002:00000158       __imp__ExitThread@4        00433158     kernel32:KERNEL32.dll
 0002:0000015c       __imp__RaiseException@16   0043315c     kernel32:KERNEL32.dll
 0002:00000160       __imp__GetTimeZoneInformation@4 00433160     kernel32:KERNEL32.dll
 0002:00000164       __imp__GetSystemTime@4     00433164     kernel32:KERNEL32.dll
 0002:00000168       __imp__GetModuleHandleA@4  00433168     kernel32:KERNEL32.dll
 0002:0000016c       __imp__GetStartupInfoA@4   0043316c     kernel32:KERNEL32.dll
 0002:00000170       __imp__GetCommandLineA@0   00433170     kernel32:KERNEL32.dll
 0002:00000174       __imp__GetVersion@0        00433174     kernel32:KERNEL32.dll
 0002:00000178       __imp__ExitProcess@4       00433178     kernel32:KERNEL32.dll
 0002:0000017c       __imp__HeapAlloc@12        0043317c     kernel32:KERNEL32.dll
 0002:00000180       __imp__HeapFree@12         00433180     kernel32:KERNEL32.dll
 0002:00000184       __imp__ReadFile@20         00433184     kernel32:KERNEL32.dll
 0002:00000188       __imp__SetHandleCount@4    00433188     kernel32:KERNEL32.dll
 0002:0000018c       __imp__GetStdHandle@4      0043318c     kernel32:KERNEL32.dll
 0002:00000190       __imp__GetOEMCP@0          00433190     kernel32:KERNEL32.dll
 0002:00000194       \177KERNEL32_NULL_THUNK_DATA 00433194     kernel32:KERNEL32.dll
 0002:00000198       __imp__VariantChangeType@16 00433198     oleaut32:OLEAUT32.dll
 0002:0000019c       __imp__SysAllocString@4    0043319c     oleaut32:OLEAUT32.dll
 0002:000001a0       __imp__SysFreeString@4     004331a0     oleaut32:OLEAUT32.dll
 0002:000001a4       __imp__VariantInit@4       004331a4     oleaut32:OLEAUT32.dll
 0002:000001a8       __imp__VariantClear@4      004331a8     oleaut32:OLEAUT32.dll
 0002:000001ac       __imp__GetErrorInfo@8      004331ac     oleaut32:OLEAUT32.dll
 0002:000001b0       __imp__SetErrorInfo@8      004331b0     oleaut32:OLEAUT32.dll
 0002:000001b4       __imp__CreateErrorInfo@4   004331b4     oleaut32:OLEAUT32.dll
 0002:000001b8       \177OLEAUT32_NULL_THUNK_DATA 004331b8     oleaut32:OLEAUT32.dll
 0002:000001bc       __imp__KillTimer@8         004331bc     user32:USER32.dll
 0002:000001c0       __imp__SendMessageA@16     004331c0     user32:USER32.dll
 0002:000001c4       __imp__SetTimer@16         004331c4     user32:USER32.dll
 0002:000001c8       __imp__UpdateWindow@4      004331c8     user32:USER32.dll
 0002:000001cc       __imp__ShowWindow@8        004331cc     user32:USER32.dll
 0002:000001d0       __imp__GetClientRect@8     004331d0     user32:USER32.dll
 0002:000001d4       __imp__CreateWindowExA@48  004331d4     user32:USER32.dll
 0002:000001d8       __imp__EndDialog@8         004331d8     user32:USER32.dll
 0002:000001dc       __imp__DialogBoxParamA@20  004331dc     user32:USER32.dll
 0002:000001e0       __imp__DispatchMessageA@4  004331e0     user32:USER32.dll
 0002:000001e4       __imp__TranslateMessage@4  004331e4     user32:USER32.dll
 0002:000001e8       __imp__GetMessageA@16      004331e8     user32:USER32.dll
 0002:000001ec       __imp__LoadStringA@16      004331ec     user32:USER32.dll
 0002:000001f0       __imp__MessageBoxA@16      004331f0     user32:USER32.dll
 0002:000001f4       __imp__RegisterClassExA@4  004331f4     user32:USER32.dll
 0002:000001f8       __imp__LoadCursorA@8       004331f8     user32:USER32.dll
 0002:000001fc       __imp__wsprintfA           004331fc     user32:USER32.dll
 0002:00000200       __imp__BeginPaint@8        00433200     user32:USER32.dll
 0002:00000204       __imp__EndPaint@8          00433204     user32:USER32.dll
 0002:00000208       __imp__MoveWindow@24       00433208     user32:USER32.dll
 0002:0000020c       __imp__DefWindowProcA@16   0043320c     user32:USER32.dll
 0002:00000210       __imp__PostQuitMessage@4   00433210     user32:USER32.dll
 0002:00000214       __imp__DestroyWindow@4     00433214     user32:USER32.dll
 0002:00000218       __imp__LoadIconA@8         00433218     user32:USER32.dll
 0002:0000021c       \177USER32_NULL_THUNK_DATA 0043321c     user32:USER32.dll
 0002:00000220       __imp__WSACleanup@0        00433220     Ws2_32:WS2_32.dll
 0002:00000224       __imp__closesocket@4       00433224     Ws2_32:WS2_32.dll
 0002:00000228       __imp__bind@12             00433228     Ws2_32:WS2_32.dll
 0002:0000022c       __imp__htonl@4             0043322c     Ws2_32:WS2_32.dll
 0002:00000230       __imp__htons@4             00433230     Ws2_32:WS2_32.dll
 0002:00000234       __imp__socket@12           00433234     Ws2_32:WS2_32.dll
 0002:00000238       __imp__inet_addr@4         00433238     Ws2_32:WS2_32.dll
 0002:0000023c       __imp__inet_ntoa@4         0043323c     Ws2_32:WS2_32.dll
 0002:00000240       __imp__WSAStartup@8        00433240     Ws2_32:WS2_32.dll
 0002:00000244       \177WS2_32_NULL_THUNK_DATA 00433244     Ws2_32:WS2_32.dll
 0002:00000248       __imp__OleRun@4            00433248     ole32:ole32.dll
 0002:0000024c       __imp__CoCreateInstance@20 0043324c     ole32:ole32.dll
 0002:00000250       __imp__CLSIDFromProgID@8   00433250     ole32:ole32.dll
 0002:00000254       __imp__CLSIDFromString@8   00433254     ole32:ole32.dll
 0002:00000258       __imp__CoUninitialize@0    00433258     ole32:ole32.dll
 0002:0000025c       __imp__CoInitializeEx@8    0043325c     ole32:ole32.dll
 0002:00000260       \177ole32_NULL_THUNK_DATA  00433260     ole32:ole32.dll
 0002:000002b0       ??_7KThread@@6B@           004332b0     KThread.obj
 0002:000002c0       ??_7K_CS@@6B@              004332c0     KThread.obj
 0002:000002d0       ??_7CLogFile@@6B@          004332d0     LogFile.obj
 0002:000002d8       _IID_IIOCPServer           004332d8     main.obj
 0002:000002e8       _IID_IServerFactory        004332e8     main.obj
 0002:000002f8       _LIBID_ADO20               004332f8     main.obj
 0002:00000308       _LIBID_ADOR20              00433308     main.obj
 0002:00000318       _IID_IADOError             00433318     main.obj
 0002:00000328       _IID_IADOErrors            00433328     main.obj
 0002:00000338       _IID_IADOProperty          00433338     main.obj
 0002:00000348       _IID_IADOProperties        00433348     main.obj
 0002:00000358       _CLSID_CADOField           00433358     main.obj
 0002:00000368       _IID_IADOField15           00433368     main.obj
 0002:00000378       _IID_IADOField             00433378     main.obj
 0002:00000388       _IID_IADOFields15          00433388     main.obj
 0002:00000398       _IID_IADOFields            00433398     main.obj
 0002:000003a8       _CLSID_CADOCommand         004333a8     main.obj
 0002:000003b8       _IID_IADOCommand15         004333b8     main.obj
 0002:000003c8       _IID_IADOCommand           004333c8     main.obj
 0002:000003d8       _IID_IADOCommands          004333d8     main.obj
 0002:000003e8       _CLSID_CADOParameter       004333e8     main.obj
 0002:000003f8       _IID_IADOParameter         004333f8     main.obj
 0002:00000408       _IID_IADOParameters        00433408     main.obj
 0002:00000418       _CLSID_CADORecordset       00433418     main.obj
 0002:00000428       _IID_IADORecordset15       00433428     main.obj
 0002:00000438       _IID_IADORecordset         00433438     main.obj
 0002:00000448       _IID_IADORecordsets        00433448     main.obj
 0002:00000458       _IID_IADORecordsetConstruction 00433458     main.obj
 0002:00000468       _IID_IADOCollection        00433468     main.obj
 0002:00000478       _IID_IADODynaCollection    00433478     main.obj
 0002:00000488       _CLSID_CADOConnection      00433488     main.obj
 0002:00000498       _IID_IADOConnection15      00433498     main.obj
 0002:000004a8       _IID_IADOConnection        004334a8     main.obj
 0002:000004b8       _IID_IADOConnectionConstruction15 004334b8     main.obj
 0002:000004c8       _IID_IADOConnectionConstruction 004334c8     main.obj
 0002:000004d8       _IID_IADOConnections       004334d8     main.obj
 0002:000004e8       _IID_IADORecordsetEvents   004334e8     main.obj
 0002:000004f8       _IID_IADOConnectionEvents  004334f8     main.obj
 0002:00000508       _IID_IADORecordsetEventsVt 00433508     main.obj
 0002:00000518       _IID_IADOConnectionEventsVt 00433518     main.obj
 0002:00000538       ??_7S3PAccount@@6B@        00433538     S3PAccount.obj
 0002:0000053c       ??_7S3PDB_MSSQLServer_Connection@@6B@ 0043353c     S3PDB_MSSQLServer_Connection.obj
 0002:00000550       ??_7S3P_MSSQLServer_Result@@6B@ 00433550     S3PDB_MSSQLServer_Connection.obj
 0002:00000568       ??_7S3PDBConnectionPool@@6B@ 00433568     S3PDBConnectionPool.obj
 0002:0000056c       ??_7S3PDBConVBC@@6B@       0043356c     S3PDBConVBC.obj
 0002:00000580       ??_7S3PDBSocketPool@@6B@   00433580     S3PDBSocketPool.obj
 0002:0000058c       ??_7KGatewayDataProcess@@6BK_CS@@@ 0043358c     S3PDBSocketPool.obj
 0002:00000590       ??_7KGatewayDataProcess@@6BKThread@@@ 00433590     S3PDBSocketPool.obj
 0002:000005a4       ??_7KThread_CS@@6BK_CS@@@  004335a4     S3PDBSocketPool.obj
 0002:000005a8       ??_7KThread_CS@@6BKThread@@@ 004335a8     S3PDBSocketPool.obj
 0002:000005b8       ??_7S3PResultVBC@@6B@      004335b8     S3PResultVBC.obj
 0002:000005d4       ??_7range_error@_STL@@6B@  004335d4     stlport_vc6_static:dll_main.obj
 0002:000005e0       ??_7runtime_error@_STL@@6B@ 004335e0     stlport_vc6_static:dll_main.obj
 0002:000005ec       ??_7__Named_exception@_STL@@6B@ 004335ec     stlport_vc6_static:dll_main.obj
 0002:000005f8       ??_7out_of_range@_STL@@6B@ 004335f8     stlport_vc6_static:dll_main.obj
 0002:00000604       ??_7logic_error@_STL@@6B@  00433604     stlport_vc6_static:dll_main.obj
 0002:00000610       ??_7length_error@_STL@@6B@ 00433610     stlport_vc6_static:dll_main.obj
 0002:0000061c       ??_7invalid_argument@_STL@@6B@ 0043361c     stlport_vc6_static:dll_main.obj
 0002:00000628       ??_7overflow_error@_STL@@6B@ 00433628     stlport_vc6_static:dll_main.obj
 0002:00000634       ??_7domain_error@_STL@@6B@ 00433634     stlport_vc6_static:dll_main.obj
 0002:00000640       ??_7underflow_error@_STL@@6B@ 00433640     stlport_vc6_static:dll_main.obj
 0002:0000064c       ??_7bad_alloc@std@@6B@     0043364c     stlport_vc6_static:dll_main.obj
 0002:0000068c       ??_7type_info@@6B@         0043368c     LIBCMT:typinfo.obj
 0002:000006a0       ??_7exception@@6B@         004336a0     LIBCMT:stdexcpt.obj
 0002:000006a8       ??_C@_0BC@OIDF@Unknown?5exception?$AA@ 004336a8     LIBCMT:stdexcpt.obj
 0002:00000780       ___lookuptable             00433780     LIBCMT:output.obj
 0002:000007dc       ??_C@_1O@POHA@?$AA?$CI?$AAn?$AAu?$AAl?$AAl?$AA?$CJ?$AA?$AA@ 004337dc     LIBCMT:output.obj
 0002:000007ec       ??_C@_06ONKE@?$CInull?$CJ?$AA@ 004337ec     LIBCMT:output.obj
 0002:00000828       ___dnames                  00433828     LIBCMT:timeset.obj
 0002:00000840       ___mnames                  00433840     LIBCMT:timeset.obj
 0002:00000868       ??_C@_02JHIA@TZ?$AA@       00433868     LIBCMT:tzset.obj
 0002:0000086c       ??_C@_0BH@PHHF@__GLOBAL_HEAP_SELECTED?$AA@ 0043386c     LIBCMT:heapinit.obj
 0002:00000884       ??_C@_0BF@BBGL@__MSVCRT_HEAP_SELECT?$AA@ 00433884     LIBCMT:heapinit.obj
 0002:0000089c       ??_C@_0P@GGKG@runtime?5error?5?$AA@ 0043389c     LIBCMT:crt0msg.obj
 0002:000008ac       ??_C@_0O@DELO@TLOSS?5error?$AN?6?$AA@ 004338ac     LIBCMT:crt0msg.obj
 0002:000008bc       ??_C@_0N@OMLL@SING?5error?$AN?6?$AA@ 004338bc     LIBCMT:crt0msg.obj
 0002:000008cc       ??_C@_0P@OJAK@DOMAIN?5error?$AN?6?$AA@ 004338cc     LIBCMT:crt0msg.obj
 0002:000008dc       ??_C@_0CF@EANP@R6028?$AN?6?9?5unable?5to?5initialize?5he@ 004338dc     LIBCMT:crt0msg.obj
 0002:00000904       ??_C@_0DF@ECGN@R6027?$AN?6?9?5not?5enough?5space?5for?5lo@ 00433904     LIBCMT:crt0msg.obj
 0002:0000093c       ??_C@_0DF@FKAC@R6026?$AN?6?9?5not?5enough?5space?5for?5st@ 0043393c     LIBCMT:crt0msg.obj
 0002:00000974       ??_C@_0CG@DPMN@R6025?$AN?6?9?5pure?5virtual?5function?5c@ 00433974     LIBCMT:crt0msg.obj
 0002:0000099c       ??_C@_0DF@CKIP@R6024?$AN?6?9?5not?5enough?5space?5for?5_o@ 0043399c     LIBCMT:crt0msg.obj
 0002:000009d4       ??_C@_0CJ@GGOE@R6019?$AN?6?9?5unable?5to?5open?5console?5@ 004339d4     LIBCMT:crt0msg.obj
 0002:00000a00       ??_C@_0CB@LBOB@R6018?$AN?6?9?5unexpected?5heap?5error?$AN?6@ 00433a00     LIBCMT:crt0msg.obj
 0002:00000a24       ??_C@_0CN@FPEG@R6017?$AN?6?9?5unexpected?5multithread?5@ 00433a24     LIBCMT:crt0msg.obj
 0002:00000a54       ??_C@_0CM@OBIC@R6016?$AN?6?9?5not?5enough?5space?5for?5th@ 00433a54     LIBCMT:crt0msg.obj
 0002:00000a80       ??_C@_0CB@HPAL@?$AN?6abnormal?5program?5termination?$AN?6@ 00433a80     LIBCMT:crt0msg.obj
 0002:00000aa4       ??_C@_0CM@JOOB@R6009?$AN?6?9?5not?5enough?5space?5for?5en@ 00433aa4     LIBCMT:crt0msg.obj
 0002:00000ad0       ??_C@_0CK@OIBL@R6008?$AN?6?9?5not?5enough?5space?5for?5ar@ 00433ad0     LIBCMT:crt0msg.obj
 0002:00000afc       ??_C@_0CF@LKPB@R6002?$AN?6?9?5floating?5point?5not?5load@ 00433afc     LIBCMT:crt0msg.obj
 0002:00000b24       ??_C@_0CF@JPDF@Microsoft?5Visual?5C?$CL?$CL?5Runtime?5Lib@ 00433b24     LIBCMT:crt0msg.obj
 0002:00000b4c       ??_C@_02JJJH@?6?6?$AA@     00433b4c     LIBCMT:crt0msg.obj
 0002:00000b50       ??_C@_0BK@DEOK@Runtime?5Error?$CB?6?6Program?3?5?$AA@ 00433b50     LIBCMT:crt0msg.obj
 0002:00000b6c       ??_C@_03NAME@?4?4?4?$AA@   00433b6c     LIBCMT:crt0msg.obj
 0002:00000b70       ??_C@_0BH@NNCD@?$DMprogram?5name?5unknown?$DO?$AA@ 00433b70     LIBCMT:crt0msg.obj
 0002:00000b88       ??_C@_01A@?$AA?$AA@        00433b88     LIBCMT:a_map.obj
 0002:00000b8c       ??_C@_13A@?$AA?$AA?$AA?$AA@ 00433b8c     LIBCMT:a_map.obj
 0002:00000bb4       ??_C@_0BD@NJFP@GetLastActivePopup?$AA@ 00433bb4     LIBCMT:crtmbox.obj
 0002:00000bc8       ??_C@_0BA@GILI@GetActiveWindow?$AA@ 00433bc8     LIBCMT:crtmbox.obj
 0002:00000bd8       ??_C@_0M@PKCK@MessageBoxA?$AA@ 00433bd8     LIBCMT:crtmbox.obj
 0002:00000be4       ??_C@_0L@HKL@user32?4dll?$AA@ 00433be4     LIBCMT:crtmbox.obj
 0002:00000bf0       ??_C@_07PCLE@LC_TIME?$AA@  00433bf0     LIBCMT:setlocal.obj
 0002:00000bf8       ??_C@_0L@NKG@LC_NUMERIC?$AA@ 00433bf8     LIBCMT:setlocal.obj
 0002:00000c04       ??_C@_0M@CBIH@LC_MONETARY?$AA@ 00433c04     LIBCMT:setlocal.obj
 0002:00000c10       ??_C@_08LFGE@LC_CTYPE?$AA@ 00433c10     LIBCMT:setlocal.obj
 0002:00000c1c       ??_C@_0L@CFLC@LC_COLLATE?$AA@ 00433c1c     LIBCMT:setlocal.obj
 0002:00000c28       ??_C@_06GCPK@LC_ALL?$AA@   00433c28     LIBCMT:setlocal.obj
 0002:00000c30       ??_C@_02BGDO@?$DN?$DL?$AA@ 00433c30     LIBCMT:setlocal.obj
 0002:00000c34       ??_C@_01KPOD@?$DN?$AA@     00433c34     LIBCMT:setlocal.obj
 0002:00000c38       ??_C@_03DBOJ@_?4?0?$AA@    00433c38     LIBCMT:setlocal.obj
 0002:00000c3c       ??_C@_01PJCK@?4?$AA@       00433c3c     LIBCMT:setlocal.obj
 0002:00000c40       ??_C@_01NON@_?$AA@         00433c40     LIBCMT:setlocal.obj
 0002:00000c44       ??_C@_08OBJD@Paraguay?$AA@ 00433c44     LIBCMT:getqloc.obj
 0002:00000c50       ??_C@_07GLKH@Uruguay?$AA@  00433c50     LIBCMT:getqloc.obj
 0002:00000c58       ??_C@_05FPFC@Chile?$AA@    00433c58     LIBCMT:getqloc.obj
 0002:00000c60       ??_C@_07IIGF@Ecuador?$AA@  00433c60     LIBCMT:getqloc.obj
 0002:00000c68       ??_C@_09PKAL@Argentina?$AA@ 00433c68     LIBCMT:getqloc.obj
 0002:00000c74       ??_C@_04LKAH@Peru?$AA@     00433c74     LIBCMT:getqloc.obj
 0002:00000c7c       ??_C@_08NEEM@Colombia?$AA@ 00433c7c     LIBCMT:getqloc.obj
 0002:00000c88       ??_C@_09ODEB@Venezuela?$AA@ 00433c88     LIBCMT:getqloc.obj
 0002:00000c94       ??_C@_0BD@CLEL@Dominican?5Republic?$AA@ 00433c94     LIBCMT:getqloc.obj
 0002:00000ca8       ??_C@_0N@MDGL@South?5Africa?$AA@ 00433ca8     LIBCMT:getqloc.obj
 0002:00000cb8       ??_C@_06NKBG@Panama?$AA@   00433cb8     LIBCMT:getqloc.obj
 0002:00000cc0       ??_C@_0L@BMHO@Luxembourg?$AA@ 00433cc0     LIBCMT:getqloc.obj
 0002:00000ccc       ??_C@_0L@IMDK@Costa?5Rica?$AA@ 00433ccc     LIBCMT:getqloc.obj
 0002:00000cd8       ??_C@_0M@BLJF@Switzerland?$AA@ 00433cd8     LIBCMT:getqloc.obj
 0002:00000ce4       ??_C@_09KBOL@Guatemala?$AA@ 00433ce4     LIBCMT:getqloc.obj
 0002:00000cf0       ??_C@_06JNAK@Canada?$AA@   00433cf0     LIBCMT:getqloc.obj
 0002:00000cf8       ??_C@_0BG@OLLP@Spanish?5?9?5Modern?5Sort?$AA@ 00433cf8     LIBCMT:getqloc.obj
 0002:00000d10       ??_C@_09IDKE@Australia?$AA@ 00433d10     LIBCMT:getqloc.obj
 0002:00000d1c       ??_C@_07JJJJ@English?$AA@  00433d1c     LIBCMT:getqloc.obj
 0002:00000d24       ??_C@_07NMDO@Austria?$AA@  00433d24     LIBCMT:getqloc.obj
 0002:00000d2c       ??_C@_06DEFE@German?$AA@   00433d2c     LIBCMT:getqloc.obj
 0002:00000d34       ??_C@_07JAIH@Belgium?$AA@  00433d34     LIBCMT:getqloc.obj
 0002:00000d3c       ??_C@_06BNLJ@Mexico?$AA@   00433d3c     LIBCMT:getqloc.obj
 0002:00000d44       ??_C@_07JHAG@Spanish?$AA@  00433d44     LIBCMT:getqloc.obj
 0002:00000d4c       ??_C@_06DADE@Basque?$AA@   00433d4c     LIBCMT:getqloc.obj
 0002:00000d54       ??_C@_06ENFP@Sweden?$AA@   00433d54     LIBCMT:getqloc.obj
 0002:00000d5c       ??_C@_07JPMH@Swedish?$AA@  00433d5c     LIBCMT:getqloc.obj
 0002:00000d64       ??_C@_07IEKF@Iceland?$AA@  00433d64     LIBCMT:getqloc.obj
 0002:00000d6c       ??_C@_09KNEA@Icelandic?$AA@ 00433d6c     LIBCMT:getqloc.obj
 0002:00000d78       ??_C@_06IJOD@France?$AA@   00433d78     LIBCMT:getqloc.obj
 0002:00000d80       ??_C@_06EINI@French?$AA@   00433d80     LIBCMT:getqloc.obj
 0002:00000d88       ??_C@_07FOOE@Finland?$AA@  00433d88     LIBCMT:getqloc.obj
 0002:00000d90       ??_C@_07OJOM@Finnish?$AA@  00433d90     LIBCMT:getqloc.obj
 0002:00000d98       ??_C@_05FFAC@Spain?$AA@    00433d98     LIBCMT:getqloc.obj
 0002:00000da0       ??_C@_0BL@BIHM@Spanish?5?9?5Traditional?5Sort?$AA@ 00433da0     LIBCMT:getqloc.obj
 0002:00000dbc       ??_C@_0O@GLHB@united?9states?$AA@ 00433dbc     LIBCMT:getqloc.obj
 0002:00000dcc       ??_C@_0P@IIKK@united?9kingdom?$AA@ 00433dcc     LIBCMT:getqloc.obj
 0002:00000ddc       ??_C@_0BC@FHBO@trinidad?5?$CG?5tobago?$AA@ 00433ddc     LIBCMT:getqloc.obj
 0002:00000df0       ??_C@_0M@BDFM@south?9korea?$AA@ 00433df0     LIBCMT:getqloc.obj
 0002:00000dfc       ??_C@_0N@CKFA@south?9africa?$AA@ 00433dfc     LIBCMT:getqloc.obj
 0002:00000e0c       ??_C@_0M@HNHN@south?5korea?$AA@ 00433e0c     LIBCMT:getqloc.obj
 0002:00000e18       ??_C@_0N@MKDO@south?5africa?$AA@ 00433e18     LIBCMT:getqloc.obj
 0002:00000e28       ??_C@_06KFFJ@slovak?$AA@   00433e28     LIBCMT:getqloc.obj
 0002:00000e30       ??_C@_0M@NMAC@puerto?9rico?$AA@ 00433e30     LIBCMT:getqloc.obj
 0002:00000e3c       ??_C@_08EJOH@pr?9china?$AA@ 00433e3c     LIBCMT:getqloc.obj
 0002:00000e48       ??_C@_08CHMG@pr?5china?$AA@ 00433e48     LIBCMT:getqloc.obj
 0002:00000e54       ??_C@_02OCJK@nz?$AA@       00433e54     LIBCMT:getqloc.obj
 0002:00000e58       ??_C@_0M@MMKA@new?9zealand?$AA@ 00433e58     LIBCMT:getqloc.obj
 0002:00000e64       ??_C@_09MGEH@hong?9kong?$AA@ 00433e64     LIBCMT:getqloc.obj
 0002:00000e70       ??_C@_07CCAK@holland?$AA@  00433e70     LIBCMT:getqloc.obj
 0002:00000e78       ??_C@_0O@MEPL@great?5britain?$AA@ 00433e78     LIBCMT:getqloc.obj
 0002:00000e88       ??_C@_07LGIB@england?$AA@  00433e88     LIBCMT:getqloc.obj
 0002:00000e90       ??_C@_05BMOA@czech?$AA@    00433e90     LIBCMT:getqloc.obj
 0002:00000e98       ??_C@_05NMPB@china?$AA@    00433e98     LIBCMT:getqloc.obj
 0002:00000ea0       ??_C@_07GN@britain?$AA@    00433ea0     LIBCMT:getqloc.obj
 0002:00000ea8       ??_C@_07DLAK@america?$AA@  00433ea8     LIBCMT:getqloc.obj
 0002:00000eb0       ??_C@_03IPEP@usa?$AA@      00433eb0     LIBCMT:getqloc.obj
 0002:00000eb4       ??_C@_02PILH@us?$AA@       00433eb4     LIBCMT:getqloc.obj
 0002:00000eb8       ??_C@_02FHP@uk?$AA@        00433eb8     LIBCMT:getqloc.obj
 0002:00000ebc       ??_C@_05DEAI@swiss?$AA@    00433ebc     LIBCMT:getqloc.obj
 0002:00000ec4       ??_C@_0BA@LIAF@swedish?9finland?$AA@ 00433ec4     LIBCMT:getqloc.obj
 0002:00000ed4       ??_C@_0BC@FMEG@spanish?9venezuela?$AA@ 00433ed4     LIBCMT:getqloc.obj
 0002:00000ee8       ??_C@_0BA@BNMG@spanish?9uruguay?$AA@ 00433ee8     LIBCMT:getqloc.obj
 0002:00000ef8       ??_C@_0BE@BKDJ@spanish?9puerto?5rico?$AA@ 00433ef8     LIBCMT:getqloc.obj
 0002:00000f0c       ??_C@_0N@JIBL@spanish?9peru?$AA@ 00433f0c     LIBCMT:getqloc.obj
 0002:00000f1c       ??_C@_0BB@OGOF@spanish?9paraguay?$AA@ 00433f1c     LIBCMT:getqloc.obj
 0002:00000f30       ??_C@_0P@LLFA@spanish?9panama?$AA@ 00433f30     LIBCMT:getqloc.obj
 0002:00000f40       ??_C@_0BC@BBJM@spanish?9nicaragua?$AA@ 00433f40     LIBCMT:getqloc.obj
 0002:00000f54       ??_C@_0P@NJBN@spanish?9modern?$AA@ 00433f54     LIBCMT:getqloc.obj
 0002:00000f64       ??_C@_0BA@NHDN@spanish?9mexican?$AA@ 00433f64     LIBCMT:getqloc.obj
 0002:00000f74       ??_C@_0BB@JHOJ@spanish?9honduras?$AA@ 00433f74     LIBCMT:getqloc.obj
 0002:00000f88       ??_C@_0BC@BOOM@spanish?9guatemala?$AA@ 00433f88     LIBCMT:getqloc.obj
 0002:00000f9c       ??_C@_0BE@EELI@spanish?9el?5salvador?$AA@ 00433f9c     LIBCMT:getqloc.obj
 0002:00000fb0       ??_C@_0BA@POAE@spanish?9ecuador?$AA@ 00433fb0     LIBCMT:getqloc.obj
 0002:00000fc0       ??_C@_0BL@LDKN@spanish?9dominican?5republic?$AA@ 00433fc0     LIBCMT:getqloc.obj
 0002:00000fdc       ??_C@_0BD@HPMH@spanish?9costa?5rica?$AA@ 00433fdc     LIBCMT:getqloc.obj
 0002:00000ff0       ??_C@_0BB@NDDK@spanish?9colombia?$AA@ 00433ff0     LIBCMT:getqloc.obj
 0002:00001004       ??_C@_0O@BJHA@spanish?9chile?$AA@ 00434004     LIBCMT:getqloc.obj
 0002:00001014       ??_C@_0BA@OBNG@spanish?9bolivia?$AA@ 00434014     LIBCMT:getqloc.obj
 0002:00001024       ??_C@_0BC@EFAM@spanish?9argentina?$AA@ 00434024     LIBCMT:getqloc.obj
 0002:00001038       ??_C@_0BF@KMMM@portuguese?9brazilian?$AA@ 00434038     LIBCMT:getqloc.obj
 0002:00001050       ??_C@_0BC@BAAE@norwegian?9nynorsk?$AA@ 00434050     LIBCMT:getqloc.obj
 0002:00001064       ??_C@_0BB@PBHK@norwegian?9bokmal?$AA@ 00434064     LIBCMT:getqloc.obj
 0002:00001078       ??_C@_09EHKL@norwegian?$AA@ 00434078     LIBCMT:getqloc.obj
 0002:00001084       ??_C@_0O@BEAN@italian?9swiss?$AA@ 00434084     LIBCMT:getqloc.obj
 0002:00001094       ??_C@_0O@OIFK@irish?9english?$AA@ 00434094     LIBCMT:getqloc.obj
 0002:000010a4       ??_C@_0N@NBPL@german?9swiss?$AA@ 004340a4     LIBCMT:getqloc.obj
 0002:000010b4       ??_C@_0BC@ICFJ@german?9luxembourg?$AA@ 004340b4     LIBCMT:getqloc.obj
 0002:000010c8       ??_C@_0BE@GGPC@german?9lichtenstein?$AA@ 004340c8     LIBCMT:getqloc.obj
 0002:000010dc       ??_C@_0BA@MKDC@german?9austrian?$AA@ 004340dc     LIBCMT:getqloc.obj
 0002:000010ec       ??_C@_0N@ODNB@french?9swiss?$AA@ 004340ec     LIBCMT:getqloc.obj
 0002:000010fc       ??_C@_0BC@MGCM@french?9luxembourg?$AA@ 004340fc     LIBCMT:getqloc.obj
 0002:00001110       ??_C@_0BA@NABK@french?9canadian?$AA@ 00434110     LIBCMT:getqloc.obj
 0002:00001120       ??_C@_0P@CJNO@french?9belgian?$AA@ 00434120     LIBCMT:getqloc.obj
 0002:00001130       ??_C@_0M@LJOL@english?9usa?$AA@ 00434130     LIBCMT:getqloc.obj
 0002:0000113c       ??_C@_0L@FMNC@english?9us?$AA@ 0043413c     LIBCMT:getqloc.obj
 0002:00001148       ??_C@_0L@KBBK@english?9uk?$AA@ 00434148     LIBCMT:getqloc.obj
 0002:00001154       ??_C@_0BK@NDDE@english?9trinidad?5y?5tobago?$AA@ 00434154     LIBCMT:getqloc.obj
 0002:00001170       ??_C@_0BF@LKML@english?9south?5africa?$AA@ 00434170     LIBCMT:getqloc.obj
 0002:00001188       ??_C@_0L@EGPP@english?9nz?$AA@ 00434188     LIBCMT:getqloc.obj
 0002:00001194       ??_C@_0BA@HLH@english?9jamaica?$AA@ 00434194     LIBCMT:getqloc.obj
 0002:000011a4       ??_C@_0M@PMJI@english?9ire?$AA@ 004341a4     LIBCMT:getqloc.obj
 0002:000011b0       ??_C@_0BC@HINE@english?9caribbean?$AA@ 004341b0     LIBCMT:getqloc.obj
 0002:000011c4       ??_C@_0M@DCFH@english?9can?$AA@ 004341c4     LIBCMT:getqloc.obj
 0002:000011d0       ??_C@_0P@DGHK@english?9belize?$AA@ 004341d0     LIBCMT:getqloc.obj
 0002:000011e0       ??_C@_0M@FLHK@english?9aus?$AA@ 004341e0     LIBCMT:getqloc.obj
 0002:000011ec       ??_C@_0BB@HNCK@english?9american?$AA@ 004341ec     LIBCMT:getqloc.obj
 0002:00001200       ??_C@_0O@PAMI@dutch?9belgian?$AA@ 00434200     LIBCMT:getqloc.obj
 0002:00001210       ??_C@_0BE@FPEJ@chinese?9traditional?$AA@ 00434210     LIBCMT:getqloc.obj
 0002:00001224       ??_C@_0BC@CHFL@chinese?9singapore?$AA@ 00434224     LIBCMT:getqloc.obj
 0002:00001238       ??_C@_0BD@DCMH@chinese?9simplified?$AA@ 00434238     LIBCMT:getqloc.obj
 0002:0000124c       ??_C@_0BB@JMOE@chinese?9hongkong?$AA@ 0043424c     LIBCMT:getqloc.obj
 0002:00001260       ??_C@_07NGFN@chinese?$AA@  00434260     LIBCMT:getqloc.obj
 0002:00001268       ??_C@_03PCOI@chi?$AA@      00434268     LIBCMT:getqloc.obj
 0002:0000126c       ??_C@_03FIHP@chh?$AA@      0043426c     LIBCMT:getqloc.obj
 0002:00001270       ??_C@_08HFLO@canadian?$AA@ 00434270     LIBCMT:getqloc.obj
 0002:0000127c       ??_C@_07INIJ@belgian?$AA@  0043427c     LIBCMT:getqloc.obj
 0002:00001284       ??_C@_0L@LCCA@australian?$AA@ 00434284     LIBCMT:getqloc.obj
 0002:00001290       ??_C@_0BB@BJIO@american?9english?$AA@ 00434290     LIBCMT:getqloc.obj
 0002:000012a4       ??_C@_0BB@DAGO@american?5english?$AA@ 004342a4     LIBCMT:getqloc.obj
 0002:000012b8       ??_C@_08HENB@american?$AA@ 004342b8     LIBCMT:getqloc.obj
 0002:000012c4       ??_C@_03DGJE@OCP?$AA@      004342c4     LIBCMT:getqloc.obj
 0002:000012c8       ??_C@_03EKFG@ACP?$AA@      004342c8     LIBCMT:getqloc.obj
 0002:000012e8       ??_C@_07CJME@H?3mm?3ss?$AA@ 004342e8     LIBCMT:strftime.obj
 0002:000012f0       ??_C@_0BE@MHI@dddd?0?5MMMM?5dd?0?5yyyy?$AA@ 004342f0     LIBCMT:strftime.obj
 0002:00001304       ??_C@_06HCAD@M?1d?1yy?$AA@ 00434304     LIBCMT:strftime.obj
 0002:0000130c       ??_C@_02DBLP@PM?$AA@       0043430c     LIBCMT:strftime.obj
 0002:00001310       ??_C@_02ENLM@AM?$AA@       00434310     LIBCMT:strftime.obj
 0002:00001314       ??_C@_08LIDF@December?$AA@ 00434314     LIBCMT:strftime.obj
 0002:00001320       ??_C@_08NJLI@November?$AA@ 00434320     LIBCMT:strftime.obj
 0002:0000132c       ??_C@_07IAMM@October?$AA@  0043432c     LIBCMT:strftime.obj
 0002:00001334       ??_C@_09MKGD@September?$AA@ 00434334     LIBCMT:strftime.obj
 0002:00001340       ??_C@_06PADP@August?$AA@   00434340     LIBCMT:strftime.obj
 0002:00001348       ??_C@_04PIJO@July?$AA@     00434348     LIBCMT:strftime.obj
 0002:00001350       ??_C@_04ICFP@June?$AA@     00434350     LIBCMT:strftime.obj
 0002:00001358       ??_C@_05JFGC@April?$AA@    00434358     LIBCMT:strftime.obj
 0002:00001360       ??_C@_05FGPD@March?$AA@    00434360     LIBCMT:strftime.obj
 0002:00001368       ??_C@_08PGBA@February?$AA@ 00434368     LIBCMT:strftime.obj
 0002:00001374       ??_C@_07BPKJ@January?$AA@  00434374     LIBCMT:strftime.obj
 0002:0000137c       ??_C@_03PGJO@Dec?$AA@      0043437c     LIBCMT:strftime.obj
 0002:00001380       ??_C@_03PDLM@Nov?$AA@      00434380     LIBCMT:strftime.obj
 0002:00001384       ??_C@_03BLHK@Oct?$AA@      00434384     LIBCMT:strftime.obj
 0002:00001388       ??_C@_03DPFM@Sep?$AA@      00434388     LIBCMT:strftime.obj
 0002:0000138c       ??_C@_03CMCH@Aug?$AA@      0043438c     LIBCMT:strftime.obj
 0002:00001390       ??_C@_03OBKI@Jul?$AA@      00434390     LIBCMT:strftime.obj
 0002:00001394       ??_C@_03LEIG@Jun?$AA@      00434394     LIBCMT:strftime.obj
 0002:00001398       ??_C@_03MGHB@May?$AA@      00434398     LIBCMT:strftime.obj
 0002:0000139c       ??_C@_03MJJM@Apr?$AA@      0043439c     LIBCMT:strftime.obj
 0002:000013a0       ??_C@_03GNHA@Mar?$AA@      004343a0     LIBCMT:strftime.obj
 0002:000013a4       ??_C@_03PICE@Feb?$AA@      004343a4     LIBCMT:strftime.obj
 0002:000013a8       ??_C@_03IEIF@Jan?$AA@      004343a8     LIBCMT:strftime.obj
 0002:000013ac       ??_C@_08FAKH@Saturday?$AA@ 004343ac     LIBCMT:strftime.obj
 0002:000013b8       ??_C@_06ONCK@Friday?$AA@   004343b8     LIBCMT:strftime.obj
 0002:000013c0       ??_C@_08CCFO@Thursday?$AA@ 004343c0     LIBCMT:strftime.obj
 0002:000013cc       ??_C@_09PBIN@Wednesday?$AA@ 004343cc     LIBCMT:strftime.obj
 0002:000013d8       ??_C@_07BMBC@Tuesday?$AA@  004343d8     LIBCMT:strftime.obj
 0002:000013e0       ??_C@_06CHLK@Monday?$AA@   004343e0     LIBCMT:strftime.obj
 0002:000013e8       ??_C@_06OOEM@Sunday?$AA@   004343e8     LIBCMT:strftime.obj
 0002:000013f0       ??_C@_03MPKK@Sat?$AA@      004343f0     LIBCMT:strftime.obj
 0002:000013f4       ??_C@_03FINJ@Fri?$AA@      004343f4     LIBCMT:strftime.obj
 0002:000013f8       ??_C@_03HIKC@Thu?$AA@      004343f8     LIBCMT:strftime.obj
 0002:000013fc       ??_C@_03HECK@Wed?$AA@      004343fc     LIBCMT:strftime.obj
 0002:00001400       ??_C@_03ECCP@Tue?$AA@      00434400     LIBCMT:strftime.obj
 0002:00001404       ??_C@_03PIEP@Mon?$AA@      00434404     LIBCMT:strftime.obj
 0002:00001408       ??_C@_03FHEP@Sun?$AA@      00434408     LIBCMT:strftime.obj
 0002:0000140c       ??_C@_03MKGK@a?1p?$AA@     0043440c     LIBCMT:strftime.obj
 0002:00001410       ??_C@_05BDJK@am?1pm?$AA@   00434410     LIBCMT:strftime.obj
 0002:00001450       ??_7_com_error@@6B@        00434450     comsupp:comraise.obj
 0002:00001458       ??_R1A@?0A@A@range_error@_STL@@8 00434458     stlport_vc6_static:dll_main.obj
 0002:00001470       ??_R2range_error@_STL@@8   00434470     stlport_vc6_static:dll_main.obj
 0002:00001488       ??_R3range_error@_STL@@8   00434488     stlport_vc6_static:dll_main.obj
 0002:00001498       ??_R4range_error@_STL@@6B@ 00434498     stlport_vc6_static:dll_main.obj
 0002:000014b0       ??_R1A@?0A@A@exception@@8  004344b0     stlport_vc6_static:dll_main.obj
 0002:000014c8       ??_R1A@?0A@A@__Named_exception@_STL@@8 004344c8     stlport_vc6_static:dll_main.obj
 0002:000014e0       ??_R1A@?0A@A@runtime_error@_STL@@8 004344e0     stlport_vc6_static:dll_main.obj
 0002:000014f8       ??_R2runtime_error@_STL@@8 004344f8     stlport_vc6_static:dll_main.obj
 0002:00001508       ??_R3runtime_error@_STL@@8 00434508     stlport_vc6_static:dll_main.obj
 0002:00001518       ??_R4runtime_error@_STL@@6B@ 00434518     stlport_vc6_static:dll_main.obj
 0002:00001530       ??_R2__Named_exception@_STL@@8 00434530     stlport_vc6_static:dll_main.obj
 0002:00001540       ??_R3__Named_exception@_STL@@8 00434540     stlport_vc6_static:dll_main.obj
 0002:00001550       ??_R4__Named_exception@_STL@@6B@ 00434550     stlport_vc6_static:dll_main.obj
 0002:00001568       ??_R1A@?0A@A@out_of_range@_STL@@8 00434568     stlport_vc6_static:dll_main.obj
 0002:00001580       ??_R2out_of_range@_STL@@8  00434580     stlport_vc6_static:dll_main.obj
 0002:00001598       ??_R3out_of_range@_STL@@8  00434598     stlport_vc6_static:dll_main.obj
 0002:000015a8       ??_R4out_of_range@_STL@@6B@ 004345a8     stlport_vc6_static:dll_main.obj
 0002:000015c0       ??_R1A@?0A@A@logic_error@_STL@@8 004345c0     stlport_vc6_static:dll_main.obj
 0002:000015d8       ??_R2logic_error@_STL@@8   004345d8     stlport_vc6_static:dll_main.obj
 0002:000015e8       ??_R3logic_error@_STL@@8   004345e8     stlport_vc6_static:dll_main.obj
 0002:000015f8       ??_R4logic_error@_STL@@6B@ 004345f8     stlport_vc6_static:dll_main.obj
 0002:00001610       ??_R1A@?0A@A@length_error@_STL@@8 00434610     stlport_vc6_static:dll_main.obj
 0002:00001628       ??_R2length_error@_STL@@8  00434628     stlport_vc6_static:dll_main.obj
 0002:00001640       ??_R3length_error@_STL@@8  00434640     stlport_vc6_static:dll_main.obj
 0002:00001650       ??_R4length_error@_STL@@6B@ 00434650     stlport_vc6_static:dll_main.obj
 0002:00001668       ??_R1A@?0A@A@invalid_argument@_STL@@8 00434668     stlport_vc6_static:dll_main.obj
 0002:00001680       ??_R2invalid_argument@_STL@@8 00434680     stlport_vc6_static:dll_main.obj
 0002:00001698       ??_R3invalid_argument@_STL@@8 00434698     stlport_vc6_static:dll_main.obj
 0002:000016a8       ??_R4invalid_argument@_STL@@6B@ 004346a8     stlport_vc6_static:dll_main.obj
 0002:000016c0       ??_R1A@?0A@A@overflow_error@_STL@@8 004346c0     stlport_vc6_static:dll_main.obj
 0002:000016d8       ??_R2overflow_error@_STL@@8 004346d8     stlport_vc6_static:dll_main.obj
 0002:000016f0       ??_R3overflow_error@_STL@@8 004346f0     stlport_vc6_static:dll_main.obj
 0002:00001700       ??_R4overflow_error@_STL@@6B@ 00434700     stlport_vc6_static:dll_main.obj
 0002:00001718       ??_R1A@?0A@A@domain_error@_STL@@8 00434718     stlport_vc6_static:dll_main.obj
 0002:00001730       ??_R2domain_error@_STL@@8  00434730     stlport_vc6_static:dll_main.obj
 0002:00001748       ??_R3domain_error@_STL@@8  00434748     stlport_vc6_static:dll_main.obj
 0002:00001758       ??_R4domain_error@_STL@@6B@ 00434758     stlport_vc6_static:dll_main.obj
 0002:00001770       ??_R1A@?0A@A@underflow_error@_STL@@8 00434770     stlport_vc6_static:dll_main.obj
 0002:00001788       ??_R2underflow_error@_STL@@8 00434788     stlport_vc6_static:dll_main.obj
 0002:000017a0       ??_R3underflow_error@_STL@@8 004347a0     stlport_vc6_static:dll_main.obj
 0002:000017b0       ??_R4underflow_error@_STL@@6B@ 004347b0     stlport_vc6_static:dll_main.obj
 0002:000017c8       ??_R1A@?0A@A@bad_alloc@std@@8 004347c8     stlport_vc6_static:dll_main.obj
 0002:000017e0       ??_R2bad_alloc@std@@8      004347e0     stlport_vc6_static:dll_main.obj
 0002:000017f0       ??_R3bad_alloc@std@@8      004347f0     stlport_vc6_static:dll_main.obj
 0002:00001800       ??_R4bad_alloc@std@@6B@    00434800     stlport_vc6_static:dll_main.obj
 0002:00001818       ??_R1A@?0A@A@type_info@@8  00434818     LIBCMT:typinfo.obj
 0002:00001830       ??_R2type_info@@8          00434830     LIBCMT:typinfo.obj
 0002:00001838       ??_R3type_info@@8          00434838     LIBCMT:typinfo.obj
 0002:00001848       ??_R4type_info@@6B@        00434848     LIBCMT:typinfo.obj
 0002:0000185c       ??_R2exception@@8          0043485c     LIBCMT:stdexcpt.obj
 0002:00001868       ??_R3exception@@8          00434868     LIBCMT:stdexcpt.obj
 0002:00001878       ??_R4exception@@6B@        00434878     LIBCMT:stdexcpt.obj
 0002:00001890       ??_R1A@?0A@A@_com_error@@8 00434890     comsupp:comraise.obj
 0002:000018a8       ??_R2_com_error@@8         004348a8     comsupp:comraise.obj
 0002:000018b0       ??_R3_com_error@@8         004348b0     comsupp:comraise.obj
 0002:000018c0       ??_R4_com_error@@6B@       004348c0     comsupp:comraise.obj
 0002:00002dc8       __CT??_R0?AVexception@@@8??0exception@@QAE@ABV0@@Z12 00435dc8     stlport_vc6_static:dll_main.obj
 0002:00002de8       __CT??_R0?AV__Named_exception@_STL@@@8??0__Named_exception@_STL@@QAE@ABV01@@Z268 00435de8     stlport_vc6_static:dll_main.obj
 0002:00002e08       __CT??_R0?AVruntime_error@_STL@@@8??0runtime_error@_STL@@QAE@ABV01@@Z268 00435e08     stlport_vc6_static:dll_main.obj
 0002:00002e28       __CT??_R0?AVrange_error@_STL@@@8??0range_error@_STL@@QAE@ABV01@@Z268 00435e28     stlport_vc6_static:dll_main.obj
 0002:00002e48       __CTA4?AVrange_error@_STL@@ 00435e48     stlport_vc6_static:dll_main.obj
 0002:00002e60       __TI4?AVrange_error@_STL@@ 00435e60     stlport_vc6_static:dll_main.obj
 0002:00002eb0       __CT??_R0?AVlogic_error@_STL@@@8??0logic_error@_STL@@QAE@ABV01@@Z268 00435eb0     stlport_vc6_static:dll_main.obj
 0002:00002ed0       __CT??_R0?AVout_of_range@_STL@@@8??0out_of_range@_STL@@QAE@ABV01@@Z268 00435ed0     stlport_vc6_static:dll_main.obj
 0002:00002ef0       __CTA4?AVout_of_range@_STL@@ 00435ef0     stlport_vc6_static:dll_main.obj
 0002:00002f08       __TI4?AVout_of_range@_STL@@ 00435f08     stlport_vc6_static:dll_main.obj
 0002:00002f58       __CT??_R0?AVlength_error@_STL@@@8??0length_error@_STL@@QAE@ABV01@@Z268 00435f58     stlport_vc6_static:dll_main.obj
 0002:00002f78       __CTA4?AVlength_error@_STL@@ 00435f78     stlport_vc6_static:dll_main.obj
 0002:00002f90       __TI4?AVlength_error@_STL@@ 00435f90     stlport_vc6_static:dll_main.obj
 0002:00002fe0       __CT??_R0?AVinvalid_argument@_STL@@@8??0invalid_argument@_STL@@QAE@ABV01@@Z268 00435fe0     stlport_vc6_static:dll_main.obj
 0002:00003000       __CTA4?AVinvalid_argument@_STL@@ 00436000     stlport_vc6_static:dll_main.obj
 0002:00003018       __TI4?AVinvalid_argument@_STL@@ 00436018     stlport_vc6_static:dll_main.obj
 0002:00003068       __CT??_R0?AVoverflow_error@_STL@@@8??0overflow_error@_STL@@QAE@ABV01@@Z268 00436068     stlport_vc6_static:dll_main.obj
 0002:00003088       __CTA4?AVoverflow_error@_STL@@ 00436088     stlport_vc6_static:dll_main.obj
 0002:000030a0       __TI4?AVoverflow_error@_STL@@ 004360a0     stlport_vc6_static:dll_main.obj
 0002:000032b0       __CT??_R0?AVbad_alloc@std@@@8??0bad_alloc@std@@QAE@ABV01@@Z12 004362b0     stlport_vc6_static:dll_main.obj
 0002:000032d0       __CTA2?AVbad_alloc@std@@   004362d0     stlport_vc6_static:dll_main.obj
 0002:000032e0       __TI2?AVbad_alloc@std@@    004362e0     stlport_vc6_static:dll_main.obj
 0002:00003920       __CT??_R0?AV_com_error@@@8??0_com_error@@QAE@ABV0@@Z16 00436920     comsupp:comraise.obj
 0002:00003940       __CTA1?AV_com_error@@      00436940     comsupp:comraise.obj
 0002:00003948       __TI1?AV_com_error@@       00436948     comsupp:comraise.obj
 0002:00003958       __IMPORT_DESCRIPTOR_KERNEL32 00436958     kernel32:KERNEL32.dll
 0002:0000396c       __IMPORT_DESCRIPTOR_USER32 0043696c     user32:USER32.dll
 0002:00003980       __IMPORT_DESCRIPTOR_ole32  00436980     ole32:ole32.dll
 0002:00003994       __IMPORT_DESCRIPTOR_OLEAUT32 00436994     oleaut32:OLEAUT32.dll
 0002:000039a8       __IMPORT_DESCRIPTOR_WS2_32 004369a8     Ws2_32:WS2_32.dll
 0002:000039bc       __NULL_IMPORT_DESCRIPTOR   004369bc     kernel32:KERNEL32.dll
 0003:00000000       ___xc_a                    00438000     LIBCMT:crt0init.obj
 0003:00000034       ___xc_z                    00438034     LIBCMT:crt0init.obj
 0003:00000038       ___xi_a                    00438038     LIBCMT:crt0init.obj
 0003:0000004c       ___xi_z                    0043804c     LIBCMT:crt0init.obj
 0003:00000050       ___xp_a                    00438050     LIBCMT:crt0init.obj
 0003:00000058       ___xp_z                    00438058     LIBCMT:crt0init.obj
 0003:0000005c       ___xt_a                    0043805c     LIBCMT:crt0init.obj
 0003:00000064       ___xt_z                    00438064     LIBCMT:crt0init.obj
 0003:00000070       ??_C@_02NGAF@wb?$AA@       00438070     GlobalFun.obj
 0003:00000074       ??_C@_02JKAF@rb?$AA@       00438074     GlobalFun.obj
 0003:00000078       ??_C@_03GMJO@a?$CLb?$AA@   00438078     GlobalFun.obj
 0003:0000007c       ??_C@_0BF@MAEP@?2?$CF02d_?$CF02d_?$CF02d_?$CF03d?$AA@ 0043807c     LogFile.obj
 0003:00000094       ??_C@_0P@HECP@?$CF04d_?$CF02d_?$CF02d?$AA@ 00438094     LogFile.obj
 0003:000000a4       ??_C@_04CLEA@?$CF08X?$AA@  004380a4     LogFile.obj
 0003:000000ac       ??_C@_0N@LL@basic_string?$AA@ 004380ac     LogFile.obj
 0003:000000bc       ??_C@_0FB@FNHP@?$AN?6?$CK?$AN?6?$CK?$CK?$CK?$CK?$CK?5Sword3PaySys?5Stop?5?$CI?$EA?5@ 004380bc     main.obj
 0003:00000110       ??_C@_0P@JAGO@Nomal?5exit?5?$CB?$CB?$CB?$AA@ 00438110     main.obj
 0003:00000120       ??_C@_0BC@OJBJ@Connect?5DB?5Error?$CB?$AA@ 00438120     main.obj
 0003:00000134       ??_C@_07ENNF@account?$AA@  00438134     main.obj
 0003:0000013c       ??_C@_0O@DNIE@heaven?5Error?$CB?$AA@ 0043813c     main.obj
 0003:0000014c       ??_C@_0L@JBAM@DBConnects?$AA@ 0043814c     main.obj
 0003:00000158       ??_C@_01PLFL@5?$AA@        00438158     main.obj
 0003:0000015c       ??_C@_0N@DOJP@DataBase?4ini?$AA@ 0043815c     main.obj
 0003:0000016c       ??_C@_0BA@PKLD@CreateInterface?$AA@ 0043816c     main.obj
 0003:0000017c       ??_C@_0L@MDPN@heaven?4dll?$AA@ 0043817c     main.obj
 0003:00000188       ??_C@_07LEGG@timelog?$AA@  00438188     main.obj
 0003:00000190       ??_C@_04LHEB@3000?$AA@     00438190     main.obj
 0003:00000198       ??_C@_0L@DLOK@sizebuffer?$AA@ 00438198     main.obj
 0003:000001a4       ??_C@_07LFL@1048576?$AA@   004381a4     main.obj
 0003:000001ac       ??_C@_09EEKJ@maxbuffer?$AA@ 004381ac     main.obj
 0003:000001b8       ??_C@_02FCAK@15?$AA@       004381b8     main.obj
 0003:000001bc       ??_C@_09PIJM@precision?$AA@ 004381bc     main.obj
 0003:000001c8       ??_C@_01FBAH@1?$AA@        004381c8     main.obj
 0003:000001cc       ??_C@_0L@CFCH@maxconnect?$AA@ 004381cc     main.obj
 0003:000001d8       ??_C@_02FCMB@10?$AA@       004381d8     main.obj
 0003:000001dc       ??_C@_05PHNP@Local?$AA@    004381dc     main.obj
 0003:000001e4       ??_C@_04IOEK@port?$AA@     004381e4     main.obj
 0003:000001ec       ??_C@_0O@BJEG@acc_setup?4ini?$AA@ 004381ec     main.obj
 0003:000001fc       ??_C@_02MECO@?$CFd?$AA@    004381fc     main.obj
 0003:00000200       ??_C@_0FC@LMOP@?$AN?6?$CK?$AN?6?$CK?$CK?$CK?$CK?$CK?5Sword3PaySys?5Start?5?$CI?$EA@ 00438200     main.obj
 0003:00000254       ??_C@_0BK@JAHP@Initializing?5LogFile?5fail?$AA@ 00438254     main.obj
 0003:00000270       ??_C@_05COLM@error?$AA@    00438270     main.obj
 0003:00000278       ??_C@_06GAMA@?$CFd?5?$DO?$DO?5?$AA@ 00438278     main.obj
 0003:00000280       ??_C@_02PIMC@?$AN?6?$AA@   00438280     main.obj
 0003:00000284       ??_C@_01FCOA@?5?$AA@       00438284     main.obj
 0003:00000288       ??_C@_0CC@MLH@?$FL?$CF04d?1?$CF02d?1?$CF02d?5?$CF02d?3?$CF02d?3?$CF02d?$FN?$CF@ 00438288     main.obj
 0003:000002ac       ??_C@_07NOMM@ListBox?$AA@  004382ac     main.obj
 0003:000002b4       ??_C@_03GCM@Out?$AA@       004382b4     main.obj
 0003:000002b8       ??_C@_0P@ILLO@Are?5you?5sure?5?$DP?$AA@ 004382b8     main.obj
 0003:000002c8       ??_C@_07EANM@warning?$AA@  004382c8     main.obj
 0003:000002d0       ??_R0?AV_com_error@@@8     004382d0     S3P_MSSQLServer_Result.obj
 0003:000002f0       __GUID_0000050e_0000_0010_8000_00aa006d2ea4 004382f0     S3P_MSSQLServer_Result.obj
 0003:00000300       __GUID_00000512_0000_0010_8000_00aa006d2ea4 00438300     S3P_MSSQLServer_Result.obj
 0003:00000310       __GUID_00000506_0000_0010_8000_00aa006d2ea4 00438310     S3P_MSSQLServer_Result.obj
 0003:00000320       ??_C@_0FC@CDDA@update?5Account_info?5set?5iClientI@ 00438320     S3PAccount.obj
 0003:00000374       ??_C@_0GM@HICK@select?5iClientID?5from?5Account_in@ 00438374     S3PAccount.obj
 0003:000003e0       ??_C@_0HF@CKFB@update?5Account_info?5set?5dLoginDa@ 004383e0     S3PAccount.obj
 0003:00000458       ??_C@_0GM@KIIJ@update?5Account_info?5set?5iClientI@ 00438458     S3PAccount.obj
 0003:000004c4       ??_C@_0BAL@JBHN@update?5View_AccountMoney?5set?5nEx@ 004384c4     S3PAccount.obj
 0003:000005d0       ??_C@_0PA@IBLE@update?5View_AccountMoney?5set?5iLe@ 004385d0     S3PAccount.obj
 0003:000006c0       ??_C@_0JK@DIK@update?5View_AccountMoney?5set?5iLe@ 004386c0     S3PAccount.obj
 0003:0000075c       ??_C@_0BL@GGPG@?$CF02X?$CF02X?9?$CF02X?$CF02X?9?$CF02X?$CF02X?$AA@ 0043875c     S3PAccount.obj
 0003:00000778       ??_C@_0HK@EJJP@select?5cIP?0?5iPort?0?5iid?0?5cMemo?5fr@ 00438778     S3PAccount.obj
 0003:000007f4       ??_C@_0DG@GDIB@select?5iid?5from?5ServerList?5where@ 004387f4     S3PAccount.obj
 0003:0000082c       ??_C@_0CO@CHHN@select?5iid?5from?5ServerList?5where@ 0043882c     S3PAccount.obj
 0003:0000085c       ??_C@_0FG@DDPP@update?5Account_info?5set?5iClientI@ 0043885c     S3PAccount.obj
 0003:000008b4       ??_C@_0MI@CLFK@update?5View_AccountMoney?5set?5iLe@ 004388b4     S3PAccount.obj
 0003:0000097c       ??_C@_0DL@DGDK@select?5iClientID?5from?5Account_in@ 0043897c     S3PAccount.obj
 0003:000009b8       ??_C@_0HE@CMMO@select?5datediff?$CIsecond?0?5getdate?$CI@ 004389b8     S3PAccount.obj
 0003:00000a2c       ??_C@_0GO@MOJP@select?5cAccName?5from?5Account_inf@ 00438a2c     S3PAccount.obj
 0003:00000aa0       __GUID_00000515_0000_0010_8000_00aa006d2ea4 00438aa0     S3PDB_MSSQLServer_Connection.obj
 0003:00000ab0       ??_C@_0DA@BBNK@?$FLS3PDBConnectionPool?3?3OpenConnec@ 00438ab0     S3PDB_MSSQLServer_Connection.obj
 0003:00000ae0       ??_C@_0BF@NADL@Unknown?5error?50x?$CF0lX?$AA@ 00438ae0     S3PDB_MSSQLServer_Connection.obj
 0003:00000af8       ??_C@_0BE@OPIO@IDispatch?5error?5?$CD?$CFd?$AA@ 00438af8     S3PDB_MSSQLServer_Connection.obj
 0003:00000b10       __GUID_00000508_0000_0010_8000_00aa006d2ea4 00438b10     S3PDB_MSSQLServer_Connection.obj
 0003:00000b20       ??_C@_0O@PKKE@ADODB?4Command?$AA@ 00438b20     S3PDB_MSSQLServer_Connection.obj
 0003:00000b30       ??_C@_09KKBE@Database?$DN?$AA@ 00438b30     S3PDB_MSSQLServer_Connection.obj
 0003:00000b3c       ??_C@_01FAJB@?$DL?$AA@     00438b3c     S3PDB_MSSQLServer_Connection.obj
 0003:00000b40       ??_C@_07FBJB@Server?$DN?$AA@ 00438b40     S3PDB_MSSQLServer_Connection.obj
 0003:00000b48       ??_C@_0BF@LIBE@driver?$DN?$HLSQL?5Server?$HN?$DL?$AA@ 00438b48     S3PDB_MSSQLServer_Connection.obj
 0003:00000b60       ??_C@_0BB@ICNN@ADODB?4Connection?$AA@ 00438b60     S3PDB_MSSQLServer_Connection.obj
 0003:00000b74       ??_C@_0DA@BHOE@?$FLS3PDB_MSSQLServer_Connection?3?3D@ 00438b74     S3PDB_MSSQLServer_Connection.obj
 0003:00000ba4       ??_C@_0BA@LOMB@ADODB?4Recordset?$AA@ 00438ba4     S3PDB_MSSQLServer_Connection.obj
 0003:00000bb4       ??_C@_0DD@LDNA@?$FLS3PDB_MSSQLServer_Connection?3?3D@ 00438bb4     S3PDB_MSSQLServer_Connection.obj
 0003:00000be8       __GUID_00000550_0000_0010_8000_00aa006d2ea4 00438be8     S3PDB_MSSQLServer_Connection.obj
 0003:00000bf8       __GUID_00000000_0000_0000_c000_000000000046 00438bf8     S3PDB_MSSQLServer_Connection.obj
 0003:00000c08       __GUID_00000556_0000_0010_8000_00aa006d2ea4 00438c08     S3PDB_MSSQLServer_Connection.obj
 0003:00000c18       __GUID_b08400bd_f9d1_4d02_b856_71d5dba123e9 00438c18     S3PDB_MSSQLServer_Connection.obj
 0003:00000c28       ??_C@_0M@DLGK@gm?9kingsoft?$AA@ 00438c28     S3PDBConnectionPool.obj
 0003:00000c34       ??_C@_08HAOI@PassWord?$AA@ 00438c34     S3PDBConnectionPool.obj
 0003:00000c40       ??_C@_04JJBJ@User?$AA@     00438c40     S3PDBConnectionPool.obj
 0003:00000c48       ??_C@_08FNAA@DataBase?$AA@ 00438c48     S3PDBConnectionPool.obj
 0003:00000c54       ??_C@_06HCAM@Server?$AA@   00438c54     S3PDBConnectionPool.obj
 0003:00000c5c       ??_C@_0BI@KOCC@DB?5Connect?5?$CFd?5is?5busy?5?$CB?$AA@ 00438c5c     S3PDBConnectionPool.obj
 0003:00000c74       ??_C@_0BI@OLBA@DB?5Connect?5?$CFd?5is?5free?5?$CB?$AA@ 00438c74     S3PDBConnectionPool.obj
 0003:00000c8c       ??_C@_0DB@NCKN@Failed?5to?5feed?5back?$CI?5S3PDBSocket@ 00438c8c     S3PDBSocketPool.obj
 0003:00000cc0       ??_C@_0DD@CGME@Failed?5to?5feed?5back?$CI?5S3PDBSocket@ 00438cc0     S3PDBSocketPool.obj
 0003:00000cf4       ??_C@_0CF@MDGI@Add?5Gateway?$CI?$CFs?$CJ?5Client?5?$CFd?5?$CB?5?9?9?5A@ 00438cf4     S3PDBSocketPool.obj
 0003:00000d1c       ??_C@_0CH@NMDP@ReAdd?5Gateway?$CI?$CFs?$CJ?5Client?5?$CFd?5?$CB?5?9?9@ 00438d1c     S3PDBSocketPool.obj
 0003:00000d44       ??_C@_0CK@IDMK@ErrorAdd?5Gateway?$CI?$CFs?$CJ?5Client?5?$CFd?5?$CB@ 00438d44     S3PDBSocketPool.obj
 0003:00000d70       ??_C@_0CE@ECAA@Remove?5Gateway?5Client?5?$CFd?5?$CB?5?9?9?5At@ 00438d70     S3PDBSocketPool.obj
 0003:00000d94       ??_C@_0BG@KCBA@Game?5is?5unknown?5at?5?$CFd?$AA@ 00438d94     S3PDBSocketPool.obj
 0003:00000dac       ??_C@_0BE@HPNC@Game?5is?5error?5at?5?$CFd?$AA@ 00438dac     S3PDBSocketPool.obj
 0003:00000dc0       ??_C@_0BK@KFID@Game?5is?5verifyagain?5at?5?$CFd?$AA@ 00438dc0     S3PDBSocketPool.obj
 0003:00000ddc       ??_C@_0BF@DCMN@Game?5is?5verify?5at?5?$CFd?$AA@ 00438ddc     S3PDBSocketPool.obj
 0003:00000df4       ??_C@_0BD@JHPK@Game?5is?5free?5at?5?$CFd?$AA@ 00438df4     S3PDBSocketPool.obj
 0003:00000e08       ??_C@_0BO@DDH@Game?5?$CFd?3?5?$CFs?$CI?$CFs?3?$CFd?$CJ?5is?5waiting?$AA@ 00438e08     S3PDBSocketPool.obj
 0003:00000e28       ??_C@_0BO@LFOJ@Game?5?$CFd?3?5?$CFs?$CI?$CFs?3?$CFd?$CJ?5is?5working?$AA@ 00438e28     S3PDBSocketPool.obj
 0003:00000e48       ??_C@_0BL@DNKE@Gateway?5?$CFs?$CI?$CFs?$CJ?3?5Ping?5?$CFd?$CIs?$CJ?$AA@ 00438e48     S3PDBSocketPool.obj
 0003:00000e64       ??_C@_0BK@BHMM@Gateway?5Connect?5Again?5OK?$CB?$AA@ 00438e64     S3PDBSocketPool.obj
 0003:00000e80       ??_C@_0BE@FGOI@Gateway?5Connect?5OK?$CB?$AA@ 00438e80     S3PDBSocketPool.obj
 0003:00000e94       ??_C@_0BD@GKNG@Gateway?5unlock?5OK?$CB?$AA@ 00438e94     S3PDBSocketPool.obj
 0003:00000ea8       ??_C@_0BK@MHHG@Protocol?5?$CFd?5data?5is?5error?$AA@ 00438ea8     S3PDBSocketPool.obj
 0003:00000ec4       ??_C@_0CJ@BLEI@Gateway?5?$CFs?$CI?$CFs?$CJ?3?5User?5?$CFs?5SecondPa@ 00438ec4     S3PDBSocketPool.obj
 0003:00000ef0       ??_C@_0CA@HFFL@Gateway?5?$CFs?$CI?$CFs?$CJ?3?5User?5?$CFs?5Login?$CFs?$AA@ 00438ef0     S3PDBSocketPool.obj
 0003:00000f10       ??_C@_09CPDO@?5Failed?5?$CB?$AA@ 00438f10     S3PDBSocketPool.obj
 0003:00000f1c       ??_C@_0BN@CGOM@?5Failed?5?$CB?5?9?9?9?5Account?5Freeze?$AA@ 00438f1c     S3PDBSocketPool.obj
 0003:00000f3c       ??_C@_0BM@KFKH@?5Failed?5?$CB?5?9?9?9?5Address?0?5Port?$AA@ 00438f3c     S3PDBSocketPool.obj
 0003:00000f58       ??_C@_0BH@LOMO@?5Failed?5?$CB?5?9?9?9?5No?5Money?$AA@ 00438f58     S3PDBSocketPool.obj
 0003:00000f70       ??_C@_0BM@JELE@?5Failed?5?$CB?5?9?9?9?5Already?5login?$AA@ 00438f70     S3PDBSocketPool.obj
 0003:00000f8c       ??_C@_0BN@ICJE@?5Failed?5?$CB?5?9?9?9?5Name?0?5Password?$AA@ 00438f8c     S3PDBSocketPool.obj
 0003:00000fac       ??_C@_0BE@FGOA@?5Success?5?$CB?5?$CIExt?3?$CFd?$CJ?$AA@ 00438fac     S3PDBSocketPool.obj
 0003:00000fc0       ??_C@_0CF@OHF@Gateway?5?$CFs?$CI?$CFs?$CJ?3?5User?5?$CFs?5Enter?5Ga@ 00438fc0     S3PDBSocketPool.obj
 0003:00000fe8       ??_C@_0BK@IANP@?5Failed?5?$CB?5?9?9?9?5Login?5first?$AA@ 00438fe8     S3PDBSocketPool.obj
 0003:00001004       ??_C@_0L@FOMI@?5Success?5?$CB?$AA@ 00439004     S3PDBSocketPool.obj
 0003:00001010       ??_C@_0CB@CKCB@Gateway?5?$CFs?$CI?$CFs?$CJ?3?5User?5?$CFs?5Logout?$CFs@ 00439010     S3PDBSocketPool.obj
 0003:00001034       ??_C@_0CC@JNAC@Gateway?5?$CFs?$CI?$CFs?$CJ?$CFs?3?5Address?0?5Port?5@ 00439034     S3PDBSocketPool.obj
 0003:00001058       ??_C@_0CD@ILHF@Gateway?5?$CFs?$CI?$CFs?$CJ?$CFs?3?5Name?0?5Password@ 00439058     S3PDBSocketPool.obj
 0003:0000107c       ??_C@_0CC@HLCG@Gateway?5?$CFs?$CI?$CFs?$CJ?$CFs?3?5Already?5login?5@ 0043907c     S3PDBSocketPool.obj
 0003:000010a0       ??_C@_0BO@PNBG@Gateway?5?$CFs?$CI?$CFs?$CJ?$CFs?3?5Verify?5OK?5?$CB?$AA@ 004390a0     S3PDBSocketPool.obj
 0003:000010c0       ?__max@?$_STLP_mutex_spin@$0A@@_STL@@2IA 004390c0     stlport_vc6_static:string_w.obj
 0003:000010c4       ?_Message_table@?$__stl_debug_engine@_N@_STL@@2PAPBDA 004390c4     stlport_vc6_static:dll_main.obj
 0003:00001130       ??_C@_0BA@BABJ@Unknown?5problem?$AA@ 00439130     stlport_vc6_static:dll_main.obj
 0003:00001140       ??_C@_0EA@IBLM@Attempt?5to?5dereference?5null?5poin@ 00439140     stlport_vc6_static:dll_main.obj
 0003:00001180       ??_C@_0EF@PEMF@Pointer?5overrrun?5?9?5safety?5margin@ 00439180     stlport_vc6_static:dll_main.obj
 0003:000011c8       ??_C@_0EG@FMKN@Pointer?5underrun?5?9?5safety?5margin@ 004391c8     stlport_vc6_static:dll_main.obj
 0003:00001210       ??_C@_0DO@PKEM@Size?5of?5block?5passed?5to?5dealloca@ 00439210     stlport_vc6_static:dll_main.obj
 0003:00001250       ??_C@_0DH@BDIA@Deallocating?5a?5memory?5block?5allo@ 00439250     stlport_vc6_static:dll_main.obj
 0003:00001288       ??_C@_0CO@KLLE@Deallocating?5a?5block?5that?5was?5ne@ 00439288     stlport_vc6_static:dll_main.obj
 0003:000012b8       ??_C@_0BP@GDAO@Memory?5block?5deallocated?5twice?$AA@ 004392b8     stlport_vc6_static:dll_main.obj
 0003:000012d8       ??_C@_0DE@HLBD@Iterator?5is?5singular?5?$CIadvanced?5b@ 004392d8     stlport_vc6_static:dll_main.obj
 0003:0000130c       ??_C@_0CL@NCEB@The?5advance?5would?5produce?5invali@ 0043930c     stlport_vc6_static:dll_main.obj
 0003:00001338       ??_C@_0DC@OBNO@Range?5?$FLfirst?0last?$CJ?5is?5not?5in?5ran@ 00439338     stlport_vc6_static:dll_main.obj
 0003:0000136c       ??_C@_0CG@HOOA@Iterator?5is?5not?5in?5range?5?$FLfirst?0@ 0043936c     stlport_vc6_static:dll_main.obj
 0003:00001394       ??_C@_0BO@GKPA@Range?5?$FLfirst?0last?$CJ?5is?5invalid?$AA@ 00439394     stlport_vc6_static:dll_main.obj
 0003:000013b4       ??_C@_0DE@CGHP@Iterator?5could?5not?5be?5dereferenc@ 004393b4     stlport_vc6_static:dll_main.obj
 0003:000013e8       ??_C@_0DH@HODG@Iterators?5used?5in?5expression?5are@ 004393e8     stlport_vc6_static:dll_main.obj
 0003:00001420       ??_C@_0FG@ODCB@Uninitialized?5or?5invalidated?5?$CIby@ 00439420     stlport_vc6_static:dll_main.obj
 0003:00001478       ??_C@_0FF@HHHM@Uninitialized?5or?5invalidated?5?$CIby@ 00439478     stlport_vc6_static:dll_main.obj
 0003:000014d0       ??_C@_0ED@HION@Uninitialized?5or?5invalidated?5?$CIby@ 004394d0     stlport_vc6_static:dll_main.obj
 0003:00001514       ??_C@_0CD@OMCN@Container?5doesn?8t?5own?5the?5iterat@ 00439514     stlport_vc6_static:dll_main.obj
 0003:00001538       ??_C@_0BE@DFCJ@Index?5out?5of?5bounds?$AA@ 00439538     stlport_vc6_static:dll_main.obj
 0003:0000154c       ??_C@_0CK@CAO@Past?9the?9end?5iterator?5could?5not?5@ 0043954c     stlport_vc6_static:dll_main.obj
 0003:00001578       ??_C@_0DF@DMFN@Trying?5to?5extract?5an?5object?5out?5@ 00439578     stlport_vc6_static:dll_main.obj
 0003:000015b0       ??_C@_0EH@JNGD@Taking?5an?5iterator?5out?5of?5destro@ 004395b0     stlport_vc6_static:dll_main.obj
 0003:000015f8       ??_C@_0DM@COIK@Invalid?5argument?5to?5operation?5?$CIs@ 004395f8     stlport_vc6_static:dll_main.obj
 0003:00001634       ??_C@_0EA@MFLA@?6?$CFs?$CI?$CFd?$CJ?3?5STL?5error?5?3?5?$CFs?6?$CFs?$CI?$CFd?$CJ?3?5@ 00439634     stlport_vc6_static:dll_main.obj
 0003:00001674       ??_C@_0CE@LOFJ@?$CFs?$CI?$CFd?$CJ?3?5STL?5assertion?5failure?5?3?5@ 00439674     stlport_vc6_static:dll_main.obj
 0003:00001698       ??_C@_0BI@GDMA@?6?$CFs?$CI?$CFd?$CJ?3?5STL?5error?3?5?$CFs?6?$AA@ 00439698     stlport_vc6_static:dll_main.obj
 0003:000016b0       ??_R0?AVrange_error@_STL@@@8 004396b0     stlport_vc6_static:dll_main.obj
 0003:000016d0       ??_R0?AVexception@@@8      004396d0     stlport_vc6_static:dll_main.obj
 0003:000016e8       ??_R0?AV__Named_exception@_STL@@@8 004396e8     stlport_vc6_static:dll_main.obj
 0003:00001710       ??_R0?AVruntime_error@_STL@@@8 00439710     stlport_vc6_static:dll_main.obj
 0003:00001738       ??_R0?AVout_of_range@_STL@@@8 00439738     stlport_vc6_static:dll_main.obj
 0003:00001758       ??_R0?AVlogic_error@_STL@@@8 00439758     stlport_vc6_static:dll_main.obj
 0003:00001778       ??_R0?AVlength_error@_STL@@@8 00439778     stlport_vc6_static:dll_main.obj
 0003:00001798       ??_R0?AVinvalid_argument@_STL@@@8 00439798     stlport_vc6_static:dll_main.obj
 0003:000017c0       ??_R0?AVoverflow_error@_STL@@@8 004397c0     stlport_vc6_static:dll_main.obj
 0003:000017e8       ??_R0?AVdomain_error@_STL@@@8 004397e8     stlport_vc6_static:dll_main.obj
 0003:00001808       ??_R0?AVunderflow_error@_STL@@@8 00439808     stlport_vc6_static:dll_main.obj
 0003:00001830       ??_R0?AVbad_alloc@std@@@8  00439830     stlport_vc6_static:dll_main.obj
 0003:0000184c       ??_C@_0P@LJNA@bad?5allocation?$AA@ 0043984c     stlport_vc6_static:dll_main.obj
 0003:0000185c       ??_C@_06EJHH@vector?$AA@   0043985c     stlport_vc6_static:dll_main.obj
 0003:00001864       __NLG_Destination          00439864     LIBCMT:exsup.obj
 0003:00001880       ?__pMyUnhandledExceptionFilter@@3PAXA 00439880     LIBCMT:throw.obj
 0003:00001888       ??_R0?AVtype_info@@@8      00439888     LIBCMT:typinfo.obj
 0003:000018a0       __aexit_rtn                004398a0     LIBCMT:wincrt0.obj
 0003:000018a4       ___app_type                004398a4     LIBCMT:wincrt0.obj
 0003:000018a8       __iob                      004398a8     LIBCMT:_file.obj
 0003:00001c98       ___badioinfo               00439c98     LIBCMT:ioinit.obj
 0003:00001cc0       ___tlsindex                00439cc0     LIBCMT:tidtable.obj
 0003:00001cc4       ?__pInconsistency@@3P6AXXZA 00439cc4     LIBCMT:hooks.obj
 0003:00001cc8       __locktable                00439cc8     LIBCMT:mlock.obj
 0003:00001e80       __XcptActTab               00439e80     LIBCMT:winxfltr.obj
 0003:00001ef8       __First_FPE_Indx           00439ef8     LIBCMT:winxfltr.obj
 0003:00001efc       __Num_FPE                  00439efc     LIBCMT:winxfltr.obj
 0003:00001f00       __XcptActTabSize           00439f00     LIBCMT:winxfltr.obj
 0003:00001f04       __XcptActTabCount          00439f04     LIBCMT:winxfltr.obj
 0003:00001f08       ___nullstring              00439f08     LIBCMT:output.obj
 0003:00001f0c       ___wnullstring             00439f0c     LIBCMT:output.obj
 0003:00001f10       __pctype                   00439f10     LIBCMT:ctype.obj
 0003:00001f14       __pwctype                  00439f14     LIBCMT:ctype.obj
 0003:00001f18       __ctype                    00439f18     LIBCMT:ctype.obj
 0003:0000211c       ___mb_cur_max              0043a11c     LIBCMT:nlsdata1.obj
 0003:00002120       ___decimal_point           0043a120     LIBCMT:nlsdata1.obj
 0003:00002124       ___decimal_point_length    0043a124     LIBCMT:nlsdata1.obj
 0003:00002130       __timezone                 0043a130     LIBCMT:timeset.obj
 0003:00002134       __daylight                 0043a134     LIBCMT:timeset.obj
 0003:00002138       __dstbias                  0043a138     LIBCMT:timeset.obj
 0003:000021bc       __tzname                   0043a1bc     LIBCMT:timeset.obj
 0003:000021f0       __amblksiz                 0043a1f0     LIBCMT:heapinit.obj
 0003:00002290       ___old_small_block_heap    0043a290     LIBCMT:sbheap.obj
 0003:000042b4       ___old_sbh_threshold       0043c2b4     LIBCMT:sbheap.obj
 0003:000042c0       __cfltcvt_tab              0043c2c0     LIBCMT:cmiscdat.obj
 0003:000042e0       __lpdays                   0043c2e0     LIBCMT:days.obj
 0003:00004314       __days                     0043c314     LIBCMT:days.obj
 0003:00004460       ___lc_category             0043c460     LIBCMT:setlocal.obj
 0003:000044b0       ___rgLocInfo               0043c4b0     LIBCMT:getqloc.obj
 0003:00004954       ___rglangidNotDefault      0043c954     LIBCMT:getqloc.obj
 0003:00004968       ___rg_country              0043c968     LIBCMT:getqloc.obj
 0003:00004a20       ___rg_language             0043ca20     LIBCMT:getqloc.obj
 0003:00004c28       ___lc_time_curr            0043cc28     LIBCMT:strftime.obj
 0003:00004c30       ___lc_time_c               0043cc30     LIBCMT:strftime.obj
 0003:00004ce0       ___lconv_static_decimal    0043cce0     LIBCMT:lconv.obj
 0003:00004ce8       ___lconv_c                 0043cce8     LIBCMT:lconv.obj
 0003:00004d18       ___lconv                   0043cd18     LIBCMT:lconv.obj
 0003:00004d20       __GUID_df0b3d60_548f_101b_8e65_08002b2bd119 0043cd20     comsupp:comsupp.obj
 0003:00004d30       __GUID_1cf2b120_547d_101b_8e65_08002b2bd119 0043cd30     comsupp:comsupp.obj
 0003:00004d40       __GUID_00020400_0000_0000_c000_000000000046 0043cd40     comsupp:comsupp.obj
 0003:00004d78       ?g_szWindowClass@@3PADA    0043cd78     main.obj
 0003:00004e80       ?g_TraceBuffer@@3VTwoFixBuffer@@A 0043ce80     main.obj
 0003:00204ecc       ?g_listwnd@@3PAUHWND__@@A  0063cecc     main.obj
 0003:00204ed0       ?g_cnt@@3JA                0063ced0     main.obj
 0003:00204ed8       ?g_hInst@@3PAUHINSTANCE__@@A 0063ced8     main.obj
 0003:00204edc       ?g_nShowTime@@3HA          0063cedc     main.obj
 0003:00204ee4       ?m_pInstance@S3PDBConnectionPool@@1PAV1@A 0063cee4     S3PDBConnectionPool.obj
 0003:00204eec       ??_C@_00A@?$AA@            0063ceec     S3PDBConnectionPool.obj
 0003:00204ef0       ?m_pInstance@S3PDBSocketPool@@1PAV1@A 0063cef0     S3PDBSocketPool.obj
 0003:00204ef4       ?_S_free_list@?$__node_alloc@$00$0A@@_STL@@0RCRAV_Node_alloc_obj@2@C 0063cef4     stlport_vc6_static:string_w.obj
 0003:00204f34       ?_S_lock@?$_Node_Alloc_Lock@$00$0A@@_STL@@2U_STLP_mutex_base@2@A 0063cf34     stlport_vc6_static:string_w.obj
 0003:00204f38       ?__last@?$_STLP_mutex_spin@$0A@@_STL@@2IA 0063cf38     stlport_vc6_static:string_w.obj
 0003:00204f3c       ?_S_heap_size@?$__node_alloc@$00$0A@@_STL@@0IA 0063cf3c     stlport_vc6_static:string_w.obj
 0003:00204f40       ?_S_end_free@?$__node_alloc@$00$0A@@_STL@@0PADA 0063cf40     stlport_vc6_static:string_w.obj
 0003:00204f44       ?_S_start_free@?$__node_alloc@$00$0A@@_STL@@0PADA 0063cf44     stlport_vc6_static:string_w.obj
 0003:00204f48       ?__oom_handler@?$__malloc_alloc@$0A@@_STL@@0P6AXXZA 0063cf48     stlport_vc6_static:dll_main.obj
 0003:00204f4c       ?_S_heap_size@?$__node_alloc@$0A@$0A@@_STL@@0IA 0063cf4c     stlport_vc6_static:dll_main.obj
 0003:00204f50       ?_S_end_free@?$__node_alloc@$0A@$0A@@_STL@@0PADA 0063cf50     stlport_vc6_static:dll_main.obj
 0003:00204f54       ?_S_start_free@?$__node_alloc@$0A@$0A@@_STL@@0PADA 0063cf54     stlport_vc6_static:dll_main.obj
 0003:00204f58       ?_S_free_list@?$__node_alloc@$0A@$0A@@_STL@@0RCRAV_Node_alloc_obj@2@C 0063cf58     stlport_vc6_static:dll_main.obj
 0003:00204f98       ?_S_lock@?$_Node_Alloc_Lock@$0A@$0A@@_STL@@2U_STLP_mutex_base@2@A 0063cf98     stlport_vc6_static:dll_main.obj
 0003:00204fb8       __aenvptr                  0063cfb8     LIBCMT:wincrt0.obj
 0003:00204fbc       __wenvptr                  0063cfbc     LIBCMT:wincrt0.obj
 0003:00204fc0       ___error_mode              0063cfc0     LIBCMT:wincrt0.obj
 0003:00204fc4       __cflush                   0063cfc4     LIBCMT:_file.obj
 0003:0020502c       __umaskval                 0063d02c     LIBCMT:crt0dat.obj
 0003:00205030       __osver                    0063d030     LIBCMT:crt0dat.obj
 0003:00205034       __winver                   0063d034     LIBCMT:crt0dat.obj
 0003:00205038       __winmajor                 0063d038     LIBCMT:crt0dat.obj
 0003:0020503c       __winminor                 0063d03c     LIBCMT:crt0dat.obj
 0003:00205040       ___argc                    0063d040     LIBCMT:crt0dat.obj
 0003:00205044       ___argv                    0063d044     LIBCMT:crt0dat.obj
 0003:00205048       ___wargv                   0063d048     LIBCMT:crt0dat.obj
 0003:0020504c       __environ                  0063d04c     LIBCMT:crt0dat.obj
 0003:00205050       ___initenv                 0063d050     LIBCMT:crt0dat.obj
 0003:00205054       __wenviron                 0063d054     LIBCMT:crt0dat.obj
 0003:00205058       ___winitenv                0063d058     LIBCMT:crt0dat.obj
 0003:0020505c       __pgmptr                   0063d05c     LIBCMT:crt0dat.obj
 0003:00205060       __wpgmptr                  0063d060     LIBCMT:crt0dat.obj
 0003:00205064       __exitflag                 0063d064     LIBCMT:crt0dat.obj
 0003:00205068       __C_Termination_Done       0063d068     LIBCMT:crt0dat.obj
 0003:0020506c       __C_Exit_Done              0063d06c     LIBCMT:crt0dat.obj
 0003:00205070       __stdbuf                   0063d070     LIBCMT:_sftbuf.obj
 0003:0020526c       __adbgmsg                  0063d26c     LIBCMT:crt0msg.obj
 0003:00205270       __newmode                  0063d270     LIBCMT:_newmode.obj
 0003:00205274       ?_pnhHeap@@3P6AHI@ZA       0063d274     LIBCMT:handler.obj
 0003:00205290       __commode                  0063d290     LIBCMT:ncommode.obj
 0003:00205294       ___lc_handle               0063d294     LIBCMT:nlsdata2.obj
 0003:002052ac       ___lc_codepage             0063d2ac     LIBCMT:nlsdata2.obj
 0003:002052b0       ___lc_collate_cp           0063d2b0     LIBCMT:nlsdata2.obj
 0003:002052c8       __fmode                    0063d2c8     LIBCMT:txtmode.obj
 0003:002052d8       ___lc_time_intl            0063d2d8     LIBCMT:inittime.obj
 0003:002052f4       ___lc_id                   0063d2f4     LIBCMT:nlsdata3.obj
 0003:00205348       ___lconv_static_null       0063d348     LIBCMT:lconv.obj
 0003:00205358       __GUID_00000000_0000_0000_0000_000000000000 0063d358     comsupp:comsupp.obj
 0003:00205368       ?vtMissing@@3V_variant_t@@A 0063d368     comsupp:comutil.obj
 0003:00205378       ___alternate_form          0063d378     <common>
 0003:0020537c       ___no_lead_zeros           0063d37c     <common>
 0003:00205380       ___setlc_active            0063d380     <common>
 0003:00205384       ___unguarded_readlc_active 0063d384     <common>
 0003:00205388       ___sbh_sizeHeaderList      0063d388     <common>
 0003:0020538c       ___sbh_indGroupDefer       0063d38c     <common>
 0003:00205390       ___sbh_pHeaderScan         0063d390     <common>
 0003:00205394       ___sbh_initialized         0063d394     <common>
 0003:00205398       ___sbh_pHeaderDefer        0063d398     <common>
 0003:0020539c       ___sbh_cntHeaderList       0063d39c     <common>
 0003:002053a0       ___sbh_pHeaderList         0063d3a0     <common>
 0003:002053a4       ___sbh_threshold           0063d3a4     <common>
 0003:002053a8       __crtheap                  0063d3a8     <common>
 0003:002053ac       ___active_heap             0063d3ac     <common>
 0003:002053b0       ___env_initialized         0063d3b0     <common>
 0003:002053b4       ___mbctype_initialized     0063d3b4     <common>
 0003:002053b8       ___onexitend               0063d3b8     <common>
 0003:002053bc       ___onexitbegin             0063d3bc     <common>
 0003:002053c0       __FPinit                   0063d3c0     <common>
 0003:002053c4       ___mbcodepage              0063d3c4     <common>
 0003:002053d0       ___mbulinfo                0063d3d0     <common>
 0003:002053dc       ___ismbcodepage            0063d3dc     <common>
 0003:002053e0       __mbcasemap                0063d3e0     <common>
 0003:002054e0       __mbctype                  0063d4e0     <common>
 0003:002055e4       ___mblcid                  0063d5e4     <common>
 0003:00205600       ___pioinfo                 0063d600     <common>
 0003:00205700       __nhandle                  0063d700     <common>
 0003:00205704       ___piob                    0063d704     <common>
 0003:00205720       __bufin                    0063d720     <common>
 0003:00206720       __nstream                  0063e720     <common>
 0003:00206724       __acmdln                   0063e724     <common>
 0003:00206728       __FPmtinit                 0063e728     <common>
 0003:0020672c       __FPmtterm                 0063e72c     <common>

 entry point at        0001:0002422e

 Static symbols

 0001:000026c0       _$E8                       004036c0 f   main.obj
 0001:000026d0       _$E5                       004036d0 f   main.obj
 0001:000026e0       _$E7                       004036e0 f   main.obj
 0001:000026f0       _$E6                       004036f0 f   main.obj
 0001:00002f90       _$E13                      00403f90 f   main.obj
 0001:00002fa0       _$E10                      00403fa0 f   main.obj
 0001:00002fe0       _$E12                      00403fe0 f   main.obj
 0001:00002ff0       _$E11                      00403ff0 f   main.obj
 0001:00000000       _$E2                       00401000 f   GlobalFun.obj
 0001:00000010       _$E1                       00401010 f   GlobalFun.obj
 0001:00000030       _$E5                       00401030 f   GlobalFun.obj
 0001:00000040       _$E4                       00401040 f   GlobalFun.obj
 0001:00000060       _$E8                       00401060 f   GlobalFun.obj
 0001:00000070       _$E7                       00401070 f   GlobalFun.obj
 0001:00000090       _$E11                      00401090 f   GlobalFun.obj
 0001:000000a0       _$E10                      004010a0 f   GlobalFun.obj
 0001:000000c0       _$E14                      004010c0 f   GlobalFun.obj
 0001:000000d0       _$E13                      004010d0 f   GlobalFun.obj
 0001:000000f0       _$E17                      004010f0 f   GlobalFun.obj
 0001:00000100       _$E16                      00401100 f   GlobalFun.obj
 0001:00000120       _$E20                      00401120 f   GlobalFun.obj
 0001:00000130       _$E19                      00401130 f   GlobalFun.obj
 0001:00000150       _$E23                      00401150 f   GlobalFun.obj
 0001:00000160       _$E22                      00401160 f   GlobalFun.obj
 0001:00000180       _$E26                      00401180 f   GlobalFun.obj
 0001:00000190       _$E25                      00401190 f   GlobalFun.obj
 0001:000006c0       ?IsEnterKey@@YAHPBDPAH@Z   004016c0 f   GlobalFun.obj
 0001:00000760       ?GetFirstLineLen@@YAJPBD@Z 00401760 f   GlobalFun.obj
 0001:000007f0       ?GetPrivateProfileKeyPos@@YAHPBD00AAJ1@Z 004017f0 f   GlobalFun.obj
 0001:000009a0       ?GetStrInStrPos@@YAHPBD0AAJ@Z 004019a0 f   GlobalFun.obj
 0001:00000a10       ?GetKeyValue@@YAPADPBDAAJ@Z 00401a10 f   GlobalFun.obj
 0001:0002f406       _xtoa                      00430406 f   LIBCMT:xtoa.obj
 0001:0002f4d8       _x64toa@20                 004304d8 f   LIBCMT:xtoa.obj
 0001:0002e8fa       __expandtime               0042f8fa f   LIBCMT:strftime.obj
 0001:0002ece9       __store_str                0042fce9 f   LIBCMT:strftime.obj
 0001:0002ed10       __store_num                0042fd10 f   LIBCMT:strftime.obj
 0001:0002ed7f       __store_number             0042fd7f f   LIBCMT:strftime.obj
 0001:0002edc8       __store_winword            0042fdc8 f   LIBCMT:strftime.obj
 0001:0002e3d0       _findenv                   0042f3d0 f   LIBCMT:setenv.obj
 0001:0002e428       _copy_environ              0042f428 f   LIBCMT:setenv.obj
 0001:0002e21e       _strncnt                   0042f21e f   LIBCMT:a_cmp.obj
 0001:0002d877       _TranslateName             0042e877 f   LIBCMT:getqloc.obj
 0001:0002d8cf       _GetLcidFromLangCountry    0042e8cf f   LIBCMT:getqloc.obj
 0001:0002d956       _LangCountryEnumProc@4     0042e956 f   LIBCMT:getqloc.obj
 0001:0002db5a       _GetLcidFromLanguage       0042eb5a f   LIBCMT:getqloc.obj
 0001:0002dbb0       _LanguageEnumProc@4        0042ebb0 f   LIBCMT:getqloc.obj
 0001:0002dc6d       _GetLcidFromCountry        0042ec6d f   LIBCMT:getqloc.obj
 0001:0002dca4       _CountryEnumProc@4         0042eca4 f   LIBCMT:getqloc.obj
 0001:0002dd2a       _GetLcidFromDefault        0042ed2a f   LIBCMT:getqloc.obj
 0001:0002dd44       _ProcessCodePage           0042ed44 f   LIBCMT:getqloc.obj
 0001:0002ddaa       _TestDefaultCountry        0042edaa f   LIBCMT:getqloc.obj
 0001:0002ddc9       _TestDefaultLanguage       0042edc9 f   LIBCMT:getqloc.obj
 0001:0002de2b       _IsThisWindowsNT           0042ee2b f   LIBCMT:getqloc.obj
 0001:0002de61       _crtGetLocaleInfoA@16      0042ee61 f   LIBCMT:getqloc.obj
 0001:0002df47       _LcidFromHexString         0042ef47 f   LIBCMT:getqloc.obj
 0001:0002df80       _GetPrimaryLen             0042ef80 f   LIBCMT:getqloc.obj
 0001:0002d289       __get_lc_lconv             0042e289 f   LIBCMT:initmon.obj
 0001:0002d3ab       _fix_grouping              0042e3ab f   LIBCMT:initmon.obj
 0001:0002d3e2       __free_lc_lconv            0042e3e2 f   LIBCMT:initmon.obj
 0001:0002d187       _fix_grouping              0042e187 f   LIBCMT:initnum.obj
 0001:0002cad4       __get_lc_time              0042dad4 f   LIBCMT:inittime.obj
 0001:0002ce22       __free_lc_time             0042de22 f   LIBCMT:inittime.obj
 0001:0002c366       __setlocale_set_cat        0042d366 f   LIBCMT:setlocal.obj
 0001:0002c481       __setlocale_get_all        0042d481 f   LIBCMT:setlocal.obj
 0001:0002bb98       _strtoxl                   0042cb98 f   LIBCMT:strtol.obj
 0001:0002bb50       _x_ismbbtype               0042cb50 f   LIBCMT:ismbbyte.obj
 0001:0002b64e       _strncnt                   0042c64e f   LIBCMT:a_map.obj
 0001:0002a9b8       _ctrlevent_capture@4       0042b9b8 f   LIBCMT:winsig.obj
 0001:0002ab9c       _siglookup                 0042bb9c f   LIBCMT:winsig.obj
 0001:000286fe       _parse_cmdline             004296fe f   LIBCMT:stdargv.obj
 0001:00027d68       __tzset_lk                 00428d68 f   LIBCMT:tzset.obj
 0001:00028010       __isindst_lk               00429010 f   LIBCMT:tzset.obj
 0001:000281bc       _cvtdate                   004291bc f   LIBCMT:tzset.obj
 0001:00027731       _write_char                00428731 f   LIBCMT:output.obj
 0001:00027766       _write_multi_char          00428766 f   LIBCMT:output.obj
 0001:00027797       _write_string              00428797 f   LIBCMT:output.obj
 0001:000277cf       _get_int_arg               004287cf f   LIBCMT:output.obj
 0001:000277dc       _get_int64_arg             004287dc f   LIBCMT:output.obj
 0001:000277ec       _get_short_arg             004287ec f   LIBCMT:output.obj
 0001:00026dc1       _xcptlookup                00427dc1 f   LIBCMT:winxfltr.obj
 0001:00026bb2       _doexit                    00427bb2 f   LIBCMT:crt0dat.obj
 0001:00026c69       __initterm                 00427c69 f   LIBCMT:crt0dat.obj
 0001:00026773       _getSystemCP               00427773 f   LIBCMT:mbctype.obj
 0001:000267bd       _CPtoLCID                  004277bd f   LIBCMT:mbctype.obj
 0001:000267f0       _setSBCS                   004277f0 f   LIBCMT:mbctype.obj
 0001:00026819       _setSBUpLow                00427819 f   LIBCMT:mbctype.obj
 0001:00025a6a       ?FindHandler@@YAXPAUEHExceptionRecord@@PAUEHRegistrationNode@@PAU_CONTEXT@@PAXPBU_s_FuncInfo@@EH1@Z 00426a6a f   LIBCMT:frame.obj
 0001:00025c1d       ?FindHandlerForForeignException@@YAXPAUEHExceptionRecord@@PAUEHRegistrationNode@@PAU_CONTEXT@@PAXPBU_s_FuncInfo@@HH1@Z 00426c1d f   LIBCMT:frame.obj
 0001:00025cc7       ?TypeMatch@@YAHPBU_s_HandlerType@@PBU_s_CatchableType@@PBU_s_ThrowInfo@@@Z 00426cc7 f   LIBCMT:frame.obj
 0001:00025dc2       ?FrameUnwindFilter@@YAHPAU_EXCEPTION_POINTERS@@@Z 00426dc2 f   LIBCMT:frame.obj
 0001:00025dd8       ?CatchIt@@YAXPAUEHExceptionRecord@@PAUEHRegistrationNode@@PAU_CONTEXT@@PAXPBU_s_FuncInfo@@PBU_s_HandlerType@@PBU_s_CatchableType@@PBU_s_TryBlockMapEntry@@H1E@Z 00426dd8 f   LIBCMT:frame.obj
 0001:00025e53       ?CallCatchBlock@@YAPAXPAUEHExceptionRecord@@PAUEHRegistrationNode@@PAU_CONTEXT@@PBU_s_FuncInfo@@PAXHK@Z 00426e53 f   LIBCMT:frame.obj
 0001:00025f6e       ?ExFilterRethrow@@YAHPAU_EXCEPTION_POINTERS@@@Z 00426f6e f   LIBCMT:frame.obj
 0001:00025f98       ?BuildCatchObject@@YAXPAUEHExceptionRecord@@PAUEHRegistrationNode@@PBU_s_HandlerType@@PBU_s_CatchableType@@@Z 00426f98 f   LIBCMT:frame.obj
 0001:000261c3       ?AdjustPointer@@YAPAXPAXABUPMD@@@Z 004271c3 f   LIBCMT:frame.obj
 0001:00024d40       LeadUp1                    00425d40 f   LIBCMT:memcpy.obj
 0001:00024d6c       LeadUp2                    00425d6c f   LIBCMT:memcpy.obj
 0001:00024d90       LeadUp3                    00425d90 f   LIBCMT:memcpy.obj
 0001:00024e0f       UnwindUp0                  00425e0f f   LIBCMT:memcpy.obj
 0001:00024dfc       UnwindUp1                  00425dfc f   LIBCMT:memcpy.obj
 0001:00024df4       UnwindUp2                  00425df4 f   LIBCMT:memcpy.obj
 0001:00024dec       UnwindUp3                  00425dec f   LIBCMT:memcpy.obj
 0001:00024de4       UnwindUp4                  00425de4 f   LIBCMT:memcpy.obj
 0001:00024ddc       UnwindUp5                  00425ddc f   LIBCMT:memcpy.obj
 0001:00024dd4       UnwindUp6                  00425dd4 f   LIBCMT:memcpy.obj
 0001:00024dcc       UnwindUp7                  00425dcc f   LIBCMT:memcpy.obj
 0001:00024e28       TrailUp0                   00425e28 f   LIBCMT:memcpy.obj
 0001:00024e30       TrailUp1                   00425e30 f   LIBCMT:memcpy.obj
 0001:00024e3c       TrailUp2                   00425e3c f   LIBCMT:memcpy.obj
 0001:00024e50       TrailUp3                   00425e50 f   LIBCMT:memcpy.obj
 0001:00024ec8       LeadDown1                  00425ec8 f   LIBCMT:memcpy.obj
 0001:00024ee8       LeadDown2                  00425ee8 f   LIBCMT:memcpy.obj
 0001:00024f10       LeadDown3                  00425f10 f   LIBCMT:memcpy.obj
 0001:00024f64       UnwindDown7                00425f64 f   LIBCMT:memcpy.obj
 0001:00024f6c       UnwindDown6                00425f6c f   LIBCMT:memcpy.obj
 0001:00024f74       UnwindDown5                00425f74 f   LIBCMT:memcpy.obj
 0001:00024f7c       UnwindDown4                00425f7c f   LIBCMT:memcpy.obj
 0001:00024f84       UnwindDown3                00425f84 f   LIBCMT:memcpy.obj
 0001:00024f8c       UnwindDown2                00425f8c f   LIBCMT:memcpy.obj
 0001:00024f94       UnwindDown1                00425f94 f   LIBCMT:memcpy.obj
 0001:00024fa7       UnwindDown0                00425fa7 f   LIBCMT:memcpy.obj
 0001:00024fc0       TrailDown0                 00425fc0 f   LIBCMT:memcpy.obj
 0001:00024fc8       TrailDown1                 00425fc8 f   LIBCMT:memcpy.obj
 0001:00024fd8       TrailDown2                 00425fd8 f   LIBCMT:memcpy.obj
 0001:00024fec       TrailDown3                 00425fec f   LIBCMT:memcpy.obj
 0001:00024c29       _flsall                    00425c29 f   LIBCMT:fflush.obj
 0001:0002435b       _fast_error_exit           0042535b f   LIBCMT:wincrt0.obj
 0001:00023860       LeadUp1                    00424860 f   LIBCMT:memmove.obj
 0001:0002388c       LeadUp2                    0042488c f   LIBCMT:memmove.obj
 0001:000238b0       LeadUp3                    004248b0 f   LIBCMT:memmove.obj
 0001:0002392f       UnwindUp0                  0042492f f   LIBCMT:memmove.obj
 0001:0002391c       UnwindUp1                  0042491c f   LIBCMT:memmove.obj
 0001:00023914       UnwindUp2                  00424914 f   LIBCMT:memmove.obj
 0001:0002390c       UnwindUp3                  0042490c f   LIBCMT:memmove.obj
 0001:00023904       UnwindUp4                  00424904 f   LIBCMT:memmove.obj
 0001:000238fc       UnwindUp5                  004248fc f   LIBCMT:memmove.obj
 0001:000238f4       UnwindUp6                  004248f4 f   LIBCMT:memmove.obj
 0001:000238ec       UnwindUp7                  004248ec f   LIBCMT:memmove.obj
 0001:00023948       TrailUp0                   00424948 f   LIBCMT:memmove.obj
 0001:00023950       TrailUp1                   00424950 f   LIBCMT:memmove.obj
 0001:0002395c       TrailUp2                   0042495c f   LIBCMT:memmove.obj
 0001:00023970       TrailUp3                   00424970 f   LIBCMT:memmove.obj
 0001:000239e8       LeadDown1                  004249e8 f   LIBCMT:memmove.obj
 0001:00023a08       LeadDown2                  00424a08 f   LIBCMT:memmove.obj
 0001:00023a30       LeadDown3                  00424a30 f   LIBCMT:memmove.obj
 0001:00023a84       UnwindDown7                00424a84 f   LIBCMT:memmove.obj
 0001:00023a8c       UnwindDown6                00424a8c f   LIBCMT:memmove.obj
 0001:00023a94       UnwindDown5                00424a94 f   LIBCMT:memmove.obj
 0001:00023a9c       UnwindDown4                00424a9c f   LIBCMT:memmove.obj
 0001:00023aa4       UnwindDown3                00424aa4 f   LIBCMT:memmove.obj
 0001:00023aac       UnwindDown2                00424aac f   LIBCMT:memmove.obj
 0001:00023ab4       UnwindDown1                00424ab4 f   LIBCMT:memmove.obj
 0001:00023ac7       UnwindDown0                00424ac7 f   LIBCMT:memmove.obj
 0001:00023ae0       TrailDown0                 00424ae0 f   LIBCMT:memmove.obj
 0001:00023ae8       TrailDown1                 00424ae8 f   LIBCMT:memmove.obj
 0001:00023af8       TrailDown2                 00424af8 f   LIBCMT:memmove.obj
 0001:00023b0c       TrailDown3                 00424b0c f   LIBCMT:memmove.obj
 0001:000236ac       __threadstartex@4          004246ac f   LIBCMT:threadex.obj
 0001:0002347c       _gu_return                 0042447c f   LIBCMT:exsup.obj
 0001:00023484       __unwind_handler           00424484 f   LIBCMT:exsup.obj
 0001:00023299       ?CatchGuardHandler@@YA?AW4_EXCEPTION_DISPOSITION@@PAUEHExceptionRecord@@PAUCatchGuardRN@@PAX2@Z 00424299 f   LIBCMT:trnsctrl.obj
 0001:00023374       ?TranslatorGuardHandler@@YA?AW4_EXCEPTION_DISPOSITION@@PAUEHExceptionRecord@@PAUTranslatorGuardRN@@PAX2@Z 00424374 f   LIBCMT:trnsctrl.obj
 0001:00030248       _$E4                       00431248 f   comsupp:comutil.obj
 0001:00030252       _$E1                       00431252 f   comsupp:comutil.obj
 0001:00030264       _$E3                       00431264 f   comsupp:comutil.obj
 0001:00030270       _$E2                       00431270 f   comsupp:comutil.obj
 0001:0002fc3b       ?_com_invoke_helper@@YAJPAUIDispatch@@JGGPAXPBGPADPAPAUIErrorInfo@@@Z 00430c3b f   comsupp:comsupp.obj
