 GameServer

 Timestamp is 68b8da6b (Wed Sep 03 20:16:43 2025)

 Preferred load address is 00400000

 Start         Length     Name                   Class
 0001:00000000 00057b76H .text                   CODE
 0001:00057b80 00003fddH .text$x                 CODE
 0002:00000000 00000204H .idata$5                DATA
 0002:00000208 00002420H .rdata                  DATA
 0002:00002628 00001684H .rdata$r                DATA
 0002:00003cb0 00004fd0H .xdata$x                DATA
 0002:00008c80 0000008cH .idata$2                DATA
 0002:00008d0c 00000014H .idata$3                DATA
 0002:00008d20 00000204H .idata$4                DATA
 0002:00008f24 00000910H .idata$6                DATA
 0002:00009834 00000000H .edata                  DATA
 0003:00000000 00000004H .CRT$XCA                DATA
 0003:00000004 0000006cH .CRT$XCU                DATA
 0003:00000070 00000004H .CRT$XCZ                DATA
 0003:00000074 00000004H .CRT$XIA                DATA
 0003:00000078 0000000cH .CRT$XIC                DATA
 0003:00000084 00000004H .CRT$XIY                DATA
 0003:00000088 00000004H .CRT$XIZ                DATA
 0003:0000008c 00000004H .CRT$XPA                DATA
 0003:00000090 00000004H .CRT$XPX                DATA
 0003:00000094 00000004H .CRT$XPZ                DATA
 0003:00000098 00000004H .CRT$XTA                DATA
 0003:0000009c 00000004H .CRT$XTB                DATA
 0003:000000a0 00000004H .CRT$XTZ                DATA
 0003:000000b0 000064ccH .data                   DATA
 0003:00006580 00003190H .bss                    DATA
 0004:00000000 00000020H STLPORT_NO_INIT         DATA

  Address         Publics by Value              Rva+Base     Lib:Object

 0001:00000000       _main                      00401000 f   GameServer.obj
 0001:000002b0       ?ServerEventNotify@@YGXPAXABK1@Z 004012b0 f   KSOServer.obj
 0001:00000330       ??1Owner@CCriticalSection@Win32@OnlineGameLib@@QAE@XZ 00401330 f i KSOServer.obj
 0001:00000340       ?GatewayClientEventNotify@@YGXPAXABK@Z 00401340 f   KSOServer.obj
 0001:00000370       ?ChatClientEventNotify@@YGXPAXABK@Z 00401370 f   KSOServer.obj
 0001:00000390       ?TongClientEventNotify@@YGXPAXABK@Z 00401390 f   KSOServer.obj
 0001:000003b0       ?DatabaseClientEventNotify@@YGXPAXABK@Z 004013b0 f   KSOServer.obj
 0001:000003e0       ?TransferClientEventNotify@@YGXPAXABK@Z 004013e0 f   KSOServer.obj
 0001:000003f0       ??0KSwordOnLineSever@@QAE@XZ 004013f0 f   KSOServer.obj
 0001:00000530       ??1KSwordOnLineSever@@QAE@XZ 00401530 f   KSOServer.obj
 0001:000005e0       ?Init@KSwordOnLineSever@@QAEHXZ 004015e0 f   KSOServer.obj
 0001:000013a0       ?_M_check_exception_mask@ios_base@_STL@@IAEXXZ 004023a0 f i KSOServer.obj
 0001:000013b0       ??_H@YGXPAXIHP6EX0@Z@Z     004023b0 f i KSOServer.obj
 0001:000013e0       ?Release@KSwordOnLineSever@@QAEXXZ 004023e0 f   KSOServer.obj
 0001:00001600       ?Breathe@KSwordOnLineSever@@QAEHXZ 00402600 f   KSOServer.obj
 0001:00001680       ?MessageLoop@KSwordOnLineSever@@AAEXXZ 00402680 f   KSOServer.obj
 0001:00001880       ?ChatMessageProcess@KSwordOnLineSever@@AAEXPBDI@Z 00402880 f   KSOServer.obj
 0001:00001960       ?TongMessageProcess@KSwordOnLineSever@@AAEXPBDI@Z 00402960 f   KSOServer.obj
 0001:000025f0       ?ChatGroupMan@KSwordOnLineSever@@AAEXPBXI@Z 004035f0 f   KSOServer.obj
 0001:000026a0       ?ChatSpecMan@KSwordOnLineSever@@AAEXPBXI@Z 004036a0 f   KSOServer.obj
 0001:00002700       ?DatabaseMessageProcess@KSwordOnLineSever@@AAEXPBDI@Z 00403700 f   KSOServer.obj
 0001:00002770       ?DatabaseLargePackProcess@KSwordOnLineSever@@AAEXPBDI@Z 00403770 f   KSOServer.obj
 0001:00002800       ?TransferMessageProcess@KSwordOnLineSever@@AAEXPBDI@Z 00403800 f   KSOServer.obj
 0001:00002a60       ?TransferLargePackProcess@KSwordOnLineSever@@AAEXPBXIPAVKTransferUnit@@@Z 00403a60 f   KSOServer.obj
 0001:00002ce0       ?TransferSmallPackProcess@KSwordOnLineSever@@AAEXPBXIPAVKTransferUnit@@@Z 00403ce0 f   KSOServer.obj
 0001:000032e0       ?PlayerMessageProcess@KSwordOnLineSever@@AAEXKPBDI@Z 004042e0 f   KSOServer.obj
 0001:00003780       ?GatewayMessageProcess@KSwordOnLineSever@@AAEXPBDI@Z 00404780 f   KSOServer.obj
 0001:000037b0       ?GatewayLargePackProcess@KSwordOnLineSever@@AAEXPBXI@Z 004047b0 f   KSOServer.obj
 0001:000039c0       ?GatewaySmallPackProcess@KSwordOnLineSever@@AAEXPBXI@Z 004049c0 f   KSOServer.obj
 0001:00003af0       ?GatewayBoardCastProcess@KSwordOnLineSever@@AAEXPBDI@Z 00404af0 f   KSOServer.obj
 0001:00003bb0       ?MainLoop@KSwordOnLineSever@@AAEXXZ 00404bb0 f   KSOServer.obj
 0001:00003d10       ?PingClient@KSwordOnLineSever@@AAEXK@Z 00404d10 f   KSOServer.obj
 0001:00003d80       ?ProcessPingReply@KSwordOnLineSever@@AAEXKPBDI@Z 00404d80 f   KSOServer.obj
 0001:00003e20       ?SavePlayerData@KSwordOnLineSever@@AAEXXZ 00404e20 f   KSOServer.obj
 0001:00003e90       ?SavePlayerData@KSwordOnLineSever@@AAEHH_N@Z 00404e90 f   KSOServer.obj
 0001:00004040       ?PlayerExchangeServer@KSwordOnLineSever@@AAEXXZ 00405040 f   KSOServer.obj
 0001:00004270       ?PlayerLogoutGateway@KSwordOnLineSever@@AAEXXZ 00405270 f   KSOServer.obj
 0001:00004480       ?GetNetStatus@KSwordOnLineSever@@QAEHK@Z 00405480 f   KSOServer.obj
 0001:000044a0       ?SetNetStatus@KSwordOnLineSever@@QAEXKW4NetStatus@@@Z 004054a0 f   KSOServer.obj
 0001:000045a0       ?ProcessLoginProtocol@KSwordOnLineSever@@AAEHKPBDI@Z 004055a0 f   KSOServer.obj
 0001:000045d0       ?SendGameDataToClient@KSwordOnLineSever@@AAEHKH@Z 004055d0 f   KSOServer.obj
 0001:000046d0       ?ProcessSyncReplyProtocol@KSwordOnLineSever@@AAEHKPBDI@Z 004056d0 f   KSOServer.obj
 0001:000046e0       ?ExitAllPlayer@KSwordOnLineSever@@AAEXXZ 004056e0 f   KSOServer.obj
 0001:00004870       ?SetRunningStatus@KSwordOnLineSever@@QAEXH@Z 00405870 f   KSOServer.obj
 0001:00004880       ?ConformAskWay@KSwordOnLineSever@@AAEHPBXHPAK@Z 00405880 f   KSOServer.obj
 0001:000048f0       ?GetLocalIpAddress@KSwordOnLineSever@@AAEHPAK0@Z 004058f0 f   KSOServer.obj
 0001:00004ae0       ?TransferAskWayMessageProcess@KSwordOnLineSever@@AAEXPBDI@Z 00405ae0 f   KSOServer.obj
 0001:00004c80       ?TransferLoseWayMessageProcess@KSwordOnLineSever@@AAEXPBDI@Z 00405c80 f   KSOServer.obj
 0001:00004de0       ?ProcessPlayerTongMsg@KSwordOnLineSever@@AAEXKPBDI@Z 00405de0 f   KSOServer.obj
 0001:00005700       ?CheckPlayerID@KSwordOnLineSever@@AAEHKK@Z 00406700 f   KSOServer.obj
 0001:00005750       ?begin@?$_Rb_tree@KU?$pair@$$CBKPAVKTransferUnit@@@_STL@@U?$_Select1st@U?$pair@$$CBKPAVKTransferUnit@@@_STL@@@2@U?$less@K@2@V?$allocator@U?$pair@$$CBKPAVKTransferUnit@@@_STL@@@2@@_STL@@QAE?AU?$_Rb_tree_iterator@U?$pair@$$CBKPAVKTransferUnit@@@_STL@@U?$_Nonconst_traits@U?$pair@$$CBKPAVKTransferUnit@@@_STL@@@2@@2@XZ 00406750 f i KSOServer.obj
 0001:00005760       ??1?$_Rb_tree_base@U?$pair@$$CBKPAVKTransferUnit@@@_STL@@V?$allocator@U?$pair@$$CBKPAVKTransferUnit@@@_STL@@@2@@_STL@@QAE@XZ 00406760 f i KSOServer.obj
 0001:000057b0       ??1?$allocator@U?$pair@$$CBKPAVKTransferUnit@@@_STL@@@_STL@@QAE@XZ 004067b0 f i KSOServer.obj
 0001:000057c0       ??0?$pair@U?$_Rb_tree_iterator@U?$pair@$$CBKPAVKTransferUnit@@@_STL@@U?$_Nonconst_traits@U?$pair@$$CBKPAVKTransferUnit@@@_STL@@@2@@_STL@@_N@_STL@@QAE@ABU01@@Z 004067c0 f i KSOServer.obj
 0001:000057e0       ??1?$_STLP_alloc_proxy@PAU?$_Rb_tree_node@U?$pair@$$CBKPAVKTransferUnit@@@_STL@@@_STL@@U12@V?$allocator@U?$pair@$$CBKPAVKTransferUnit@@@_STL@@@2@@_STL@@QAE@XZ 004067e0 f i KSOServer.obj
 0001:000057f0       ?deallocate@?$allocator@U?$_Rb_tree_node@U?$pair@$$CBKPAVKTransferUnit@@@_STL@@@_STL@@@_STL@@QBEXPAU?$_Rb_tree_node@U?$pair@$$CBKPAVKTransferUnit@@@_STL@@@2@I@Z 004067f0 f i KSOServer.obj
 0001:00005830       ?deallocate@?$__node_alloc@$00$0A@@_STL@@SAXPAXI@Z 00406830 f i KSOServer.obj
 0001:00005860       ?_M_put_nowiden@?$basic_ostream@DV?$char_traits@D@_STL@@@_STL@@QAEXPBD@Z 00406860 f i KSOServer.obj
 0001:00005a80       ?_M_erase@?$_Rb_tree@KU?$pair@$$CBKPAVKTransferUnit@@@_STL@@U?$_Select1st@U?$pair@$$CBKPAVKTransferUnit@@@_STL@@@2@U?$less@K@2@V?$allocator@U?$pair@$$CBKPAVKTransferUnit@@@_STL@@@2@@_STL@@AAEXPAU?$_Rb_tree_node@U?$pair@$$CBKPAVKTransferUnit@@@_STL@@@2@@Z 00406a80 f i KSOServer.obj
 0001:00005ac0       ?_M_put_num@_STL@@YAAAV?$basic_ostream@DV?$char_traits@D@_STL@@@1@AAV21@J@Z 00406ac0 f i KSOServer.obj
 0001:00005c40       ?getloc@ios_base@_STL@@QBE?AVlocale@2@XZ 00406c40 f i KSOServer.obj
 0001:00005c60       ?_M_put_num@_STL@@YAAAV?$basic_ostream@DV?$char_traits@D@_STL@@@1@AAV21@K@Z 00406c60 f i KSOServer.obj
 0001:00005de0       ?flush@?$basic_ostream@DV?$char_traits@D@_STL@@@_STL@@QAEAAV12@XZ 00406de0 f i KSOServer.obj
 0001:00005e30       ??1sentry@?$basic_ostream@DV?$char_traits@D@_STL@@@_STL@@QAE@XZ 00406e30 f i KSOServer.obj
 0001:00005e80       ??0?$pair@U?$_Rb_tree_iterator@U?$pair@$$CBKPAVKTransferUnit@@@_STL@@U?$_Nonconst_traits@U?$pair@$$CBKPAVKTransferUnit@@@_STL@@@2@@_STL@@_N@_STL@@QAE@ABU?$_Rb_tree_iterator@U?$pair@$$CBKPAVKTransferUnit@@@_STL@@U?$_Nonconst_traits@U?$pair@$$CBKPAVKTransferUnit@@@_STL@@@2@@1@AB_N@Z 00406e80 f i KSOServer.obj
 0001:00005ea0       ?clear@?$basic_ios@DV?$char_traits@D@_STL@@@_STL@@QAEXH@Z 00406ea0 f i KSOServer.obj
 0001:00005ec0       ?put@?$basic_ostream@DV?$char_traits@D@_STL@@@_STL@@QAEAAV12@D@Z 00406ec0 f i KSOServer.obj
 0001:00006020       ?_M_insert@?$_Rb_tree@KU?$pair@$$CBKPAVKTransferUnit@@@_STL@@U?$_Select1st@U?$pair@$$CBKPAVKTransferUnit@@@_STL@@@2@U?$less@K@2@V?$allocator@U?$pair@$$CBKPAVKTransferUnit@@@_STL@@@2@@_STL@@AAE?AU?$_Rb_tree_iterator@U?$pair@$$CBKPAVKTransferUnit@@@_STL@@U?$_Nonconst_traits@U?$pair@$$CBKPAVKTransferUnit@@@_STL@@@2@@2@PAU_Rb_tree_node_base@2@0ABU?$pair@$$CBKPAVKTransferUnit@@@2@0@Z 00407020 f i KSOServer.obj
 0001:000060c0       ?_M_find@?$_Rb_tree@KU?$pair@$$CBKPAVKTransferUnit@@@_STL@@U?$_Select1st@U?$pair@$$CBKPAVKTransferUnit@@@_STL@@@2@U?$less@K@2@V?$allocator@U?$pair@$$CBKPAVKTransferUnit@@@_STL@@@2@@_STL@@ABEPAU?$_Rb_tree_node@U?$pair@$$CBKPAVKTransferUnit@@@_STL@@@2@ABK@Z 004070c0 f i KSOServer.obj
 0001:00006100       ?_M_init@_STL@@YA_NAAV?$basic_ostream@DV?$char_traits@D@_STL@@@1@@Z 00407100 f i KSOServer.obj
 0001:000061a0       ?_M_create_node@?$_Rb_tree@KU?$pair@$$CBKPAVKTransferUnit@@@_STL@@U?$_Select1st@U?$pair@$$CBKPAVKTransferUnit@@@_STL@@@2@U?$less@K@2@V?$allocator@U?$pair@$$CBKPAVKTransferUnit@@@_STL@@@2@@_STL@@IAEPAU?$_Rb_tree_node@U?$pair@$$CBKPAVKTransferUnit@@@_STL@@@2@ABU?$pair@$$CBKPAVKTransferUnit@@@2@@Z 004071a0 f i KSOServer.obj
 0001:000061d0       ??0KTransferUnit@@QAE@KK@Z 004071d0 f   KTransferUnit.obj
 0001:00006210       ??_EKTransferUnit@@UAEPAXI@Z 00407210 f i KTransferUnit.obj
 0001:00006210       ??_GKTransferUnit@@UAEPAXI@Z 00407210 f i KTransferUnit.obj
 0001:00006230       ??1KTransferUnit@@UAE@XZ   00407230 f   KTransferUnit.obj
 0001:00006240       ??0CLibrary@Win32@OnlineGameLib@@QAE@QBD@Z 00407240 f   Common:Library.obj
 0001:000062c0       ??_ECLibrary@Win32@OnlineGameLib@@UAEPAXI@Z 004072c0 f i Common:Library.obj
 0001:000062c0       ??_GCLibrary@Win32@OnlineGameLib@@UAEPAXI@Z 004072c0 f i Common:Library.obj
 0001:000062e0       ??0CLibrary@Win32@OnlineGameLib@@QAE@XZ 004072e0 f   Common:Library.obj
 0001:00006350       ??1CLibrary@Win32@OnlineGameLib@@UAE@XZ 00407350 f   Common:Library.obj
 0001:000063e0       ?Load@CLibrary@Win32@OnlineGameLib@@QAE_NQBD@Z 004073e0 f   Common:Library.obj
 0001:000064a0       ?Free@CLibrary@Win32@OnlineGameLib@@QAE_NXZ 004074a0 f   Common:Library.obj
 0001:000064c0       ??1?$basic_string@DV?$char_traits@D@_STL@@V?$allocator@D@2@@_STL@@QAE@XZ 004074c0 f i Common:Library.obj
 0001:00006530       ??1?$_String_base@DV?$allocator@D@_STL@@@_STL@@QAE@XZ 00407530 f i Common:Library.obj
 0001:000065a0       ??1?$_STLP_alloc_proxy@PADDV?$allocator@D@_STL@@@_STL@@QAE@XZ 004075a0 f i Common:Library.obj
 0001:000065b0       ?append@?$basic_string@DV?$char_traits@D@_STL@@V?$allocator@D@2@@_STL@@AAEAAV12@PBD0ABUforward_iterator_tag@2@@Z 004075b0 f i Common:Library.obj
 0001:00006740       ?__copy_ptrs@_STL@@YAPADPAD00ABU__false_type@1@@Z 00407740 f i Common:Library.obj
 0001:00006770       ??0CUsesWinsock@Win32@OnlineGameLib@@QAE@XZ 00407770 f   Common:UsesWinsock.obj
 0001:00006840       ?__copy_trivial@_STL@@YAPAXPBX0PAX@Z 00407840 f i Common:UsesWinsock.obj
 0001:00006870       ??1CWin32Exception@Win32@OnlineGameLib@@UAE@XZ 00407870 f i Common:UsesWinsock.obj
 0001:00006930       ??_ECException@Win32@OnlineGameLib@@UAEPAXI@Z 00407930 f i Common:UsesWinsock.obj
 0001:00006930       ??_GCException@Win32@OnlineGameLib@@UAEPAXI@Z 00407930 f i Common:UsesWinsock.obj
 0001:00006950       ??1CException@Win32@OnlineGameLib@@UAE@XZ 00407950 f i Common:UsesWinsock.obj
 0001:00006a10       ??0CWin32Exception@Win32@OnlineGameLib@@QAE@ABV012@@Z 00407a10 f i Common:UsesWinsock.obj
 0001:00006b50       ?__stl_new@_STL@@YAPAXI@Z  00407b50 f i Common:UsesWinsock.obj
 0001:00006b60       ??0CException@Win32@OnlineGameLib@@QAE@ABV012@@Z 00407b60 f i Common:UsesWinsock.obj
 0001:00006ca0       ??_GCWin32Exception@Win32@OnlineGameLib@@UAEPAXI@Z 00407ca0 f i Common:UsesWinsock.obj
 0001:00006ca0       ??_ECWin32Exception@Win32@OnlineGameLib@@UAEPAXI@Z 00407ca0 f i Common:UsesWinsock.obj
 0001:00006cc0       ??1CUsesWinsock@Win32@OnlineGameLib@@QAE@XZ 00407cc0 f   Common:UsesWinsock.obj
 0001:00006cd0       ??1?$allocator@D@_STL@@QAE@XZ 00407cd0 f i Common:UsesWinsock.obj
 0001:00006ce0       ?get_allocator@?$basic_string@DV?$char_traits@D@_STL@@V?$allocator@D@2@@_STL@@QBE?AV?$allocator@D@2@XZ 00407ce0 f i Common:UsesWinsock.obj
 0001:00006d00       ?_M_allocate_block@?$_String_base@DV?$allocator@D@_STL@@@_STL@@QAEXI@Z 00407d00 f i Common:UsesWinsock.obj
 0001:00006d60       ?uninitialized_copy@_STL@@YAPADPAD00@Z 00407d60 f i Common:UsesWinsock.obj
 0001:00006d90       ?__copy_aux@_STL@@YAPADPAD00ABU__true_type@1@@Z 00407d90 f i Common:UsesWinsock.obj
 0001:00006dc0       ??0CBuffer@Win32@OnlineGameLib@@AAE@AAVAllocator@012@I@Z 00407dc0 f   Common:Buffer.obj
 0001:00006e40       ??1COpaqueUserData@OnlineGameLib@@IAE@XZ 00407e40 f i Common:Buffer.obj
 0001:00006e50       ??1CBuffer@Win32@OnlineGameLib@@AAE@XZ 00407e50 f   Common:Buffer.obj
 0001:00006eb0       ?GetHeadPack@CBuffer@Win32@OnlineGameLib@@QAEPAV123@I@Z 00407eb0 f   Common:Buffer.obj
 0001:00006f00       ?GetNextPack@CBuffer@Win32@OnlineGameLib@@QAEPAV123@XZ 00407f00 f   Common:Buffer.obj
 0001:00006f50       ?AddData@CBuffer@Win32@OnlineGameLib@@QAEXQBDI@Z 00407f50 f   Common:Buffer.obj
 0001:00007090       ?AddData@CBuffer@Win32@OnlineGameLib@@QAEXQBEI@Z 00408090 f   Common:Buffer.obj
 0001:000070b0       ?AddData@CBuffer@Win32@OnlineGameLib@@QAEXE@Z 004080b0 f   Common:Buffer.obj
 0001:000070c0       ?SplitBuffer@CBuffer@Win32@OnlineGameLib@@QAEPAV123@I@Z 004080c0 f   Common:Buffer.obj
 0001:00007110       ?AllocateNewBuffer@CBuffer@Win32@OnlineGameLib@@QBEPAV123@XZ 00408110 f   Common:Buffer.obj
 0001:00007120       ?Release@CBuffer@Win32@OnlineGameLib@@QAEXXZ 00408120 f   Common:Buffer.obj
 0001:00007240       ??2CBuffer@Win32@OnlineGameLib@@CAPAXII@Z 00408240 f   Common:Buffer.obj
 0001:00007250       ??3CBuffer@Win32@OnlineGameLib@@CAXPAXI@Z 00408250 f   Common:Buffer.obj
 0001:00007260       ??0Allocator@CBuffer@Win32@OnlineGameLib@@QAE@II@Z 00408260 f   Common:Buffer.obj
 0001:000072a0       ?OnBufferCreated@Allocator@CBuffer@Win32@OnlineGameLib@@EAEXXZ 004082a0 f i Common:Buffer.obj
 0001:000072b0       ?OnBufferAllocated@Allocator@CBuffer@Win32@OnlineGameLib@@EAEXXZ 004082b0 f i Common:Buffer.obj
 0001:000072c0       ?OnBufferReleased@Allocator@CBuffer@Win32@OnlineGameLib@@EAEXXZ 004082c0 f i Common:Buffer.obj
 0001:000072d0       ??_EAllocator@CBuffer@Win32@OnlineGameLib@@UAEPAXI@Z 004082d0 f i Common:Buffer.obj
 0001:000072d0       ??_GAllocator@CBuffer@Win32@OnlineGameLib@@UAEPAXI@Z 004082d0 f i Common:Buffer.obj
 0001:000072f0       ??1Allocator@CBuffer@Win32@OnlineGameLib@@UAE@XZ 004082f0 f   Common:Buffer.obj
 0001:00007360       ??1CCriticalSection@Win32@OnlineGameLib@@QAE@XZ 00408360 f i Common:Buffer.obj
 0001:00007370       ?Allocate@Allocator@CBuffer@Win32@OnlineGameLib@@QAEPAV234@XZ 00408370 f   Common:Buffer.obj
 0001:00007500       ?Flush@Allocator@CBuffer@Win32@OnlineGameLib@@IAEXXZ 00408500 f   Common:Buffer.obj
 0001:000075a0       ?DestroyBuffer@Allocator@CBuffer@Win32@OnlineGameLib@@AAEXPAV234@@Z 004085a0 f i Common:Buffer.obj
 0001:00007600       ?Release@Allocator@CBuffer@Win32@OnlineGameLib@@AAEXPAV234@@Z 00408600 f   Common:Buffer.obj
 0001:00007740       ??0CPackager@Win32@OnlineGameLib@@QAE@II@Z 00408740 f   Common:Buffer.obj
 0001:00007810       ??_GCPackager@Win32@OnlineGameLib@@UAEPAXI@Z 00408810 f i Common:Buffer.obj
 0001:00007810       ??_ECPackager@Win32@OnlineGameLib@@UAEPAXI@Z 00408810 f i Common:Buffer.obj
 0001:00007830       ??1?$map@EPAVCBuffer@Win32@OnlineGameLib@@U?$less@E@_STL@@V?$allocator@U?$pair@$$CBEPAVCBuffer@Win32@OnlineGameLib@@@_STL@@@5@@_STL@@QAE@XZ 00408830 f i Common:Buffer.obj
 0001:000078d0       ??1CPackager@Win32@OnlineGameLib@@UAE@XZ 004088d0 f   Common:Buffer.obj
 0001:000079c0       ?AddData@CPackager@Win32@OnlineGameLib@@QAEXEQBDIK@Z 004089c0 f   Common:Buffer.obj
 0001:00007b60       ?AddData@CPackager@Win32@OnlineGameLib@@QAEXEQBEIK@Z 00408b60 f   Common:Buffer.obj
 0001:00007b80       ?DelData@CPackager@Win32@OnlineGameLib@@QAEXE@Z 00408b80 f   Common:Buffer.obj
 0001:00007cf0       ?GetHeadPack@CPackager@Win32@OnlineGameLib@@QAEPAVCBuffer@23@EI@Z 00408cf0 f   Common:Buffer.obj
 0001:00007e80       ?GetNextPack@CPackager@Win32@OnlineGameLib@@QAEPAVCBuffer@23@E@Z 00408e80 f   Common:Buffer.obj
 0001:00008000       ?PackUp@CPackager@Win32@OnlineGameLib@@QAEPAVCBuffer@23@PBXI@Z 00409000 f   Common:Buffer.obj
 0001:000081e0       ?Empty@CPackager@Win32@OnlineGameLib@@QAEXXZ 004091e0 f   Common:Buffer.obj
 0001:00008360       ?begin@?$map@EPAVCBuffer@Win32@OnlineGameLib@@U?$less@E@_STL@@V?$allocator@U?$pair@$$CBEPAVCBuffer@Win32@OnlineGameLib@@@_STL@@@5@@_STL@@QAE?AU?$_Rb_tree_iterator@U?$pair@$$CBEPAVCBuffer@Win32@OnlineGameLib@@@_STL@@U?$_Nonconst_traits@U?$pair@$$CBEPAVCBuffer@Win32@OnlineGameLib@@@_STL@@@2@@2@XZ 00409360 f i Common:Buffer.obj
 0001:00008370       ?end@?$map@EPAVCBuffer@Win32@OnlineGameLib@@U?$less@E@_STL@@V?$allocator@U?$pair@$$CBEPAVCBuffer@Win32@OnlineGameLib@@@_STL@@@5@@_STL@@QAE?AU?$_Rb_tree_iterator@U?$pair@$$CBEPAVCBuffer@Win32@OnlineGameLib@@@_STL@@U?$_Nonconst_traits@U?$pair@$$CBEPAVCBuffer@Win32@OnlineGameLib@@@_STL@@@2@@2@XZ 00409370 f i Common:Buffer.obj
 0001:00008380       ?erase@?$map@EPAVCBuffer@Win32@OnlineGameLib@@U?$less@E@_STL@@V?$allocator@U?$pair@$$CBEPAVCBuffer@Win32@OnlineGameLib@@@_STL@@@5@@_STL@@QAEXU?$_Rb_tree_iterator@U?$pair@$$CBEPAVCBuffer@Win32@OnlineGameLib@@@_STL@@U?$_Nonconst_traits@U?$pair@$$CBEPAVCBuffer@Win32@OnlineGameLib@@@_STL@@@2@@2@0@Z 00409380 f i Common:Buffer.obj
 0001:000083b0       ??0?$_Rb_tree_iterator@U?$pair@$$CBEPAVCBuffer@Win32@OnlineGameLib@@@_STL@@U?$_Nonconst_traits@U?$pair@$$CBEPAVCBuffer@Win32@OnlineGameLib@@@_STL@@@2@@_STL@@QAE@ABU01@@Z 004093b0 f i Common:Buffer.obj
 0001:000083c0       ?insert@?$map@EPAVCBuffer@Win32@OnlineGameLib@@U?$less@E@_STL@@V?$allocator@U?$pair@$$CBEPAVCBuffer@Win32@OnlineGameLib@@@_STL@@@5@@_STL@@QAE?AU?$_Rb_tree_iterator@U?$pair@$$CBEPAVCBuffer@Win32@OnlineGameLib@@@_STL@@U?$_Nonconst_traits@U?$pair@$$CBEPAVCBuffer@Win32@OnlineGameLib@@@_STL@@@2@@2@U32@ABU?$pair@$$CBEPAVCBuffer@Win32@OnlineGameLib@@@2@@Z 004093c0 f i Common:Buffer.obj
 0001:000083f0       ?lower_bound@?$map@EPAVCBuffer@Win32@OnlineGameLib@@U?$less@E@_STL@@V?$allocator@U?$pair@$$CBEPAVCBuffer@Win32@OnlineGameLib@@@_STL@@@5@@_STL@@QAE?AU?$_Rb_tree_iterator@U?$pair@$$CBEPAVCBuffer@Win32@OnlineGameLib@@@_STL@@U?$_Nonconst_traits@U?$pair@$$CBEPAVCBuffer@Win32@OnlineGameLib@@@_STL@@@2@@2@ABE@Z 004093f0 f i Common:Buffer.obj
 0001:00008430       ?begin@?$_Rb_tree@EU?$pair@$$CBEPAVCBuffer@Win32@OnlineGameLib@@@_STL@@U?$_Select1st@U?$pair@$$CBEPAVCBuffer@Win32@OnlineGameLib@@@_STL@@@2@U?$less@E@2@V?$allocator@U?$pair@$$CBEPAVCBuffer@Win32@OnlineGameLib@@@_STL@@@2@@_STL@@QAE?AU?$_Rb_tree_iterator@U?$pair@$$CBEPAVCBuffer@Win32@OnlineGameLib@@@_STL@@U?$_Nonconst_traits@U?$pair@$$CBEPAVCBuffer@Win32@OnlineGameLib@@@_STL@@@2@@2@XZ 00409430 f i Common:Buffer.obj
 0001:00008440       ?end@?$_Rb_tree@EU?$pair@$$CBEPAVCBuffer@Win32@OnlineGameLib@@@_STL@@U?$_Select1st@U?$pair@$$CBEPAVCBuffer@Win32@OnlineGameLib@@@_STL@@@2@U?$less@E@2@V?$allocator@U?$pair@$$CBEPAVCBuffer@Win32@OnlineGameLib@@@_STL@@@2@@_STL@@QAE?AU?$_Rb_tree_iterator@U?$pair@$$CBEPAVCBuffer@Win32@OnlineGameLib@@@_STL@@U?$_Nonconst_traits@U?$pair@$$CBEPAVCBuffer@Win32@OnlineGameLib@@@_STL@@@2@@2@XZ 00409440 f i Common:Buffer.obj
 0001:00008450       ?erase@?$_Rb_tree@EU?$pair@$$CBEPAVCBuffer@Win32@OnlineGameLib@@@_STL@@U?$_Select1st@U?$pair@$$CBEPAVCBuffer@Win32@OnlineGameLib@@@_STL@@@2@U?$less@E@2@V?$allocator@U?$pair@$$CBEPAVCBuffer@Win32@OnlineGameLib@@@_STL@@@2@@_STL@@QAEXU?$_Rb_tree_iterator@U?$pair@$$CBEPAVCBuffer@Win32@OnlineGameLib@@@_STL@@U?$_Nonconst_traits@U?$pair@$$CBEPAVCBuffer@Win32@OnlineGameLib@@@_STL@@@2@@2@0@Z 00409450 f i Common:Buffer.obj
 0001:000084f0       ??E?$_Rb_tree_iterator@U?$pair@$$CBEPAVCBuffer@Win32@OnlineGameLib@@@_STL@@U?$_Nonconst_traits@U?$pair@$$CBEPAVCBuffer@Win32@OnlineGameLib@@@_STL@@@2@@_STL@@QAE?AU01@H@Z 004094f0 f i Common:Buffer.obj
 0001:00008510       ??1?$_Rb_tree_base@U?$pair@$$CBEPAVCBuffer@Win32@OnlineGameLib@@@_STL@@V?$allocator@U?$pair@$$CBEPAVCBuffer@Win32@OnlineGameLib@@@_STL@@@2@@_STL@@QAE@XZ 00409510 f i Common:Buffer.obj
 0001:00008560       ??1?$allocator@U?$pair@$$CBEPAVCBuffer@Win32@OnlineGameLib@@@_STL@@@_STL@@QAE@XZ 00409560 f i Common:Buffer.obj
 0001:00008570       ??0?$pair@$$CBEPAVCBuffer@Win32@OnlineGameLib@@@_STL@@QAE@ABEABQAVCBuffer@Win32@OnlineGameLib@@@Z 00409570 f i Common:Buffer.obj
 0001:00008590       ??1?$_STLP_alloc_proxy@PAU?$_Rb_tree_node@U?$pair@$$CBEPAVCBuffer@Win32@OnlineGameLib@@@_STL@@@_STL@@U12@V?$allocator@U?$pair@$$CBEPAVCBuffer@Win32@OnlineGameLib@@@_STL@@@2@@_STL@@QAE@XZ 00409590 f i Common:Buffer.obj
 0001:000085a0       ?_M_empty_initialize@?$_Rb_tree@EU?$pair@$$CBEPAVCBuffer@Win32@OnlineGameLib@@@_STL@@U?$_Select1st@U?$pair@$$CBEPAVCBuffer@Win32@OnlineGameLib@@@_STL@@@2@U?$less@E@2@V?$allocator@U?$pair@$$CBEPAVCBuffer@Win32@OnlineGameLib@@@_STL@@@2@@_STL@@AAEXXZ 004095a0 f i Common:Buffer.obj
 0001:000085c0       ?erase@?$_Rb_tree@EU?$pair@$$CBEPAVCBuffer@Win32@OnlineGameLib@@@_STL@@U?$_Select1st@U?$pair@$$CBEPAVCBuffer@Win32@OnlineGameLib@@@_STL@@@2@U?$less@E@2@V?$allocator@U?$pair@$$CBEPAVCBuffer@Win32@OnlineGameLib@@@_STL@@@2@@_STL@@QAEXU?$_Rb_tree_iterator@U?$pair@$$CBEPAVCBuffer@Win32@OnlineGameLib@@@_STL@@U?$_Nonconst_traits@U?$pair@$$CBEPAVCBuffer@Win32@OnlineGameLib@@@_STL@@@2@@2@@Z 004095c0 f i Common:Buffer.obj
 0001:00008600       ?lower_bound@?$_Rb_tree@EU?$pair@$$CBEPAVCBuffer@Win32@OnlineGameLib@@@_STL@@U?$_Select1st@U?$pair@$$CBEPAVCBuffer@Win32@OnlineGameLib@@@_STL@@@2@U?$less@E@2@V?$allocator@U?$pair@$$CBEPAVCBuffer@Win32@OnlineGameLib@@@_STL@@@2@@_STL@@QAE?AU?$_Rb_tree_iterator@U?$pair@$$CBEPAVCBuffer@Win32@OnlineGameLib@@@_STL@@U?$_Nonconst_traits@U?$pair@$$CBEPAVCBuffer@Win32@OnlineGameLib@@@_STL@@@2@@2@ABE@Z 00409600 f i Common:Buffer.obj
 0001:00008640       ?deallocate@?$_STLP_alloc_proxy@PAU?$_Rb_tree_node@U?$pair@$$CBEPAVCBuffer@Win32@OnlineGameLib@@@_STL@@@_STL@@U12@V?$allocator@U?$pair@$$CBEPAVCBuffer@Win32@OnlineGameLib@@@_STL@@@2@@_STL@@QAEXPAU?$_Rb_tree_node@U?$pair@$$CBEPAVCBuffer@Win32@OnlineGameLib@@@_STL@@@2@I@Z 00409640 f i Common:Buffer.obj
 0001:00008680       ??0?$pair@U?$_Rb_tree_iterator@U?$pair@$$CBEPAVCBuffer@Win32@OnlineGameLib@@@_STL@@U?$_Nonconst_traits@U?$pair@$$CBEPAVCBuffer@Win32@OnlineGameLib@@@_STL@@@2@@_STL@@U12@@_STL@@QAE@ABU01@@Z 00409680 f i Common:Buffer.obj
 0001:000086a0       ?upper_bound@?$_Rb_tree@EU?$pair@$$CBEPAVCBuffer@Win32@OnlineGameLib@@@_STL@@U?$_Select1st@U?$pair@$$CBEPAVCBuffer@Win32@OnlineGameLib@@@_STL@@@2@U?$less@E@2@V?$allocator@U?$pair@$$CBEPAVCBuffer@Win32@OnlineGameLib@@@_STL@@@2@@_STL@@QAE?AU?$_Rb_tree_iterator@U?$pair@$$CBEPAVCBuffer@Win32@OnlineGameLib@@@_STL@@U?$_Nonconst_traits@U?$pair@$$CBEPAVCBuffer@Win32@OnlineGameLib@@@_STL@@@2@@2@ABE@Z 004096a0 f i Common:Buffer.obj
 0001:000086e0       ??0?$pair@U?$_Rb_tree_iterator@U?$pair@$$CBEPAVCBuffer@Win32@OnlineGameLib@@@_STL@@U?$_Nonconst_traits@U?$pair@$$CBEPAVCBuffer@Win32@OnlineGameLib@@@_STL@@@2@@_STL@@U12@@_STL@@QAE@ABU?$_Rb_tree_iterator@U?$pair@$$CBEPAVCBuffer@Win32@OnlineGameLib@@@_STL@@U?$_Nonconst_traits@U?$pair@$$CBEPAVCBuffer@Win32@OnlineGameLib@@@_STL@@@2@@1@0@Z 004096e0 f i Common:Buffer.obj
 0001:00008700       ?deallocate@?$allocator@U?$_Rb_tree_node@U?$pair@$$CBEPAVCBuffer@Win32@OnlineGameLib@@@_STL@@@_STL@@@_STL@@QBEXPAU?$_Rb_tree_node@U?$pair@$$CBEPAVCBuffer@Win32@OnlineGameLib@@@_STL@@@2@I@Z 00409700 f i Common:Buffer.obj
 0001:00008740       ?_M_erase@?$_Rb_tree@EU?$pair@$$CBEPAVCBuffer@Win32@OnlineGameLib@@@_STL@@U?$_Select1st@U?$pair@$$CBEPAVCBuffer@Win32@OnlineGameLib@@@_STL@@@2@U?$less@E@2@V?$allocator@U?$pair@$$CBEPAVCBuffer@Win32@OnlineGameLib@@@_STL@@@2@@_STL@@AAEXPAU?$_Rb_tree_node@U?$pair@$$CBEPAVCBuffer@Win32@OnlineGameLib@@@_STL@@@2@@Z 00409740 f i Common:Buffer.obj
 0001:00008780       ?insert_unique@?$_Rb_tree@EU?$pair@$$CBEPAVCBuffer@Win32@OnlineGameLib@@@_STL@@U?$_Select1st@U?$pair@$$CBEPAVCBuffer@Win32@OnlineGameLib@@@_STL@@@2@U?$less@E@2@V?$allocator@U?$pair@$$CBEPAVCBuffer@Win32@OnlineGameLib@@@_STL@@@2@@_STL@@QAE?AU?$_Rb_tree_iterator@U?$pair@$$CBEPAVCBuffer@Win32@OnlineGameLib@@@_STL@@U?$_Nonconst_traits@U?$pair@$$CBEPAVCBuffer@Win32@OnlineGameLib@@@_STL@@@2@@2@U32@ABU?$pair@$$CBEPAVCBuffer@Win32@OnlineGameLib@@@2@@Z 00409780 f i Common:Buffer.obj
 0001:00008d00       ??0?$_STLP_alloc_proxy@PADDV?$allocator@D@_STL@@@_STL@@QAE@ABV?$allocator@D@1@PAD@Z 00409d00 f i Common:Buffer.obj
 0001:00008d10       ?_M_range_initialize@?$basic_string@DV?$char_traits@D@_STL@@V?$allocator@D@2@@_STL@@AAEXPBD0@Z 00409d10 f i Common:Buffer.obj
 0001:00008d90       ?_M_insert@?$_Rb_tree@EU?$pair@$$CBEPAVCBuffer@Win32@OnlineGameLib@@@_STL@@U?$_Select1st@U?$pair@$$CBEPAVCBuffer@Win32@OnlineGameLib@@@_STL@@@2@U?$less@E@2@V?$allocator@U?$pair@$$CBEPAVCBuffer@Win32@OnlineGameLib@@@_STL@@@2@@_STL@@AAE?AU?$_Rb_tree_iterator@U?$pair@$$CBEPAVCBuffer@Win32@OnlineGameLib@@@_STL@@U?$_Nonconst_traits@U?$pair@$$CBEPAVCBuffer@Win32@OnlineGameLib@@@_STL@@@2@@2@PAU_Rb_tree_node_base@2@0ABU?$pair@$$CBEPAVCBuffer@Win32@OnlineGameLib@@@2@0@Z 00409d90 f i Common:Buffer.obj
 0001:00008e30       ?insert_unique@?$_Rb_tree@EU?$pair@$$CBEPAVCBuffer@Win32@OnlineGameLib@@@_STL@@U?$_Select1st@U?$pair@$$CBEPAVCBuffer@Win32@OnlineGameLib@@@_STL@@@2@U?$less@E@2@V?$allocator@U?$pair@$$CBEPAVCBuffer@Win32@OnlineGameLib@@@_STL@@@2@@_STL@@QAE?AU?$pair@U?$_Rb_tree_iterator@U?$pair@$$CBEPAVCBuffer@Win32@OnlineGameLib@@@_STL@@U?$_Nonconst_traits@U?$pair@$$CBEPAVCBuffer@Win32@OnlineGameLib@@@_STL@@@2@@_STL@@_N@2@ABU?$pair@$$CBEPAVCBuffer@Win32@OnlineGameLib@@@2@@Z 00409e30 f i Common:Buffer.obj
 0001:00008fc0       ?_M_find@?$_Rb_tree@EU?$pair@$$CBEPAVCBuffer@Win32@OnlineGameLib@@@_STL@@U?$_Select1st@U?$pair@$$CBEPAVCBuffer@Win32@OnlineGameLib@@@_STL@@@2@U?$less@E@2@V?$allocator@U?$pair@$$CBEPAVCBuffer@Win32@OnlineGameLib@@@_STL@@@2@@_STL@@ABEPAU?$_Rb_tree_node@U?$pair@$$CBEPAVCBuffer@Win32@OnlineGameLib@@@_STL@@@2@ABE@Z 00409fc0 f i Common:Buffer.obj
 0001:00009000       ?__distance@_STL@@YAHABU?$_Rb_tree_iterator@U?$pair@$$CBEPAVCBuffer@Win32@OnlineGameLib@@@_STL@@U?$_Nonconst_traits@U?$pair@$$CBEPAVCBuffer@Win32@OnlineGameLib@@@_STL@@@2@@1@0ABUinput_iterator_tag@1@@Z 0040a000 f i Common:Buffer.obj
 0001:00009030       ?_M_create_node@?$_Rb_tree@EU?$pair@$$CBEPAVCBuffer@Win32@OnlineGameLib@@@_STL@@U?$_Select1st@U?$pair@$$CBEPAVCBuffer@Win32@OnlineGameLib@@@_STL@@@2@U?$less@E@2@V?$allocator@U?$pair@$$CBEPAVCBuffer@Win32@OnlineGameLib@@@_STL@@@2@@_STL@@IAEPAU?$_Rb_tree_node@U?$pair@$$CBEPAVCBuffer@Win32@OnlineGameLib@@@_STL@@@2@ABU?$pair@$$CBEPAVCBuffer@Win32@OnlineGameLib@@@2@@Z 0040a030 f i Common:Buffer.obj
 0001:00009060       ??0?$pair@U?$_Rb_tree_iterator@U?$pair@$$CBEPAVCBuffer@Win32@OnlineGameLib@@@_STL@@U?$_Nonconst_traits@U?$pair@$$CBEPAVCBuffer@Win32@OnlineGameLib@@@_STL@@@2@@_STL@@_N@_STL@@QAE@ABU?$_Rb_tree_iterator@U?$pair@$$CBEPAVCBuffer@Win32@OnlineGameLib@@@_STL@@U?$_Nonconst_traits@U?$pair@$$CBEPAVCBuffer@Win32@OnlineGameLib@@@_STL@@@2@@1@AB_N@Z 0040a060 f i Common:Buffer.obj
 0001:00009080       ??0?$pair@U?$_Rb_tree_iterator@U?$pair@$$CBEPAVCBuffer@Win32@OnlineGameLib@@@_STL@@U?$_Nonconst_traits@U?$pair@$$CBEPAVCBuffer@Win32@OnlineGameLib@@@_STL@@@2@@_STL@@_N@_STL@@QAE@ABU01@@Z 0040a080 f i Common:Buffer.obj
 0001:000090a0       ?_M_range_initialize@?$basic_string@DV?$char_traits@D@_STL@@V?$allocator@D@2@@_STL@@AAEXPBD0ABUforward_iterator_tag@2@@Z 0040a0a0 f i Common:Buffer.obj
 0001:00009120       _GetCRCTable               0040a120 f   Common:CRC32.OBJ
 0001:00009130       _CRC32_C                   0040a130 f   Common:CRC32.OBJ
 0001:00009270       _CRC32                     0040a270 f   Common:CRC32.OBJ
 0001:00009370       ??0CWin32Exception@Win32@OnlineGameLib@@QAE@ABV?$basic_string@DV?$char_traits@D@_STL@@V?$allocator@D@2@@_STL@@K@Z 0040a370 f   Common:Win32Exception.obj
 0001:00009410       ??0CException@Win32@OnlineGameLib@@QAE@ABV?$basic_string@DV?$char_traits@D@_STL@@V?$allocator@D@2@@_STL@@0@Z 0040a410 f   Common:Exception.obj
 0001:00009550       ?GetWhere@CException@Win32@OnlineGameLib@@UBE?AV?$basic_string@DV?$char_traits@D@_STL@@V?$allocator@D@2@@_STL@@XZ 0040a550 f   Common:Exception.obj
 0001:00009610       ?GetMessageA@CException@Win32@OnlineGameLib@@UBE?AV?$basic_string@DV?$char_traits@D@_STL@@V?$allocator@D@2@@_STL@@XZ 0040a610 f   Common:Exception.obj
 0001:000096d0       ?MessageBoxA@CException@Win32@OnlineGameLib@@QBEXPAUHWND__@@@Z 0040a6d0 f   Common:Exception.obj
 0001:000097b0       ??0CNodeList@OnlineGameLib@@QAE@XZ 0040a7b0 f   Common:NodeList.obj
 0001:000097c0       ?PushNode@CNodeList@OnlineGameLib@@QAEXPAVNode@12@@Z 0040a7c0 f   Common:NodeList.obj
 0001:000097f0       ?PopNode@CNodeList@OnlineGameLib@@QAEPAVNode@12@XZ 0040a7f0 f   Common:NodeList.obj
 0001:00009810       ?RemoveNode@CNodeList@OnlineGameLib@@AAEXPAVNode@12@@Z 0040a810 f   Common:NodeList.obj
 0001:00009830       ??0Node@CNodeList@OnlineGameLib@@IAE@XZ 0040a830 f   Common:NodeList.obj
 0001:00009840       ??1Node@CNodeList@OnlineGameLib@@IAE@XZ 0040a840 f   Common:NodeList.obj
 0001:000098a0       ?AddToList@Node@CNodeList@OnlineGameLib@@QAEXPAV23@@Z 0040a8a0 f   Common:NodeList.obj
 0001:000098b0       ?RemoveFromList@Node@CNodeList@OnlineGameLib@@QAEXXZ 0040a8b0 f   Common:NodeList.obj
 0001:000098c0       ?Unlink@Node@CNodeList@OnlineGameLib@@AAEXXZ 0040a8c0 f   Common:NodeList.obj
 0001:00009b10       ?SetLogFileName@Win32@OnlineGameLib@@YAXABV?$basic_string@DV?$char_traits@D@_STL@@V?$allocator@D@2@@_STL@@@Z 0040ab10 f   Common:Utils.obj
 0001:00009c20       ?Message@Win32@OnlineGameLib@@YAXQBD@Z 0040ac20 f   Common:Utils.obj
 0001:00009c50       ?Output@Win32@OnlineGameLib@@YAXABV?$basic_string@DV?$char_traits@D@_STL@@V?$allocator@D@2@@_STL@@@Z 0040ac50 f   Common:Utils.obj
 0001:00009c60       ?Trace@Win32@OnlineGameLib@@YAXABV?$basic_string@DV?$char_traits@D@_STL@@V?$allocator@D@2@@_STL@@0@Z 0040ac60 f   Common:Utils.obj
 0001:00009c70       ?GetLastErrorMessage@Win32@OnlineGameLib@@YA?AV?$basic_string@DV?$char_traits@D@_STL@@V?$allocator@D@2@@_STL@@K@Z 0040ac70 f   Common:Utils.obj
 0001:00009db0       ?HexToString@Win32@OnlineGameLib@@YA?AV?$basic_string@DV?$char_traits@D@_STL@@V?$allocator@D@2@@_STL@@PBEI@Z 0040adb0 f   Common:Utils.obj
 0001:00009f90       ?StringToHex@Win32@OnlineGameLib@@YAXABV?$basic_string@DV?$char_traits@D@_STL@@V?$allocator@D@2@@_STL@@PAEI@Z 0040af90 f   Common:Utils.obj
 0001:0000a0d0       ?HexStringToDWORD@Win32@OnlineGameLib@@YAKPBD@Z 0040b0d0 f   Common:Utils.obj
 0001:0000a130       ?HashStr2ID@Win32@OnlineGameLib@@YAKQBD@Z 0040b130 f   Common:Utils.obj
 0001:0000a180       ?net_aton@Win32@OnlineGameLib@@YAKPBD@Z 0040b180 f   Common:Utils.obj
 0001:0000a210       ?net_ntoa@Win32@OnlineGameLib@@YAPBDK@Z 0040b210 f   Common:Utils.obj
 0001:0000a250       ?GetCurrentDirectoryA@Win32@OnlineGameLib@@YA?AV?$basic_string@DV?$char_traits@D@_STL@@V?$allocator@D@2@@_STL@@XZ 0040b250 f   Common:Utils.obj
 0001:0000a3c0       ?GetAppFullPath@Win32@OnlineGameLib@@YA?AV?$basic_string@DV?$char_traits@D@_STL@@V?$allocator@D@2@@_STL@@PAUHINSTANCE__@@@Z 0040b3c0 f   Common:Utils.obj
 0001:0000a610       ?GetDateStamp@Win32@OnlineGameLib@@YA?AV?$basic_string@DV?$char_traits@D@_STL@@V?$allocator@D@2@@_STL@@XZ 0040b610 f   Common:Utils.obj
 0001:0000a730       ?GetTimeStamp@Win32@OnlineGameLib@@YA?AV?$basic_string@DV?$char_traits@D@_STL@@V?$allocator@D@2@@_STL@@XZ 0040b730 f   Common:Utils.obj
 0001:0000a850       ?ToHex@Win32@OnlineGameLib@@YA?AV?$basic_string@DV?$char_traits@D@_STL@@V?$allocator@D@2@@_STL@@E@Z 0040b850 f   Common:Utils.obj
 0001:0000a940       ?DumpData@Win32@OnlineGameLib@@YA?AV?$basic_string@DV?$char_traits@D@_STL@@V?$allocator@D@2@@_STL@@QBEII@Z 0040b940 f   Common:Utils.obj
 0001:0000ac60       ?GetComputerNameA@Win32@OnlineGameLib@@YA?AV?$basic_string@DV?$char_traits@D@_STL@@V?$allocator@D@2@@_STL@@XZ 0040bc60 f   Common:Utils.obj
 0001:0000ae80       ?GetModuleFileNameA@Win32@OnlineGameLib@@YA?AV?$basic_string@DV?$char_traits@D@_STL@@V?$allocator@D@2@@_STL@@PAUHINSTANCE__@@@Z 0040be80 f   Common:Utils.obj
 0001:0000b0b0       ?GetUserNameA@Win32@OnlineGameLib@@YA?AV?$basic_string@DV?$char_traits@D@_STL@@V?$allocator@D@2@@_STL@@XZ 0040c0b0 f   Common:Utils.obj
 0001:0000b2e0       ?StripLeading@Win32@OnlineGameLib@@YA?AV?$basic_string@DV?$char_traits@D@_STL@@V?$allocator@D@2@@_STL@@ABV34@D@Z 0040c2e0 f   Common:Utils.obj
 0001:0000b3c0       ?StripTrailing@Win32@OnlineGameLib@@YA?AV?$basic_string@DV?$char_traits@D@_STL@@V?$allocator@D@2@@_STL@@ABV34@D@Z 0040c3c0 f   Common:Utils.obj
 0001:0000b400       ?GetFileVersion@Win32@OnlineGameLib@@YA?AV?$basic_string@DV?$char_traits@D@_STL@@V?$allocator@D@2@@_STL@@XZ 0040c400 f   Common:Utils.obj
 0001:0000b6f0       ?GetLocalName@Win32@OnlineGameLib@@YA_NPADI@Z 0040c6f0 f   Common:Utils.obj
 0001:0000b7f0       ?GetLocalAddress@Win32@OnlineGameLib@@YA_NPADIH@Z 0040c7f0 f   Common:Utils.obj
 0001:0000b920       ??4?$basic_string@DV?$char_traits@D@_STL@@V?$allocator@D@2@@_STL@@QAEAAV01@PBD@Z 0040c920 f i Common:Utils.obj
 0001:0000b9d0       ?substr@?$basic_string@DV?$char_traits@D@_STL@@V?$allocator@D@2@@_STL@@QBE?AV12@II@Z 0040c9d0 f i Common:Utils.obj
 0001:0000bae0       ??1?$basic_ios@DV?$char_traits@D@_STL@@@_STL@@UAE@XZ 0040cae0 f i Common:Utils.obj
 0001:0000baf0       ??0?$basic_fstream@DV?$char_traits@D@_STL@@@_STL@@QAE@XZ 0040caf0 f i Common:Utils.obj
 0001:0000bcd0       ??1_STLP_mutex@_STL@@QAE@XZ 0040ccd0 f i Common:Utils.obj
 0001:0000bce0       ?_FILE_I_set@_STL@@YAXPAU_iobuf@@PAD11@Z 0040cce0 f i Common:Utils.obj
 0001:0000bd00       ??_G?$basic_streambuf@DV?$char_traits@D@_STL@@@_STL@@UAEPAXI@Z 0040cd00 f i Common:Utils.obj
 0001:0000bd00       ??_E?$basic_streambuf@DV?$char_traits@D@_STL@@@_STL@@UAEPAXI@Z 0040cd00 f i Common:Utils.obj
 0001:0000bd20       ??1?$basic_istream@DV?$char_traits@D@_STL@@@_STL@@UAE@XZ 0040cd20 f i Common:Utils.obj
 0001:0000bd30       ??1?$basic_fstream@DV?$char_traits@D@_STL@@@_STL@@UAE@XZ 0040cd30 f i Common:Utils.obj
 0001:0000beb0       ??1?$auto_ptr@D@_STL@@QAE@XZ 0040ceb0 f i Common:Utils.obj
 0001:0000bec0       ??1?$auto_ptr@E@_STL@@QAE@XZ 0040cec0 f i Common:Utils.obj
 0001:0000bed0       ??_E?$basic_ios@DV?$char_traits@D@_STL@@@_STL@@UAEPAXI@Z 0040ced0 f i Common:Utils.obj
 0001:0000bed0       ??_G?$basic_ios@DV?$char_traits@D@_STL@@@_STL@@UAEPAXI@Z 0040ced0 f i Common:Utils.obj
 0001:0000bef0       ??_E?$basic_istream@DV?$char_traits@D@_STL@@@_STL@@UAEPAXI@Z 0040cef0 f i Common:Utils.obj
 0001:0000bef0       ??_G?$basic_istream@DV?$char_traits@D@_STL@@@_STL@@UAEPAXI@Z 0040cef0 f i Common:Utils.obj
 0001:0000bf20       ??_E?$basic_fstream@DV?$char_traits@D@_STL@@@_STL@@UAEPAXI@Z 0040cf20 f i Common:Utils.obj
 0001:0000bf20       ??_G?$basic_fstream@DV?$char_traits@D@_STL@@@_STL@@UAEPAXI@Z 0040cf20 f i Common:Utils.obj
 0001:0000bf60       ?append@?$basic_string@DV?$char_traits@D@_STL@@V?$allocator@D@2@@_STL@@QAEAAV12@PBD@Z 0040cf60 f i Common:Utils.obj
 0001:0000bfa0       ?push_back@?$basic_string@DV?$char_traits@D@_STL@@V?$allocator@D@2@@_STL@@QAEXD@Z 0040cfa0 f i Common:Utils.obj
 0001:0000c000       ?assign@?$basic_string@DV?$char_traits@D@_STL@@V?$allocator@D@2@@_STL@@QAEAAV12@PBD0@Z 0040d000 f i Common:Utils.obj
 0001:0000c0a0       ?move@?$__char_traits_base@DH@_STL@@SAPADPADPBDI@Z 0040d0a0 f i Common:Utils.obj
 0001:0000c0d0       ?deallocate@?$allocator@D@_STL@@QBEXPADI@Z 0040d0d0 f i Common:Utils.obj
 0001:0000c100       ??0?$basic_string@DV?$char_traits@D@_STL@@V?$allocator@D@2@@_STL@@QAE@ABV01@@Z 0040d100 f i Common:Utils.obj
 0001:0000c1c0       ?reserve@?$basic_string@DV?$char_traits@D@_STL@@V?$allocator@D@2@@_STL@@QAEXI@Z 0040d1c0 f i Common:Utils.obj
 0001:0000c2e0       ?init@?$basic_ios@DV?$char_traits@D@_STL@@@_STL@@IAEXPAV?$basic_streambuf@DV?$char_traits@D@_STL@@@2@@Z 0040d2e0 f i Common:Utils.obj
 0001:0000c380       ??1?$basic_ostream@DV?$char_traits@D@_STL@@@_STL@@UAE@XZ 0040d380 f i Common:Utils.obj
 0001:0000c390       ??1?$basic_iostream@DV?$char_traits@D@_STL@@@_STL@@UAE@XZ 0040d390 f i Common:Utils.obj
 0001:0000c3d0       ??1?$basic_filebuf@DV?$char_traits@D@_STL@@@_STL@@UAE@XZ 0040d3d0 f i Common:Utils.obj
 0001:0000c590       ?close@?$basic_filebuf@DV?$char_traits@D@_STL@@@_STL@@QAEPAV12@XZ 0040d590 f i Common:Utils.obj
 0001:0000c710       ?showmanyc@?$basic_filebuf@DV?$char_traits@D@_STL@@@_STL@@MAEHXZ 0040d710 f i Common:Utils.obj
 0001:0000c780       ?underflow@?$basic_filebuf@DV?$char_traits@D@_STL@@@_STL@@MAEHXZ 0040d780 f i Common:Utils.obj
 0001:0000c790       ?pbackfail@?$basic_filebuf@DV?$char_traits@D@_STL@@@_STL@@MAEHH@Z 0040d790 f i Common:Utils.obj
 0001:0000c880       ?overflow@?$basic_filebuf@DV?$char_traits@D@_STL@@@_STL@@MAEHH@Z 0040d880 f i Common:Utils.obj
 0001:0000ca40       ?setbuf@?$basic_filebuf@DV?$char_traits@D@_STL@@@_STL@@MAEPAV?$basic_streambuf@DV?$char_traits@D@_STL@@@2@PADH@Z 0040da40 f i Common:Utils.obj
 0001:0000cbe0       ?seekoff@?$basic_filebuf@DV?$char_traits@D@_STL@@@_STL@@MAE?AV?$fpos@H@2@JHH@Z 0040dbe0 f i Common:Utils.obj
 0001:0000d070       ?count@_STL@@YAHPAD0ABD@Z  0040e070 f i Common:Utils.obj
 0001:0000d0a0       ?seekpos@?$basic_filebuf@DV?$char_traits@D@_STL@@@_STL@@MAE?AV?$fpos@H@2@V32@H@Z 0040e0a0 f i Common:Utils.obj
 0001:0000d1b0       ?sync@?$basic_filebuf@DV?$char_traits@D@_STL@@@_STL@@MAEHXZ 0040e1b0 f i Common:Utils.obj
 0001:0000d1d0       ?imbue@?$basic_filebuf@DV?$char_traits@D@_STL@@@_STL@@MAEXABVlocale@2@@Z 0040e1d0 f i Common:Utils.obj
 0001:0000d260       ??H_STL@@YA?AV?$basic_string@DV?$char_traits@D@_STL@@V?$allocator@D@2@@0@ABV10@PBD@Z 0040e260 f i Common:Utils.obj
 0001:0000d3a0       ??H_STL@@YA?AV?$basic_string@DV?$char_traits@D@_STL@@V?$allocator@D@2@@0@ABV10@0@Z 0040e3a0 f i Common:Utils.obj
 0001:0000d4e0       ??_G?$basic_ostream@DV?$char_traits@D@_STL@@@_STL@@UAEPAXI@Z 0040e4e0 f i Common:Utils.obj
 0001:0000d4e0       ??_E?$basic_ostream@DV?$char_traits@D@_STL@@@_STL@@UAEPAXI@Z 0040e4e0 f i Common:Utils.obj
 0001:0000d510       ??_E?$basic_iostream@DV?$char_traits@D@_STL@@@_STL@@UAEPAXI@Z 0040e510 f i Common:Utils.obj
 0001:0000d510       ??_G?$basic_iostream@DV?$char_traits@D@_STL@@@_STL@@UAEPAXI@Z 0040e510 f i Common:Utils.obj
 0001:0000d540       ??_E?$basic_filebuf@DV?$char_traits@D@_STL@@@_STL@@UAEPAXI@Z 0040e540 f i Common:Utils.obj
 0001:0000d540       ??_G?$basic_filebuf@DV?$char_traits@D@_STL@@@_STL@@UAEPAXI@Z 0040e540 f i Common:Utils.obj
 0001:0000d560       ??0?$_String_base@DV?$allocator@D@_STL@@@_STL@@QAE@ABV?$allocator@D@1@@Z 0040e560 f i Common:Utils.obj
 0001:0000d570       ??1?$_Filebuf_Tmp_Buf@D@_STL@@QAE@XZ 0040e570 f i Common:Utils.obj
 0001:0000d580       ?_M_range_initialize@?$basic_string@DV?$char_traits@D@_STL@@V?$allocator@D@2@@_STL@@AAEXPAD0@Z 0040e580 f i Common:Utils.obj
 0001:0000d600       ?imbue@?$basic_ios@DV?$char_traits@D@_STL@@@_STL@@QAE?AVlocale@2@ABV32@@Z 0040e600 f i Common:Utils.obj
 0001:0000d760       ?grouping@?$numpunct@D@_STL@@QBE?AV?$basic_string@DV?$char_traits@D@_STL@@V?$allocator@D@2@@2@XZ 0040e760 f i Common:Utils.obj
 0001:0000d780       ??0?$basic_ostream@DV?$char_traits@D@_STL@@@_STL@@QAE@PAV?$basic_streambuf@DV?$char_traits@D@_STL@@@1@@Z 0040e780 f i Common:Utils.obj
 0001:0000d880       ?_M_exit_input_mode@?$basic_filebuf@DV?$char_traits@D@_STL@@@_STL@@AAEXXZ 0040e880 f i Common:Utils.obj
 0001:0000d8b0       ?_M_unshift@?$basic_filebuf@DV?$char_traits@D@_STL@@@_STL@@AAE_NXZ 0040e8b0 f i Common:Utils.obj
 0001:0000d930       ?_M_allocate_buffers@?$basic_filebuf@DV?$char_traits@D@_STL@@@_STL@@AAE_NPADH@Z 0040e930 f i Common:Utils.obj
 0001:0000da20       ?_M_setup_codecvt@?$basic_filebuf@DV?$char_traits@D@_STL@@@_STL@@AAEXABVlocale@2@@Z 0040ea20 f i Common:Utils.obj
 0001:0000da90       ?_M_append_dispatch@?$basic_string@DV?$char_traits@D@_STL@@V?$allocator@D@2@@_STL@@AAEAAV12@PAD0ABU__false_type@2@@Z 0040ea90 f i Common:Utils.obj
 0001:0000dac0       ?_M_append_dispatch@?$basic_string@DV?$char_traits@D@_STL@@V?$allocator@D@2@@_STL@@AAEAAV12@PBD0ABU__false_type@2@@Z 0040eac0 f i Common:Utils.obj
 0001:0000daf0       ?iterator_category@_STL@@YA?AUrandom_access_iterator_tag@1@PBD@Z 0040eaf0 f i Common:Utils.obj
 0001:0000db00       ?_M_range_initialize@?$basic_string@DV?$char_traits@D@_STL@@V?$allocator@D@2@@_STL@@AAEXPAD0ABUforward_iterator_tag@2@@Z 0040eb00 f i Common:Utils.obj
 0001:0000db80       ?append@?$basic_string@DV?$char_traits@D@_STL@@V?$allocator@D@2@@_STL@@AAEAAV12@PAD0ABUforward_iterator_tag@2@@Z 0040eb80 f i Common:Utils.obj
 0001:0000dd20       ?distance_type@_STL@@YAPAHPBD@Z 0040ed20 f i Common:Utils.obj
 0001:0000dd30       ?__copy@_STL@@YAPADPAD00ABUrandom_access_iterator_tag@1@PAH@Z 0040ed30 f i Common:Utils.obj
 0001:0000dd60       _InitializeCriticalSection@4 0040ed60 f   kernel32:KERNEL32.dll
 0001:0000dd66       _DeleteCriticalSection@4   0040ed66 f   kernel32:KERNEL32.dll
 0001:0000dd6c       _LeaveCriticalSection@4    0040ed6c f   kernel32:KERNEL32.dll
 0001:0000dd72       _EnterCriticalSection@4    0040ed72 f   kernel32:KERNEL32.dll
 0001:0000dd78       _GetProcAddress@8          0040ed78 f   kernel32:KERNEL32.dll
 0001:0000dd7e       _Sleep@4                   0040ed7e f   kernel32:KERNEL32.dll
 0001:0000dd84       _FreeLibrary@4             0040ed84 f   kernel32:KERNEL32.dll
 0001:0000dd8a       _LoadLibraryA@4            0040ed8a f   kernel32:KERNEL32.dll
 0001:0000dd90       _InterlockedDecrement@4    0040ed90 f   kernel32:KERNEL32.dll
 0001:0000dd96       _InterlockedIncrement@4    0040ed96 f   kernel32:KERNEL32.dll
 0001:0000dd9c       _InterlockedExchange@8     0040ed9c f   kernel32:KERNEL32.dll
 0001:0000dda2       _GetLastError@0            0040eda2 f   kernel32:KERNEL32.dll
 0001:0000dda8       _FormatMessageA@28         0040eda8 f   kernel32:KERNEL32.dll
 0001:0000ddae       _GetCurrentDirectoryA@8    0040edae f   kernel32:KERNEL32.dll
 0001:0000ddb4       _GetModuleFileNameA@12     0040edb4 f   kernel32:KERNEL32.dll
 0001:0000ddba       _GetSystemTime@4           0040edba f   kernel32:KERNEL32.dll
 0001:0000ddc0       _GetLocalTime@4            0040edc0 f   kernel32:KERNEL32.dll
 0001:0000ddc6       _GetComputerNameA@8        0040edc6 f   kernel32:KERNEL32.dll
 0001:0000ddcc       _SetLastError@4            0040edcc f   kernel32:KERNEL32.dll
 0001:0000ddd2       _MessageBoxA@16            0040edd2 f   user32:USER32.dll
 0001:0000ddd8       _MessageBeep@4             0040edd8 f   user32:USER32.dll
 0001:0000ddde       _wsprintfA                 0040edde f   user32:USER32.dll
 0001:0000dde4       _GetUserNameA@8            0040ede4 f   advapi32:ADVAPI32.dll
 0001:0000ddea       ??0KTimer@@QAE@XZ          0040edea f   engine:Engine.dll
 0001:0000ddf0       ?Start@KTimer@@QAEXXZ      0040edf0 f   engine:Engine.dll
 0001:0000ddf6       ??1KIniFile@@QAE@XZ        0040edf6 f   engine:Engine.dll
 0001:0000ddfc       ?GetString@KIniFile@@QAEHPBD00PADK@Z 0040edfc f   engine:Engine.dll
 0001:0000de02       ?GetInteger@KIniFile@@QAEHPBD0HPAH@Z 0040ee02 f   engine:Engine.dll
 0001:0000de08       ?Load@KIniFile@@QAEHPBD@Z  0040ee08 f   engine:Engine.dll
 0001:0000de0e       ??0KIniFile@@QAE@XZ        0040ee0e f   engine:Engine.dll
 0001:0000de14       ?g_SetFilePath@@YAXPAD@Z   0040ee14 f   engine:Engine.dll
 0001:0000de1a       ?g_SetRootPath@@YAXPAD@Z   0040ee1a f   engine:Engine.dll
 0001:0000de20       ?GetElapse@KTimer@@QAEKXZ  0040ee20 f   engine:Engine.dll
 0001:0000de26       ?g_DebugLog@@YAXPADZZ      0040ee26 f   engine:Engine.dll
 0001:0000de2c       ?g_FileName2Id@@YAKPAD@Z   0040ee2c f   engine:Engine.dll
 0001:0000de32       _CoreGetServerShell        0040ee32 f   CoreServer:CoreServer.dll
 0001:0000de80       ??0_Locale_impl@_STL@@QAE@PBD@Z 0040ee80 f   stlport_vc6_static:locale_impl.obj
 0001:0000df60       ??_E_Locale_impl@_STL@@UAEPAXI@Z 0040ef60 f i stlport_vc6_static:locale_impl.obj
 0001:0000df60       ??_G_Locale_impl@_STL@@UAEPAXI@Z 0040ef60 f i stlport_vc6_static:locale_impl.obj
 0001:0000df80       ??1_Locale_impl@_STL@@UAE@XZ 0040ef80 f   stlport_vc6_static:locale_impl.obj
 0001:0000e010       ?_M_acquire_lock@_STLP_mutex_base@_STL@@QAEXXZ 0040f010 f i stlport_vc6_static:locale_impl.obj
 0001:0000e100       ?_M_release_lock@_STLP_mutex_base@_STL@@QAEXXZ 0040f100 f i stlport_vc6_static:locale_impl.obj
 0001:0000e110       ?incr@_Locale_impl@_STL@@UAEXXZ 0040f110 f   stlport_vc6_static:locale_impl.obj
 0001:0000e120       ?decr@_Locale_impl@_STL@@UAEXXZ 0040f120 f   stlport_vc6_static:locale_impl.obj
 0001:0000e130       ?_M_throw_bad_cast@_Locale_impl@_STL@@SAXXZ 0040f130 f   stlport_vc6_static:locale_impl.obj
 0001:0000e150       ??0bad_cast@@QAE@XZ        0040f150 f i stlport_vc6_static:locale_impl.obj
 0001:0000e180       ??_Ebad_cast@@UAEPAXI@Z    0040f180 f i stlport_vc6_static:locale_impl.obj
 0001:0000e180       ??_Gbad_cast@@UAEPAXI@Z    0040f180 f i stlport_vc6_static:locale_impl.obj
 0001:0000e1a0       ??1bad_cast@@UAE@XZ        0040f1a0 f i stlport_vc6_static:locale_impl.obj
 0001:0000e1b0       ??0bad_cast@@QAE@ABV0@@Z   0040f1b0 f i stlport_vc6_static:locale_impl.obj
 0001:0000e210       ?make_classic_locale@_Locale_impl@_STL@@SAPAV12@XZ 0040f210 f   stlport_vc6_static:locale_impl.obj
 0001:0000e690       ??3@YAXPAX0@Z              0040f690 f i stlport_vc6_static:locale_impl.obj
 0001:0000e6a0       ??_E?$codecvt@DDH@_STL@@MAEPAXI@Z 0040f6a0 f i stlport_vc6_static:locale_impl.obj
 0001:0000e6a0       ??_G?$codecvt@DDH@_STL@@MAEPAXI@Z 0040f6a0 f i stlport_vc6_static:locale_impl.obj
 0001:0000e6c0       ??_E?$codecvt@GDH@_STL@@MAEPAXI@Z 0040f6c0 f i stlport_vc6_static:locale_impl.obj
 0001:0000e6c0       ??_G?$codecvt@GDH@_STL@@MAEPAXI@Z 0040f6c0 f i stlport_vc6_static:locale_impl.obj
 0001:0000e6e0       ??_E?$collate@D@_STL@@MAEPAXI@Z 0040f6e0 f i stlport_vc6_static:locale_impl.obj
 0001:0000e6e0       ??_G?$collate@D@_STL@@MAEPAXI@Z 0040f6e0 f i stlport_vc6_static:locale_impl.obj
 0001:0000e700       ??_E?$collate@G@_STL@@MAEPAXI@Z 0040f700 f i stlport_vc6_static:locale_impl.obj
 0001:0000e700       ??_G?$collate@G@_STL@@MAEPAXI@Z 0040f700 f i stlport_vc6_static:locale_impl.obj
 0001:0000e720       ??_Gfacet@locale@_STL@@MAEPAXI@Z 0040f720 f i stlport_vc6_static:locale_impl.obj
 0001:0000e720       ??_Efacet@locale@_STL@@MAEPAXI@Z 0040f720 f i stlport_vc6_static:locale_impl.obj
 0001:0000e740       ??_E?$ctype@G@_STL@@MAEPAXI@Z 0040f740 f i stlport_vc6_static:locale_impl.obj
 0001:0000e740       ??_G?$ctype@G@_STL@@MAEPAXI@Z 0040f740 f i stlport_vc6_static:locale_impl.obj
 0001:0000e760       ??_G?$numpunct@D@_STL@@UAEPAXI@Z 0040f760 f i stlport_vc6_static:locale_impl.obj
 0001:0000e760       ??_E?$numpunct@D@_STL@@UAEPAXI@Z 0040f760 f i stlport_vc6_static:locale_impl.obj
 0001:0000e780       ??_G?$numpunct@G@_STL@@MAEPAXI@Z 0040f780 f i stlport_vc6_static:locale_impl.obj
 0001:0000e780       ??_E?$numpunct@G@_STL@@MAEPAXI@Z 0040f780 f i stlport_vc6_static:locale_impl.obj
 0001:0000e7a0       ??1facet@locale@_STL@@MAE@XZ 0040f7a0 f   stlport_vc6_static:locale_impl.obj
 0001:0000e7b0       ??Rlocale@_STL@@QBE_NABV?$basic_string@DV?$char_traits@D@_STL@@V?$allocator@D@2@@1@0@Z 0040f7b0 f   stlport_vc6_static:locale_impl.obj
 0001:0000e800       ??Rlocale@_STL@@QBE_NABV?$basic_string@GV?$char_traits@G@_STL@@V?$allocator@G@2@@1@0@Z 0040f800 f   stlport_vc6_static:locale_impl.obj
 0001:0000e8a0       ?_M_throw_runtime_error@locale@_STL@@SAXPBD@Z 0040f8a0 f   stlport_vc6_static:locale_impl.obj
 0001:0000e9f0       ??_Eruntime_error@_STL@@UAEPAXI@Z 0040f9f0 f i stlport_vc6_static:locale_impl.obj
 0001:0000e9f0       ??_Gruntime_error@_STL@@UAEPAXI@Z 0040f9f0 f i stlport_vc6_static:locale_impl.obj
 0001:0000ea10       ??0runtime_error@_STL@@QAE@ABV01@@Z 0040fa10 f i stlport_vc6_static:locale_impl.obj
 0001:0000ea40       ??0__Named_exception@_STL@@QAE@ABV01@@Z 0040fa40 f i stlport_vc6_static:locale_impl.obj
 0001:0000ea70       ??_E__Named_exception@_STL@@UAEPAXI@Z 0040fa70 f i stlport_vc6_static:locale_impl.obj
 0001:0000ea70       ??_G__Named_exception@_STL@@UAEPAXI@Z 0040fa70 f i stlport_vc6_static:locale_impl.obj
 0001:0000ea90       ??0_Loc_init@ios_base@_STL@@QAE@XZ 0040fa90 f   stlport_vc6_static:locale_impl.obj
 0001:0000eab0       ??1_Loc_init@ios_base@_STL@@QAE@XZ 0040fab0 f   stlport_vc6_static:locale_impl.obj
 0001:0000ead0       ?_S_initialize@locale@_STL@@SAXXZ 0040fad0 f   stlport_vc6_static:locale_impl.obj
 0001:0000ebe0       ?_S_uninitialize@locale@_STL@@SAXXZ 0040fbe0 f   stlport_vc6_static:locale_impl.obj
 0001:0000ebf0       ??0locale@_STL@@QAE@XZ     0040fbf0 f   stlport_vc6_static:locale_impl.obj
 0001:0000ec10       ??0locale@_STL@@QAE@PAV_Locale_impl@1@@Z 0040fc10 f   stlport_vc6_static:locale_impl.obj
 0001:0000ec20       ??0locale@_STL@@QAE@ABV01@@Z 0040fc20 f   stlport_vc6_static:locale_impl.obj
 0001:0000ec40       ??1locale@_STL@@QAE@XZ     0040fc40 f   stlport_vc6_static:locale_impl.obj
 0001:0000ec50       ??4locale@_STL@@QAEABV01@ABV01@@Z 0040fc50 f   stlport_vc6_static:locale_impl.obj
 0001:0000ec80       ?_M_get_facet@locale@_STL@@QBEPAVfacet@12@ABVid@12@@Z 0040fc80 f   stlport_vc6_static:locale_impl.obj
 0001:0000eca0       ?_M_use_facet@locale@_STL@@QBEPAVfacet@12@ABVid@12@@Z 0040fca0 f   stlport_vc6_static:locale_impl.obj
 0001:0000ece0       ?name@locale@_STL@@QBE?AV?$basic_string@DV?$char_traits@D@_STL@@V?$allocator@D@2@@2@XZ 0040fce0 f   stlport_vc6_static:locale_impl.obj
 0001:0000eec0       ??8locale@_STL@@QBE_NABV01@@Z 0040fec0 f   stlport_vc6_static:locale_impl.obj
 0001:0000f010       ??9locale@_STL@@QBE_NABV01@@Z 00410010 f   stlport_vc6_static:locale_impl.obj
 0001:0000f030       ?classic@locale@_STL@@SAABV12@XZ 00410030 f   stlport_vc6_static:locale_impl.obj
 0001:0000f040       ?global@locale@_STL@@SA?AV12@ABV12@@Z 00410040 f   stlport_vc6_static:locale_impl.obj
 0001:0000f1c0       ??1_STLP_auto_lock@_STL@@QAE@XZ 004101c0 f i stlport_vc6_static:locale_impl.obj
 0001:0000f1d0       ?do_put@?$money_put@DV?$ostreambuf_iterator@DV?$char_traits@D@_STL@@@_STL@@@_STL@@MBE?AV?$ostreambuf_iterator@DV?$char_traits@D@_STL@@@2@V32@_NAAVios_base@2@DO@Z 004101d0 f i stlport_vc6_static:locale_impl.obj
 0001:0000f2d0       ?do_date_order@?$time_get@DV?$istreambuf_iterator@DV?$char_traits@D@_STL@@@_STL@@@_STL@@MBE?AW4dateorder@time_base@2@XZ 004102d0 f i stlport_vc6_static:locale_impl.obj
 0001:0000f2e0       ?do_put@?$money_put@GV?$ostreambuf_iterator@GV?$char_traits@G@_STL@@@_STL@@@_STL@@MBE?AV?$ostreambuf_iterator@GV?$char_traits@G@_STL@@@2@V32@_NAAVios_base@2@GO@Z 004102e0 f i stlport_vc6_static:locale_impl.obj
 0001:0000f400       ??1?$basic_string@GV?$char_traits@G@_STL@@V?$allocator@G@2@@_STL@@QAE@XZ 00410400 f i stlport_vc6_static:locale_impl.obj
 0001:0000f490       ?do_date_order@?$time_get@GV?$istreambuf_iterator@GV?$char_traits@G@_STL@@@_STL@@@_STL@@MBE?AW4dateorder@time_base@2@XZ 00410490 f i stlport_vc6_static:locale_impl.obj
 0001:0000f4a0       ??_G?$money_get@DV?$istreambuf_iterator@DV?$char_traits@D@_STL@@@_STL@@@_STL@@MAEPAXI@Z 004104a0 f i stlport_vc6_static:locale_impl.obj
 0001:0000f4a0       ??_E?$money_get@DV?$istreambuf_iterator@DV?$char_traits@D@_STL@@@_STL@@@_STL@@MAEPAXI@Z 004104a0 f i stlport_vc6_static:locale_impl.obj
 0001:0000f4c0       ??1?$money_get@DV?$istreambuf_iterator@DV?$char_traits@D@_STL@@@_STL@@@_STL@@MAE@XZ 004104c0 f i stlport_vc6_static:locale_impl.obj
 0001:0000f4d0       ??_E?$money_put@DV?$ostreambuf_iterator@DV?$char_traits@D@_STL@@@_STL@@@_STL@@MAEPAXI@Z 004104d0 f i stlport_vc6_static:locale_impl.obj
 0001:0000f4d0       ??_G?$money_put@DV?$ostreambuf_iterator@DV?$char_traits@D@_STL@@@_STL@@@_STL@@MAEPAXI@Z 004104d0 f i stlport_vc6_static:locale_impl.obj
 0001:0000f4f0       ??1?$money_put@DV?$ostreambuf_iterator@DV?$char_traits@D@_STL@@@_STL@@@_STL@@MAE@XZ 004104f0 f i stlport_vc6_static:locale_impl.obj
 0001:0000f500       ??_E?$num_get@DV?$istreambuf_iterator@DV?$char_traits@D@_STL@@@_STL@@@_STL@@MAEPAXI@Z 00410500 f i stlport_vc6_static:locale_impl.obj
 0001:0000f500       ??_G?$num_get@DV?$istreambuf_iterator@DV?$char_traits@D@_STL@@@_STL@@@_STL@@MAEPAXI@Z 00410500 f i stlport_vc6_static:locale_impl.obj
 0001:0000f520       ??1?$num_get@DV?$istreambuf_iterator@DV?$char_traits@D@_STL@@@_STL@@@_STL@@MAE@XZ 00410520 f i stlport_vc6_static:locale_impl.obj
 0001:0000f530       ??_E?$num_put@DV?$ostreambuf_iterator@DV?$char_traits@D@_STL@@@_STL@@@_STL@@MAEPAXI@Z 00410530 f i stlport_vc6_static:locale_impl.obj
 0001:0000f530       ??_G?$num_put@DV?$ostreambuf_iterator@DV?$char_traits@D@_STL@@@_STL@@@_STL@@MAEPAXI@Z 00410530 f i stlport_vc6_static:locale_impl.obj
 0001:0000f550       ??1?$num_put@DV?$ostreambuf_iterator@DV?$char_traits@D@_STL@@@_STL@@@_STL@@MAE@XZ 00410550 f i stlport_vc6_static:locale_impl.obj
 0001:0000f560       ??_E?$time_get@DV?$istreambuf_iterator@DV?$char_traits@D@_STL@@@_STL@@@_STL@@MAEPAXI@Z 00410560 f i stlport_vc6_static:locale_impl.obj
 0001:0000f560       ??_G?$time_get@DV?$istreambuf_iterator@DV?$char_traits@D@_STL@@@_STL@@@_STL@@MAEPAXI@Z 00410560 f i stlport_vc6_static:locale_impl.obj
 0001:0000f580       ??1?$time_get@DV?$istreambuf_iterator@DV?$char_traits@D@_STL@@@_STL@@@_STL@@MAE@XZ 00410580 f i stlport_vc6_static:locale_impl.obj
 0001:0000f6c0       ??0_Time_Info@_STL@@QAE@XZ 004106c0 f i stlport_vc6_static:locale_impl.obj
 0001:0000f890       ??1_Time_Info@_STL@@QAE@XZ 00410890 f i stlport_vc6_static:locale_impl.obj
 0001:0000f9b0       ??_G?$time_put@DV?$ostreambuf_iterator@DV?$char_traits@D@_STL@@@_STL@@@_STL@@MAEPAXI@Z 004109b0 f i stlport_vc6_static:locale_impl.obj
 0001:0000f9b0       ??_E?$time_put@DV?$ostreambuf_iterator@DV?$char_traits@D@_STL@@@_STL@@@_STL@@MAEPAXI@Z 004109b0 f i stlport_vc6_static:locale_impl.obj
 0001:0000f9d0       ??1?$time_put@DV?$ostreambuf_iterator@DV?$char_traits@D@_STL@@@_STL@@@_STL@@MAE@XZ 004109d0 f i stlport_vc6_static:locale_impl.obj
 0001:0000fb10       ??_G?$money_get@GV?$istreambuf_iterator@GV?$char_traits@G@_STL@@@_STL@@@_STL@@MAEPAXI@Z 00410b10 f i stlport_vc6_static:locale_impl.obj
 0001:0000fb10       ??_E?$money_get@GV?$istreambuf_iterator@GV?$char_traits@G@_STL@@@_STL@@@_STL@@MAEPAXI@Z 00410b10 f i stlport_vc6_static:locale_impl.obj
 0001:0000fb30       ??1?$money_get@GV?$istreambuf_iterator@GV?$char_traits@G@_STL@@@_STL@@@_STL@@MAE@XZ 00410b30 f i stlport_vc6_static:locale_impl.obj
 0001:0000fb40       ??_G?$money_put@GV?$ostreambuf_iterator@GV?$char_traits@G@_STL@@@_STL@@@_STL@@MAEPAXI@Z 00410b40 f i stlport_vc6_static:locale_impl.obj
 0001:0000fb40       ??_E?$money_put@GV?$ostreambuf_iterator@GV?$char_traits@G@_STL@@@_STL@@@_STL@@MAEPAXI@Z 00410b40 f i stlport_vc6_static:locale_impl.obj
 0001:0000fb60       ??1?$money_put@GV?$ostreambuf_iterator@GV?$char_traits@G@_STL@@@_STL@@@_STL@@MAE@XZ 00410b60 f i stlport_vc6_static:locale_impl.obj
 0001:0000fb70       ??_G?$num_get@GV?$istreambuf_iterator@GV?$char_traits@G@_STL@@@_STL@@@_STL@@MAEPAXI@Z 00410b70 f i stlport_vc6_static:locale_impl.obj
 0001:0000fb70       ??_E?$num_get@GV?$istreambuf_iterator@GV?$char_traits@G@_STL@@@_STL@@@_STL@@MAEPAXI@Z 00410b70 f i stlport_vc6_static:locale_impl.obj
 0001:0000fb90       ??1?$num_get@GV?$istreambuf_iterator@GV?$char_traits@G@_STL@@@_STL@@@_STL@@MAE@XZ 00410b90 f i stlport_vc6_static:locale_impl.obj
 0001:0000fba0       ??_G?$num_put@GV?$ostreambuf_iterator@GV?$char_traits@G@_STL@@@_STL@@@_STL@@MAEPAXI@Z 00410ba0 f i stlport_vc6_static:locale_impl.obj
 0001:0000fba0       ??_E?$num_put@GV?$ostreambuf_iterator@GV?$char_traits@G@_STL@@@_STL@@@_STL@@MAEPAXI@Z 00410ba0 f i stlport_vc6_static:locale_impl.obj
 0001:0000fbc0       ??1?$num_put@GV?$ostreambuf_iterator@GV?$char_traits@G@_STL@@@_STL@@@_STL@@MAE@XZ 00410bc0 f i stlport_vc6_static:locale_impl.obj
 0001:0000fbd0       ??_G?$time_get@GV?$istreambuf_iterator@GV?$char_traits@G@_STL@@@_STL@@@_STL@@MAEPAXI@Z 00410bd0 f i stlport_vc6_static:locale_impl.obj
 0001:0000fbd0       ??_E?$time_get@GV?$istreambuf_iterator@GV?$char_traits@G@_STL@@@_STL@@@_STL@@MAEPAXI@Z 00410bd0 f i stlport_vc6_static:locale_impl.obj
 0001:0000fbf0       ??1?$time_get@GV?$istreambuf_iterator@GV?$char_traits@G@_STL@@@_STL@@@_STL@@MAE@XZ 00410bf0 f i stlport_vc6_static:locale_impl.obj
 0001:0000fd30       ??_E?$time_put@GV?$ostreambuf_iterator@GV?$char_traits@G@_STL@@@_STL@@@_STL@@MAEPAXI@Z 00410d30 f i stlport_vc6_static:locale_impl.obj
 0001:0000fd30       ??_G?$time_put@GV?$ostreambuf_iterator@GV?$char_traits@G@_STL@@@_STL@@@_STL@@MAEPAXI@Z 00410d30 f i stlport_vc6_static:locale_impl.obj
 0001:0000fd50       ??1?$time_put@GV?$ostreambuf_iterator@GV?$char_traits@G@_STL@@@_STL@@@_STL@@MAE@XZ 00410d50 f i stlport_vc6_static:locale_impl.obj
 0001:0000fe90       ??1?$_String_base@GV?$allocator@G@_STL@@@_STL@@QAE@XZ 00410e90 f i stlport_vc6_static:locale_impl.obj
 0001:0000ff20       ??1?$allocator@G@_STL@@QAE@XZ 00410f20 f i stlport_vc6_static:locale_impl.obj
 0001:0000ff30       ??1?$_STLP_alloc_proxy@PAGGV?$allocator@G@_STL@@@_STL@@QAE@XZ 00410f30 f i stlport_vc6_static:locale_impl.obj
 0001:0000ff40       ?deallocate@?$_STLP_alloc_proxy@PADDV?$allocator@D@_STL@@@_STL@@QAEXPADI@Z 00410f40 f i stlport_vc6_static:locale_impl.obj
 0001:0000ff70       ?_M_do_lock@?$_STLP_mutex_spin@$0A@@_STL@@SAXPCJ@Z 00410f70 f i stlport_vc6_static:locale_impl.obj
 0001:00010060       ??0?$basic_string@DV?$char_traits@D@_STL@@V?$allocator@D@2@@_STL@@QAE@XZ 00411060 f i stlport_vc6_static:locale_impl.obj
 0001:00010130       ?do_get@?$money_get@DV?$istreambuf_iterator@DV?$char_traits@D@_STL@@@_STL@@@_STL@@MBE?AV?$istreambuf_iterator@DV?$char_traits@D@_STL@@@2@V32@0_NAAVios_base@2@AAHAAV?$basic_string@DV?$char_traits@D@_STL@@V?$allocator@D@2@@2@@Z 00411130 f i stlport_vc6_static:locale_impl.obj
 0001:00010f90       ?grouping@?$moneypunct@D$00@_STL@@QBE?AV?$basic_string@DV?$char_traits@D@_STL@@V?$allocator@D@2@@2@XZ 00411f90 f i stlport_vc6_static:locale_impl.obj
 0001:00010fb0       ?curr_symbol@?$moneypunct@D$00@_STL@@QBE?AV?$basic_string@DV?$char_traits@D@_STL@@V?$allocator@D@2@@2@XZ 00411fb0 f i stlport_vc6_static:locale_impl.obj
 0001:00010fd0       ?positive_sign@?$moneypunct@D$00@_STL@@QBE?AV?$basic_string@DV?$char_traits@D@_STL@@V?$allocator@D@2@@2@XZ 00411fd0 f i stlport_vc6_static:locale_impl.obj
 0001:00010ff0       ?negative_sign@?$moneypunct@D$00@_STL@@QBE?AV?$basic_string@DV?$char_traits@D@_STL@@V?$allocator@D@2@@2@XZ 00411ff0 f i stlport_vc6_static:locale_impl.obj
 0001:00011010       ?grouping@?$moneypunct@D$0A@@_STL@@QBE?AV?$basic_string@DV?$char_traits@D@_STL@@V?$allocator@D@2@@2@XZ 00412010 f i stlport_vc6_static:locale_impl.obj
 0001:00011030       ?curr_symbol@?$moneypunct@D$0A@@_STL@@QBE?AV?$basic_string@DV?$char_traits@D@_STL@@V?$allocator@D@2@@2@XZ 00412030 f i stlport_vc6_static:locale_impl.obj
 0001:00011050       ?positive_sign@?$moneypunct@D$0A@@_STL@@QBE?AV?$basic_string@DV?$char_traits@D@_STL@@V?$allocator@D@2@@2@XZ 00412050 f i stlport_vc6_static:locale_impl.obj
 0001:00011070       ?negative_sign@?$moneypunct@D$0A@@_STL@@QBE?AV?$basic_string@DV?$char_traits@D@_STL@@V?$allocator@D@2@@2@XZ 00412070 f i stlport_vc6_static:locale_impl.obj
 0001:00011090       ?sbumpc@?$basic_streambuf@DV?$char_traits@D@_STL@@@_STL@@QAEHXZ 00412090 f i stlport_vc6_static:locale_impl.obj
 0001:000110c0       ?do_get@?$money_get@DV?$istreambuf_iterator@DV?$char_traits@D@_STL@@@_STL@@@_STL@@MBE?AV?$istreambuf_iterator@DV?$char_traits@D@_STL@@@2@V32@0_NAAVios_base@2@AAHAAO@Z 004120c0 f i stlport_vc6_static:locale_impl.obj
 0001:000112c0       ?sgetc@?$basic_streambuf@DV?$char_traits@D@_STL@@@_STL@@QAEHXZ 004122c0 f i stlport_vc6_static:locale_impl.obj
 0001:000112e0       ?do_put@?$money_put@DV?$ostreambuf_iterator@DV?$char_traits@D@_STL@@@_STL@@@_STL@@MBE?AV?$ostreambuf_iterator@DV?$char_traits@D@_STL@@@2@V32@_NAAVios_base@2@DABV?$basic_string@DV?$char_traits@D@_STL@@V?$allocator@D@2@@2@@Z 004122e0 f i stlport_vc6_static:locale_impl.obj
 0001:00011e70       ?sputc@?$basic_streambuf@DV?$char_traits@D@_STL@@@_STL@@QAEHD@Z 00412e70 f i stlport_vc6_static:locale_impl.obj
 0001:00011eb0       ?_M_deallocate_block@?$_String_base@DV?$allocator@D@_STL@@@_STL@@QAEXXZ 00412eb0 f i stlport_vc6_static:locale_impl.obj
 0001:00011ee0       ?do_get@?$num_get@DV?$istreambuf_iterator@DV?$char_traits@D@_STL@@@_STL@@@_STL@@MBE?AV?$istreambuf_iterator@DV?$char_traits@D@_STL@@@2@V32@0AAVios_base@2@AAHAA_K@Z 00412ee0 f i stlport_vc6_static:locale_impl.obj
 0001:000121e0       ?do_get@?$num_get@DV?$istreambuf_iterator@DV?$char_traits@D@_STL@@@_STL@@@_STL@@MBE?AV?$istreambuf_iterator@DV?$char_traits@D@_STL@@@2@V32@0AAVios_base@2@AAHAA_J@Z 004131e0 f i stlport_vc6_static:locale_impl.obj
 0001:000124e0       ?do_get@?$num_get@DV?$istreambuf_iterator@DV?$char_traits@D@_STL@@@_STL@@@_STL@@MBE?AV?$istreambuf_iterator@DV?$char_traits@D@_STL@@@2@V32@0AAVios_base@2@AAHAAO@Z 004134e0 f i stlport_vc6_static:locale_impl.obj
 0001:00012800       ?do_get@?$num_get@DV?$istreambuf_iterator@DV?$char_traits@D@_STL@@@_STL@@@_STL@@MBE?AV?$istreambuf_iterator@DV?$char_traits@D@_STL@@@2@V32@0AAVios_base@2@AAHAAPAX@Z 00413800 f i stlport_vc6_static:locale_impl.obj
 0001:00012b00       ?do_get@?$num_get@DV?$istreambuf_iterator@DV?$char_traits@D@_STL@@@_STL@@@_STL@@MBE?AV?$istreambuf_iterator@DV?$char_traits@D@_STL@@@2@V32@0AAVios_base@2@AAHAAN@Z 00413b00 f i stlport_vc6_static:locale_impl.obj
 0001:00012e20       ?do_get@?$num_get@DV?$istreambuf_iterator@DV?$char_traits@D@_STL@@@_STL@@@_STL@@MBE?AV?$istreambuf_iterator@DV?$char_traits@D@_STL@@@2@V32@0AAVios_base@2@AAHAAM@Z 00413e20 f i stlport_vc6_static:locale_impl.obj
 0001:00013140       ?do_get@?$num_get@DV?$istreambuf_iterator@DV?$char_traits@D@_STL@@@_STL@@@_STL@@MBE?AV?$istreambuf_iterator@DV?$char_traits@D@_STL@@@2@V32@0AAVios_base@2@AAHAAK@Z 00414140 f i stlport_vc6_static:locale_impl.obj
 0001:00013430       ?do_get@?$num_get@DV?$istreambuf_iterator@DV?$char_traits@D@_STL@@@_STL@@@_STL@@MBE?AV?$istreambuf_iterator@DV?$char_traits@D@_STL@@@2@V32@0AAVios_base@2@AAHAAI@Z 00414430 f i stlport_vc6_static:locale_impl.obj
 0001:00013720       ?do_get@?$num_get@DV?$istreambuf_iterator@DV?$char_traits@D@_STL@@@_STL@@@_STL@@MBE?AV?$istreambuf_iterator@DV?$char_traits@D@_STL@@@2@V32@0AAVios_base@2@AAHAAG@Z 00414720 f i stlport_vc6_static:locale_impl.obj
 0001:00013a10       ?do_get@?$num_get@DV?$istreambuf_iterator@DV?$char_traits@D@_STL@@@_STL@@@_STL@@MBE?AV?$istreambuf_iterator@DV?$char_traits@D@_STL@@@2@V32@0AAVios_base@2@AAHAAJ@Z 00414a10 f i stlport_vc6_static:locale_impl.obj
 0001:00013d00       ?do_get@?$num_get@DV?$istreambuf_iterator@DV?$char_traits@D@_STL@@@_STL@@@_STL@@MBE?AV?$istreambuf_iterator@DV?$char_traits@D@_STL@@@2@V32@0AAVios_base@2@AAHAA_N@Z 00414d00 f i stlport_vc6_static:locale_impl.obj
 0001:00013ff0       ?truename@?$numpunct@D@_STL@@QBE?AV?$basic_string@DV?$char_traits@D@_STL@@V?$allocator@D@2@@2@XZ 00414ff0 f i stlport_vc6_static:locale_impl.obj
 0001:00014010       ?falsename@?$numpunct@D@_STL@@QBE?AV?$basic_string@DV?$char_traits@D@_STL@@V?$allocator@D@2@@2@XZ 00415010 f i stlport_vc6_static:locale_impl.obj
 0001:00014030       ?do_put@?$num_put@DV?$ostreambuf_iterator@DV?$char_traits@D@_STL@@@_STL@@@_STL@@MBE?AV?$ostreambuf_iterator@DV?$char_traits@D@_STL@@@2@V32@AAVios_base@2@DPBX@Z 00415030 f i stlport_vc6_static:locale_impl.obj
 0001:000140f0       ?do_put@?$num_put@DV?$ostreambuf_iterator@DV?$char_traits@D@_STL@@@_STL@@@_STL@@MBE?AV?$ostreambuf_iterator@DV?$char_traits@D@_STL@@@2@V32@AAVios_base@2@D_K@Z 004150f0 f i stlport_vc6_static:locale_impl.obj
 0001:000142f0       ?do_put@?$num_put@DV?$ostreambuf_iterator@DV?$char_traits@D@_STL@@@_STL@@@_STL@@MBE?AV?$ostreambuf_iterator@DV?$char_traits@D@_STL@@@2@V32@AAVios_base@2@D_J@Z 004152f0 f i stlport_vc6_static:locale_impl.obj
 0001:00014520       ?do_put@?$num_put@DV?$ostreambuf_iterator@DV?$char_traits@D@_STL@@@_STL@@@_STL@@MBE?AV?$ostreambuf_iterator@DV?$char_traits@D@_STL@@@2@V32@AAVios_base@2@DO@Z 00415520 f i stlport_vc6_static:locale_impl.obj
 0001:000145c0       ?do_put@?$num_put@DV?$ostreambuf_iterator@DV?$char_traits@D@_STL@@@_STL@@@_STL@@MBE?AV?$ostreambuf_iterator@DV?$char_traits@D@_STL@@@2@V32@AAVios_base@2@DN@Z 004155c0 f i stlport_vc6_static:locale_impl.obj
 0001:00014660       ?do_put@?$num_put@DV?$ostreambuf_iterator@DV?$char_traits@D@_STL@@@_STL@@@_STL@@MBE?AV?$ostreambuf_iterator@DV?$char_traits@D@_STL@@@2@V32@AAVios_base@2@DK@Z 00415660 f i stlport_vc6_static:locale_impl.obj
 0001:00014860       ?do_put@?$num_put@DV?$ostreambuf_iterator@DV?$char_traits@D@_STL@@@_STL@@@_STL@@MBE?AV?$ostreambuf_iterator@DV?$char_traits@D@_STL@@@2@V32@AAVios_base@2@DJ@Z 00415860 f i stlport_vc6_static:locale_impl.obj
 0001:00014aa0       ?do_put@?$num_put@DV?$ostreambuf_iterator@DV?$char_traits@D@_STL@@@_STL@@@_STL@@MBE?AV?$ostreambuf_iterator@DV?$char_traits@D@_STL@@@2@V32@AAVios_base@2@D_N@Z 00415aa0 f i stlport_vc6_static:locale_impl.obj
 0001:00014d90       ?do_get_time@?$time_get@DV?$istreambuf_iterator@DV?$char_traits@D@_STL@@@_STL@@@_STL@@MBE?AV?$istreambuf_iterator@DV?$char_traits@D@_STL@@@2@V32@0AAVios_base@2@AAHPAUtm@@@Z 00415d90 f i stlport_vc6_static:locale_impl.obj
 0001:00015180       ?do_get_date@?$time_get@DV?$istreambuf_iterator@DV?$char_traits@D@_STL@@@_STL@@@_STL@@MBE?AV?$istreambuf_iterator@DV?$char_traits@D@_STL@@@2@V32@0AAVios_base@2@AAHPAUtm@@@Z 00416180 f i stlport_vc6_static:locale_impl.obj
 0001:00015570       ?do_get_weekday@?$time_get@DV?$istreambuf_iterator@DV?$char_traits@D@_STL@@@_STL@@@_STL@@MBE?AV?$istreambuf_iterator@DV?$char_traits@D@_STL@@@2@V32@0AAVios_base@2@AAHPAUtm@@@Z 00416570 f i stlport_vc6_static:locale_impl.obj
 0001:00015820       ?do_get_monthname@?$time_get@DV?$istreambuf_iterator@DV?$char_traits@D@_STL@@@_STL@@@_STL@@MBE?AV?$istreambuf_iterator@DV?$char_traits@D@_STL@@@2@V32@0AAVios_base@2@AAHPAUtm@@@Z 00416820 f i stlport_vc6_static:locale_impl.obj
 0001:00015af0       ?do_get_year@?$time_get@DV?$istreambuf_iterator@DV?$char_traits@D@_STL@@@_STL@@@_STL@@MBE?AV?$istreambuf_iterator@DV?$char_traits@D@_STL@@@2@V32@0AAVios_base@2@AAHPAUtm@@@Z 00416af0 f i stlport_vc6_static:locale_impl.obj
 0001:00015c60       ?do_put@?$time_put@DV?$ostreambuf_iterator@DV?$char_traits@D@_STL@@@_STL@@@_STL@@MBE?AV?$ostreambuf_iterator@DV?$char_traits@D@_STL@@@2@V32@AAVios_base@2@DPBUtm@@DD@Z 00416c60 f i stlport_vc6_static:locale_impl.obj
 0001:00015d20       ?do_get@?$money_get@GV?$istreambuf_iterator@GV?$char_traits@G@_STL@@@_STL@@@_STL@@MBE?AV?$istreambuf_iterator@GV?$char_traits@G@_STL@@@2@V32@0_NAAVios_base@2@AAHAAV?$basic_string@GV?$char_traits@G@_STL@@V?$allocator@G@2@@2@@Z 00416d20 f i stlport_vc6_static:locale_impl.obj
 0001:00016b80       ?grouping@?$moneypunct@G$00@_STL@@QBE?AV?$basic_string@DV?$char_traits@D@_STL@@V?$allocator@D@2@@2@XZ 00417b80 f i stlport_vc6_static:locale_impl.obj
 0001:00016ba0       ?curr_symbol@?$moneypunct@G$00@_STL@@QBE?AV?$basic_string@GV?$char_traits@G@_STL@@V?$allocator@G@2@@2@XZ 00417ba0 f i stlport_vc6_static:locale_impl.obj
 0001:00016bc0       ?positive_sign@?$moneypunct@G$00@_STL@@QBE?AV?$basic_string@GV?$char_traits@G@_STL@@V?$allocator@G@2@@2@XZ 00417bc0 f i stlport_vc6_static:locale_impl.obj
 0001:00016be0       ?negative_sign@?$moneypunct@G$00@_STL@@QBE?AV?$basic_string@GV?$char_traits@G@_STL@@V?$allocator@G@2@@2@XZ 00417be0 f i stlport_vc6_static:locale_impl.obj
 0001:00016c00       ?grouping@?$moneypunct@G$0A@@_STL@@QBE?AV?$basic_string@DV?$char_traits@D@_STL@@V?$allocator@D@2@@2@XZ 00417c00 f i stlport_vc6_static:locale_impl.obj
 0001:00016c20       ?curr_symbol@?$moneypunct@G$0A@@_STL@@QBE?AV?$basic_string@GV?$char_traits@G@_STL@@V?$allocator@G@2@@2@XZ 00417c20 f i stlport_vc6_static:locale_impl.obj
 0001:00016c40       ?positive_sign@?$moneypunct@G$0A@@_STL@@QBE?AV?$basic_string@GV?$char_traits@G@_STL@@V?$allocator@G@2@@2@XZ 00417c40 f i stlport_vc6_static:locale_impl.obj
 0001:00016c60       ?negative_sign@?$moneypunct@G$0A@@_STL@@QBE?AV?$basic_string@GV?$char_traits@G@_STL@@V?$allocator@G@2@@2@XZ 00417c60 f i stlport_vc6_static:locale_impl.obj
 0001:00016c80       ?do_get@?$money_get@GV?$istreambuf_iterator@GV?$char_traits@G@_STL@@@_STL@@@_STL@@MBE?AV?$istreambuf_iterator@GV?$char_traits@G@_STL@@@2@V32@0_NAAVios_base@2@AAHAAO@Z 00417c80 f i stlport_vc6_static:locale_impl.obj
 0001:00016e90       ?deallocate@?$allocator@G@_STL@@QBEXPAGI@Z 00417e90 f i stlport_vc6_static:locale_impl.obj
 0001:00016ec0       ?do_put@?$money_put@GV?$ostreambuf_iterator@GV?$char_traits@G@_STL@@@_STL@@@_STL@@MBE?AV?$ostreambuf_iterator@GV?$char_traits@G@_STL@@@2@V32@_NAAVios_base@2@GABV?$basic_string@GV?$char_traits@G@_STL@@V?$allocator@G@2@@2@@Z 00417ec0 f i stlport_vc6_static:locale_impl.obj
 0001:00017a90       ?_M_deallocate_block@?$_String_base@GV?$allocator@G@_STL@@@_STL@@QAEXXZ 00418a90 f i stlport_vc6_static:locale_impl.obj
 0001:00017ac0       ?do_get@?$num_get@GV?$istreambuf_iterator@GV?$char_traits@G@_STL@@@_STL@@@_STL@@MBE?AV?$istreambuf_iterator@GV?$char_traits@G@_STL@@@2@V32@0AAVios_base@2@AAHAA_K@Z 00418ac0 f i stlport_vc6_static:locale_impl.obj
 0001:00017db0       ?do_get@?$num_get@GV?$istreambuf_iterator@GV?$char_traits@G@_STL@@@_STL@@@_STL@@MBE?AV?$istreambuf_iterator@GV?$char_traits@G@_STL@@@2@V32@0AAVios_base@2@AAHAA_J@Z 00418db0 f i stlport_vc6_static:locale_impl.obj
 0001:000180a0       ?do_get@?$num_get@GV?$istreambuf_iterator@GV?$char_traits@G@_STL@@@_STL@@@_STL@@MBE?AV?$istreambuf_iterator@GV?$char_traits@G@_STL@@@2@V32@0AAVios_base@2@AAHAAO@Z 004190a0 f i stlport_vc6_static:locale_impl.obj
 0001:00018420       ?do_get@?$num_get@GV?$istreambuf_iterator@GV?$char_traits@G@_STL@@@_STL@@@_STL@@MBE?AV?$istreambuf_iterator@GV?$char_traits@G@_STL@@@2@V32@0AAVios_base@2@AAHAAPAX@Z 00419420 f i stlport_vc6_static:locale_impl.obj
 0001:00018720       ?do_get@?$num_get@GV?$istreambuf_iterator@GV?$char_traits@G@_STL@@@_STL@@@_STL@@MBE?AV?$istreambuf_iterator@GV?$char_traits@G@_STL@@@2@V32@0AAVios_base@2@AAHAAN@Z 00419720 f i stlport_vc6_static:locale_impl.obj
 0001:00018aa0       ?do_get@?$num_get@GV?$istreambuf_iterator@GV?$char_traits@G@_STL@@@_STL@@@_STL@@MBE?AV?$istreambuf_iterator@GV?$char_traits@G@_STL@@@2@V32@0AAVios_base@2@AAHAAM@Z 00419aa0 f i stlport_vc6_static:locale_impl.obj
 0001:00018e20       ?do_get@?$num_get@GV?$istreambuf_iterator@GV?$char_traits@G@_STL@@@_STL@@@_STL@@MBE?AV?$istreambuf_iterator@GV?$char_traits@G@_STL@@@2@V32@0AAVios_base@2@AAHAAK@Z 00419e20 f i stlport_vc6_static:locale_impl.obj
 0001:00019110       ?do_get@?$num_get@GV?$istreambuf_iterator@GV?$char_traits@G@_STL@@@_STL@@@_STL@@MBE?AV?$istreambuf_iterator@GV?$char_traits@G@_STL@@@2@V32@0AAVios_base@2@AAHAAI@Z 0041a110 f i stlport_vc6_static:locale_impl.obj
 0001:00019400       ?do_get@?$num_get@GV?$istreambuf_iterator@GV?$char_traits@G@_STL@@@_STL@@@_STL@@MBE?AV?$istreambuf_iterator@GV?$char_traits@G@_STL@@@2@V32@0AAVios_base@2@AAHAAG@Z 0041a400 f i stlport_vc6_static:locale_impl.obj
 0001:000196f0       ?do_get@?$num_get@GV?$istreambuf_iterator@GV?$char_traits@G@_STL@@@_STL@@@_STL@@MBE?AV?$istreambuf_iterator@GV?$char_traits@G@_STL@@@2@V32@0AAVios_base@2@AAHAAJ@Z 0041a6f0 f i stlport_vc6_static:locale_impl.obj
 0001:000199e0       ?do_get@?$num_get@GV?$istreambuf_iterator@GV?$char_traits@G@_STL@@@_STL@@@_STL@@MBE?AV?$istreambuf_iterator@GV?$char_traits@G@_STL@@@2@V32@0AAVios_base@2@AAHAA_N@Z 0041a9e0 f i stlport_vc6_static:locale_impl.obj
 0001:00019cd0       ?truename@?$numpunct@G@_STL@@QBE?AV?$basic_string@GV?$char_traits@G@_STL@@V?$allocator@G@2@@2@XZ 0041acd0 f i stlport_vc6_static:locale_impl.obj
 0001:00019cf0       ?falsename@?$numpunct@G@_STL@@QBE?AV?$basic_string@GV?$char_traits@G@_STL@@V?$allocator@G@2@@2@XZ 0041acf0 f i stlport_vc6_static:locale_impl.obj
 0001:00019d10       ?do_put@?$num_put@GV?$ostreambuf_iterator@GV?$char_traits@G@_STL@@@_STL@@@_STL@@MBE?AV?$ostreambuf_iterator@GV?$char_traits@G@_STL@@@2@V32@AAVios_base@2@GPBX@Z 0041ad10 f i stlport_vc6_static:locale_impl.obj
 0001:00019dd0       ?do_put@?$num_put@GV?$ostreambuf_iterator@GV?$char_traits@G@_STL@@@_STL@@@_STL@@MBE?AV?$ostreambuf_iterator@GV?$char_traits@G@_STL@@@2@V32@AAVios_base@2@G_K@Z 0041add0 f i stlport_vc6_static:locale_impl.obj
 0001:00019ef0       ?do_put@?$num_put@GV?$ostreambuf_iterator@GV?$char_traits@G@_STL@@@_STL@@@_STL@@MBE?AV?$ostreambuf_iterator@GV?$char_traits@G@_STL@@@2@V32@AAVios_base@2@G_J@Z 0041aef0 f i stlport_vc6_static:locale_impl.obj
 0001:0001a050       ?do_put@?$num_put@GV?$ostreambuf_iterator@GV?$char_traits@G@_STL@@@_STL@@@_STL@@MBE?AV?$ostreambuf_iterator@GV?$char_traits@G@_STL@@@2@V32@AAVios_base@2@GO@Z 0041b050 f i stlport_vc6_static:locale_impl.obj
 0001:0001a0e0       ?do_put@?$num_put@GV?$ostreambuf_iterator@GV?$char_traits@G@_STL@@@_STL@@@_STL@@MBE?AV?$ostreambuf_iterator@GV?$char_traits@G@_STL@@@2@V32@AAVios_base@2@GN@Z 0041b0e0 f i stlport_vc6_static:locale_impl.obj
 0001:0001a170       ?do_put@?$num_put@GV?$ostreambuf_iterator@GV?$char_traits@G@_STL@@@_STL@@@_STL@@MBE?AV?$ostreambuf_iterator@GV?$char_traits@G@_STL@@@2@V32@AAVios_base@2@GK@Z 0041b170 f i stlport_vc6_static:locale_impl.obj
 0001:0001a290       ?do_put@?$num_put@GV?$ostreambuf_iterator@GV?$char_traits@G@_STL@@@_STL@@@_STL@@MBE?AV?$ostreambuf_iterator@GV?$char_traits@G@_STL@@@2@V32@AAVios_base@2@GJ@Z 0041b290 f i stlport_vc6_static:locale_impl.obj
 0001:0001a400       ?do_put@?$num_put@GV?$ostreambuf_iterator@GV?$char_traits@G@_STL@@@_STL@@@_STL@@MBE?AV?$ostreambuf_iterator@GV?$char_traits@G@_STL@@@2@V32@AAVios_base@2@G_N@Z 0041b400 f i stlport_vc6_static:locale_impl.obj
 0001:0001a700       ?do_get_time@?$time_get@GV?$istreambuf_iterator@GV?$char_traits@G@_STL@@@_STL@@@_STL@@MBE?AV?$istreambuf_iterator@GV?$char_traits@G@_STL@@@2@V32@0AAVios_base@2@AAHPAUtm@@@Z 0041b700 f i stlport_vc6_static:locale_impl.obj
 0001:0001aaf0       ?do_get_date@?$time_get@GV?$istreambuf_iterator@GV?$char_traits@G@_STL@@@_STL@@@_STL@@MBE?AV?$istreambuf_iterator@GV?$char_traits@G@_STL@@@2@V32@0AAVios_base@2@AAHPAUtm@@@Z 0041baf0 f i stlport_vc6_static:locale_impl.obj
 0001:0001aef0       ?do_get_weekday@?$time_get@GV?$istreambuf_iterator@GV?$char_traits@G@_STL@@@_STL@@@_STL@@MBE?AV?$istreambuf_iterator@GV?$char_traits@G@_STL@@@2@V32@0AAVios_base@2@AAHPAUtm@@@Z 0041bef0 f i stlport_vc6_static:locale_impl.obj
 0001:0001b1a0       ?do_get_monthname@?$time_get@GV?$istreambuf_iterator@GV?$char_traits@G@_STL@@@_STL@@@_STL@@MBE?AV?$istreambuf_iterator@GV?$char_traits@G@_STL@@@2@V32@0AAVios_base@2@AAHPAUtm@@@Z 0041c1a0 f i stlport_vc6_static:locale_impl.obj
 0001:0001b470       ?do_get_year@?$time_get@GV?$istreambuf_iterator@GV?$char_traits@G@_STL@@@_STL@@@_STL@@MBE?AV?$istreambuf_iterator@GV?$char_traits@G@_STL@@@2@V32@0AAVios_base@2@AAHPAUtm@@@Z 0041c470 f i stlport_vc6_static:locale_impl.obj
 0001:0001b5e0       ?do_put@?$time_put@GV?$ostreambuf_iterator@GV?$char_traits@G@_STL@@@_STL@@@_STL@@MBE?AV?$ostreambuf_iterator@GV?$char_traits@G@_STL@@@2@V32@AAVios_base@2@GPBUtm@@DD@Z 0041c5e0 f i stlport_vc6_static:locale_impl.obj
 0001:0001b6c0       ?_M_allocate@?$__node_alloc@$00$0A@@_STL@@CAPAXI@Z 0041c6c0 f i stlport_vc6_static:locale_impl.obj
 0001:0001b870       ?_M_deallocate@?$__node_alloc@$00$0A@@_STL@@CAXPAXI@Z 0041c870 f i stlport_vc6_static:locale_impl.obj
 0001:0001b9a0       ??4?$basic_string@DV?$char_traits@D@_STL@@V?$allocator@D@2@@_STL@@QAEAAV01@ABV01@@Z 0041c9a0 f i stlport_vc6_static:locale_impl.obj
 0001:0001ba20       ?insert@?$basic_string@DV?$char_traits@D@_STL@@V?$allocator@D@2@@_STL@@QAEPADPADD@Z 0041ca20 f i stlport_vc6_static:locale_impl.obj
 0001:0001baa0       ??4?$basic_string@GV?$char_traits@G@_STL@@V?$allocator@G@2@@_STL@@QAEAAV01@ABV01@@Z 0041caa0 f i stlport_vc6_static:locale_impl.obj
 0001:0001bb30       ?push_back@?$basic_string@GV?$char_traits@G@_STL@@V?$allocator@G@2@@_STL@@QAEXG@Z 0041cb30 f i stlport_vc6_static:locale_impl.obj
 0001:0001bba0       ?insert@?$basic_string@GV?$char_traits@G@_STL@@V?$allocator@G@2@@_STL@@QAEPAGPAGG@Z 0041cba0 f i stlport_vc6_static:locale_impl.obj
 0001:0001bc20       ??0?$_String_base@GV?$allocator@G@_STL@@@_STL@@QAE@ABV?$allocator@G@1@@Z 0041cc20 f i stlport_vc6_static:locale_impl.obj
 0001:0001bc30       ??4?$ostreambuf_iterator@DV?$char_traits@D@_STL@@@_STL@@QAEAAV01@D@Z 0041cc30 f i stlport_vc6_static:locale_impl.obj
 0001:0001bc90       ??4?$ostreambuf_iterator@GV?$char_traits@G@_STL@@@_STL@@QAEAAV01@G@Z 0041cc90 f i stlport_vc6_static:locale_impl.obj
 0001:0001bcf0       ??1?$_Node_Alloc_Lock@$00$0A@@_STL@@QAE@XZ 0041ccf0 f i stlport_vc6_static:locale_impl.obj
 0001:0001bd00       ??0?$_STLP_alloc_proxy@PAGGV?$allocator@G@_STL@@@_STL@@QAE@ABV?$allocator@G@1@PAG@Z 0041cd00 f i stlport_vc6_static:locale_impl.obj
 0001:0001bd10       ?_M_getc@?$istreambuf_iterator@DV?$char_traits@D@_STL@@@_STL@@ABEXXZ 0041cd10 f i stlport_vc6_static:locale_impl.obj
 0001:0001bd60       ?_M_getc@?$istreambuf_iterator@GV?$char_traits@G@_STL@@@_STL@@ABEXXZ 0041cd60 f i stlport_vc6_static:locale_impl.obj
 0001:0001bdb0       ?sputc@?$basic_streambuf@GV?$char_traits@G@_STL@@@_STL@@QAEGG@Z 0041cdb0 f i stlport_vc6_static:locale_impl.obj
 0001:0001bde0       ?sbumpc@?$basic_streambuf@GV?$char_traits@G@_STL@@@_STL@@QAEGXZ 0041cde0 f i stlport_vc6_static:locale_impl.obj
 0001:0001be00       ?sgetc@?$basic_streambuf@GV?$char_traits@G@_STL@@@_STL@@QAEGXZ 0041ce00 f i stlport_vc6_static:locale_impl.obj
 0001:0001be20       ?_M_insert_aux@?$basic_string@DV?$char_traits@D@_STL@@V?$allocator@D@2@@_STL@@AAEPADPADD@Z 0041ce20 f i stlport_vc6_static:locale_impl.obj
 0001:0001c020       ?reserve@?$basic_string@GV?$char_traits@G@_STL@@V?$allocator@G@2@@_STL@@QAEXI@Z 0041d020 f i stlport_vc6_static:locale_impl.obj
 0001:0001c1e0       ?_M_insert_aux@?$basic_string@GV?$char_traits@G@_STL@@V?$allocator@G@2@@_STL@@AAEPAGPAGG@Z 0041d1e0 f i stlport_vc6_static:locale_impl.obj
 0001:0001c400       ?_M_range_initialize@?$basic_string@GV?$char_traits@G@_STL@@V?$allocator@G@2@@_STL@@AAEXPBG0@Z 0041d400 f i stlport_vc6_static:locale_impl.obj
 0001:0001c490       ?__get_string@_STL@@YA?AU?$pair@V?$istreambuf_iterator@DV?$char_traits@D@_STL@@@_STL@@_N@1@V?$istreambuf_iterator@DV?$char_traits@D@_STL@@@1@0PAD1@Z 0041d490 f i stlport_vc6_static:locale_impl.obj
 0001:0001c570       ?copy@_STL@@YA?AV?$ostreambuf_iterator@DV?$char_traits@D@_STL@@@1@PBD0V21@@Z 0041d570 f i stlport_vc6_static:locale_impl.obj
 0001:0001c600       ?__copy_integer_and_fill@_STL@@YA?AV?$ostreambuf_iterator@DV?$char_traits@D@_STL@@@1@PBDHV21@HHDDD@Z 0041d600 f i stlport_vc6_static:locale_impl.obj
 0001:0001c8d0       ?__get_decimal_integer@_STL@@YA_NAAV?$istreambuf_iterator@DV?$char_traits@D@_STL@@@1@0AAH@Z 0041d8d0 f i stlport_vc6_static:locale_impl.obj
 0001:0001cab0       ?__get_string@_STL@@YA?AU?$pair@V?$istreambuf_iterator@GV?$char_traits@G@_STL@@@_STL@@_N@1@V?$istreambuf_iterator@GV?$char_traits@G@_STL@@@1@0PAG1@Z 0041dab0 f i stlport_vc6_static:locale_impl.obj
 0001:0001cba0       ?copy@_STL@@YA?AV?$ostreambuf_iterator@GV?$char_traits@G@_STL@@@1@PBG0V21@@Z 0041dba0 f i stlport_vc6_static:locale_impl.obj
 0001:0001cc20       ?__put_integer@_STL@@YA?AV?$ostreambuf_iterator@GV?$char_traits@G@_STL@@@1@PAD0V21@AAVios_base@1@HG@Z 0041dc20 f i stlport_vc6_static:locale_impl.obj
 0001:0001cf50       ?__get_decimal_integer@_STL@@YA_NAAV?$istreambuf_iterator@GV?$char_traits@G@_STL@@@1@0AAH@Z 0041df50 f i stlport_vc6_static:locale_impl.obj
 0001:0001d130       ?_S_refill@?$__node_alloc@$00$0A@@_STL@@CAPAXI@Z 0041e130 f i stlport_vc6_static:locale_impl.obj
 0001:0001d290       ?get_allocator@?$basic_string@GV?$char_traits@G@_STL@@V?$allocator@G@2@@_STL@@QBE?AV?$allocator@G@2@XZ 0041e290 f i stlport_vc6_static:locale_impl.obj
 0001:0001d2b0       ?equal@?$istreambuf_iterator@DV?$char_traits@D@_STL@@@_STL@@QBE_NABV12@@Z 0041e2b0 f i stlport_vc6_static:locale_impl.obj
 0001:0001d340       ?equal@?$istreambuf_iterator@GV?$char_traits@G@_STL@@@_STL@@QBE_NABV12@@Z 0041e340 f i stlport_vc6_static:locale_impl.obj
 0001:0001d3c0       ?_M_range_initialize@?$basic_string@GV?$char_traits@G@_STL@@V?$allocator@G@2@@_STL@@AAEXPAG0@Z 0041e3c0 f i stlport_vc6_static:locale_impl.obj
 0001:0001d450       ?_M_range_initialize@?$basic_string@GV?$char_traits@G@_STL@@V?$allocator@G@2@@_STL@@AAEXPBG0ABUforward_iterator_tag@2@@Z 0041e450 f i stlport_vc6_static:locale_impl.obj
 0001:0001d4e0       ??E?$istreambuf_iterator@DV?$char_traits@D@_STL@@@_STL@@QAE?AV01@H@Z 0041e4e0 f i stlport_vc6_static:locale_impl.obj
 0001:0001d530       ?mismatch@_STL@@YA?AU?$pair@V?$istreambuf_iterator@DV?$char_traits@D@_STL@@@_STL@@PAD@1@V?$istreambuf_iterator@DV?$char_traits@D@_STL@@@1@0PAD@Z 0041e530 f i stlport_vc6_static:locale_impl.obj
 0001:0001d620       ?__get_integer@_STL@@YA_NAAPAD0HAAOH_NDABV?$basic_string@DV?$char_traits@D@_STL@@V?$allocator@D@2@@1@ABU__false_type@1@@Z 0041e620 f i stlport_vc6_static:locale_impl.obj
 0001:0001d7a0       ?__copy_aux@_STL@@YA?AV?$ostreambuf_iterator@DV?$char_traits@D@_STL@@@1@PAD0V21@ABU__false_type@1@@Z 0041e7a0 f i stlport_vc6_static:locale_impl.obj
 0001:0001d830       ?__copy_aux@_STL@@YA?AV?$ostreambuf_iterator@DV?$char_traits@D@_STL@@@1@PBD0V21@ABU__false_type@1@@Z 0041e830 f i stlport_vc6_static:locale_impl.obj
 0001:0001d8c0       ?__get_integer@_STL@@YA_NAAV?$istreambuf_iterator@DV?$char_traits@D@_STL@@@1@0HAA_KH_NDABV?$basic_string@DV?$char_traits@D@_STL@@V?$allocator@D@2@@1@ABU__false_type@1@@Z 0041e8c0 f i stlport_vc6_static:locale_impl.obj
 0001:0001db10       ?__get_integer@_STL@@YA_NAAV?$istreambuf_iterator@DV?$char_traits@D@_STL@@@1@0HAA_JH_NDABV?$basic_string@DV?$char_traits@D@_STL@@V?$allocator@D@2@@1@ABU__true_type@1@@Z 0041eb10 f i stlport_vc6_static:locale_impl.obj
 0001:0001dd50       ?__copy_sign@_STL@@YA?AV?$istreambuf_iterator@DV?$char_traits@D@_STL@@@1@V21@0AAV?$basic_string@DV?$char_traits@D@_STL@@V?$allocator@D@2@@1@DD@Z 0041ed50 f i stlport_vc6_static:locale_impl.obj
 0001:0001de80       ?__copy_grouped_digits@_STL@@YA_NAAV?$istreambuf_iterator@DV?$char_traits@D@_STL@@@1@0AAV?$basic_string@DV?$char_traits@D@_STL@@V?$allocator@D@2@@1@PBDDABV31@AA_N@Z 0041ee80 f i stlport_vc6_static:locale_impl.obj
 0001:0001dff0       ?__copy_digits@_STL@@YA_NAAV?$istreambuf_iterator@DV?$char_traits@D@_STL@@@1@0AAV?$basic_string@DV?$char_traits@D@_STL@@V?$allocator@D@2@@1@PBD@Z 0041eff0 f i stlport_vc6_static:locale_impl.obj
 0001:0001e120       ?__get_integer@_STL@@YA_NAAV?$istreambuf_iterator@DV?$char_traits@D@_STL@@@1@0HAAKH_NDABV?$basic_string@DV?$char_traits@D@_STL@@V?$allocator@D@2@@1@ABU__false_type@1@@Z 0041f120 f i stlport_vc6_static:locale_impl.obj
 0001:0001e2e0       ?__get_integer@_STL@@YA_NAAV?$istreambuf_iterator@DV?$char_traits@D@_STL@@@1@0HAAIH_NDABV?$basic_string@DV?$char_traits@D@_STL@@V?$allocator@D@2@@1@ABU__false_type@1@@Z 0041f2e0 f i stlport_vc6_static:locale_impl.obj
 0001:0001e4a0       ?__get_integer@_STL@@YA_NAAV?$istreambuf_iterator@DV?$char_traits@D@_STL@@@1@0HAAGH_NDABV?$basic_string@DV?$char_traits@D@_STL@@V?$allocator@D@2@@1@ABU__false_type@1@@Z 0041f4a0 f i stlport_vc6_static:locale_impl.obj
 0001:0001e670       ?__get_integer@_STL@@YA_NAAV?$istreambuf_iterator@DV?$char_traits@D@_STL@@@1@0HAAJH_NDABV?$basic_string@DV?$char_traits@D@_STL@@V?$allocator@D@2@@1@ABU__true_type@1@@Z 0041f670 f i stlport_vc6_static:locale_impl.obj
 0001:0001e830       ?__put_float@_STL@@YA?AV?$ostreambuf_iterator@DV?$char_traits@D@_STL@@@1@PAD0V21@AAVios_base@1@DDDABV?$basic_string@DV?$char_traits@D@_STL@@V?$allocator@D@2@@1@@Z 0041f830 f i stlport_vc6_static:locale_impl.obj
 0001:0001eb20       ?fill_n@_STL@@YA?AV?$ostreambuf_iterator@DV?$char_traits@D@_STL@@@1@V21@HABD@Z 0041fb20 f i stlport_vc6_static:locale_impl.obj
 0001:0001ebb0       ??E?$istreambuf_iterator@GV?$char_traits@G@_STL@@@_STL@@QAE?AV01@H@Z 0041fbb0 f i stlport_vc6_static:locale_impl.obj
 0001:0001ec00       ?mismatch@_STL@@YA?AU?$pair@V?$istreambuf_iterator@GV?$char_traits@G@_STL@@@_STL@@PAG@1@V?$istreambuf_iterator@GV?$char_traits@G@_STL@@@1@0PAG@Z 0041fc00 f i stlport_vc6_static:locale_impl.obj
 0001:0001ece0       ?__get_integer@_STL@@YA_NAAPAG0HAAOH_NDABV?$basic_string@DV?$char_traits@D@_STL@@V?$allocator@D@2@@1@ABU__false_type@1@@Z 0041fce0 f i stlport_vc6_static:locale_impl.obj
 0001:0001ee60       ?__copy_aux@_STL@@YA?AV?$ostreambuf_iterator@GV?$char_traits@G@_STL@@@1@PAG0V21@ABU__false_type@1@@Z 0041fe60 f i stlport_vc6_static:locale_impl.obj
 0001:0001eee0       ?__copy_aux@_STL@@YA?AV?$ostreambuf_iterator@GV?$char_traits@G@_STL@@@1@PBG0V21@ABU__false_type@1@@Z 0041fee0 f i stlport_vc6_static:locale_impl.obj
 0001:0001ef60       ?__get_integer@_STL@@YA_NAAV?$istreambuf_iterator@GV?$char_traits@G@_STL@@@1@0HAA_KH_NDABV?$basic_string@DV?$char_traits@D@_STL@@V?$allocator@D@2@@1@ABU__false_type@1@@Z 0041ff60 f i stlport_vc6_static:locale_impl.obj
 0001:0001f1a0       ?__get_integer@_STL@@YA_NAAV?$istreambuf_iterator@GV?$char_traits@G@_STL@@@1@0HAA_JH_NDABV?$basic_string@DV?$char_traits@D@_STL@@V?$allocator@D@2@@1@ABU__true_type@1@@Z 004201a0 f i stlport_vc6_static:locale_impl.obj
 0001:0001f3e0       ?__copy_sign@_STL@@YA?AV?$istreambuf_iterator@GV?$char_traits@G@_STL@@@1@V21@0AAV?$basic_string@DV?$char_traits@D@_STL@@V?$allocator@D@2@@1@GG@Z 004203e0 f i stlport_vc6_static:locale_impl.obj
 0001:0001f510       ?__copy_grouped_digits@_STL@@YA_NAAV?$istreambuf_iterator@GV?$char_traits@G@_STL@@@1@0AAV?$basic_string@DV?$char_traits@D@_STL@@V?$allocator@D@2@@1@PBGGABV31@AA_N@Z 00420510 f i stlport_vc6_static:locale_impl.obj
 0001:0001f6b0       ?__copy_digits@_STL@@YA_NAAV?$istreambuf_iterator@GV?$char_traits@G@_STL@@@1@0AAV?$basic_string@DV?$char_traits@D@_STL@@V?$allocator@D@2@@1@PBG@Z 004206b0 f i stlport_vc6_static:locale_impl.obj
 0001:0001f800       ?__get_integer@_STL@@YA_NAAV?$istreambuf_iterator@GV?$char_traits@G@_STL@@@1@0HAAKH_NDABV?$basic_string@DV?$char_traits@D@_STL@@V?$allocator@D@2@@1@ABU__false_type@1@@Z 00420800 f i stlport_vc6_static:locale_impl.obj
 0001:0001f9c0       ?__get_integer@_STL@@YA_NAAV?$istreambuf_iterator@GV?$char_traits@G@_STL@@@1@0HAAIH_NDABV?$basic_string@DV?$char_traits@D@_STL@@V?$allocator@D@2@@1@ABU__false_type@1@@Z 004209c0 f i stlport_vc6_static:locale_impl.obj
 0001:0001fb80       ?__get_integer@_STL@@YA_NAAV?$istreambuf_iterator@GV?$char_traits@G@_STL@@@1@0HAAGH_NDABV?$basic_string@DV?$char_traits@D@_STL@@V?$allocator@D@2@@1@ABU__false_type@1@@Z 00420b80 f i stlport_vc6_static:locale_impl.obj
 0001:0001fd50       ?__get_integer@_STL@@YA_NAAV?$istreambuf_iterator@GV?$char_traits@G@_STL@@@1@0HAAJH_NDABV?$basic_string@DV?$char_traits@D@_STL@@V?$allocator@D@2@@1@ABU__true_type@1@@Z 00420d50 f i stlport_vc6_static:locale_impl.obj
 0001:0001ff10       ?__put_float@_STL@@YA?AV?$ostreambuf_iterator@GV?$char_traits@G@_STL@@@1@PAD0V21@AAVios_base@1@GGGABV?$basic_string@DV?$char_traits@D@_STL@@V?$allocator@D@2@@1@@Z 00420f10 f i stlport_vc6_static:locale_impl.obj
 0001:00020280       ?fill_n@_STL@@YA?AV?$ostreambuf_iterator@GV?$char_traits@G@_STL@@@1@V21@HABG@Z 00421280 f i stlport_vc6_static:locale_impl.obj
 0001:000202f0       ?_S_chunk_alloc@?$__node_alloc@$00$0A@@_STL@@CAPADIAAH@Z 004212f0 f i stlport_vc6_static:locale_impl.obj
 0001:00020420       ??0?$pair@V?$istreambuf_iterator@DV?$char_traits@D@_STL@@@_STL@@_N@_STL@@QAE@ABV?$istreambuf_iterator@DV?$char_traits@D@_STL@@@1@AB_N@Z 00421420 f i stlport_vc6_static:locale_impl.obj
 0001:00020440       ??0?$pair@V?$istreambuf_iterator@GV?$char_traits@G@_STL@@@_STL@@_N@_STL@@QAE@ABV?$istreambuf_iterator@GV?$char_traits@G@_STL@@@1@AB_N@Z 00421440 f i stlport_vc6_static:locale_impl.obj
 0001:00020460       ?__copy@_STL@@YA?AV?$ostreambuf_iterator@DV?$char_traits@D@_STL@@@1@PAD0V21@ABUrandom_access_iterator_tag@1@PAH@Z 00421460 f i stlport_vc6_static:locale_impl.obj
 0001:000204f0       ?__copy@_STL@@YA?AV?$ostreambuf_iterator@DV?$char_traits@D@_STL@@@1@PBD0V21@ABUrandom_access_iterator_tag@1@PAH@Z 004214f0 f i stlport_vc6_static:locale_impl.obj
 0001:00020580       ?__match@_STL@@YAPAV?$basic_string@DV?$char_traits@D@_STL@@V?$allocator@D@2@@1@AAV?$istreambuf_iterator@DV?$char_traits@D@_STL@@@1@0PAV21@1PAH@Z 00421580 f i stlport_vc6_static:locale_impl.obj
 0001:00020790       ?__copy@_STL@@YA?AV?$ostreambuf_iterator@GV?$char_traits@G@_STL@@@1@PAG0V21@ABUrandom_access_iterator_tag@1@PAH@Z 00421790 f i stlport_vc6_static:locale_impl.obj
 0001:00020810       ?__copy@_STL@@YA?AV?$ostreambuf_iterator@GV?$char_traits@G@_STL@@@1@PBG0V21@ABUrandom_access_iterator_tag@1@PAH@Z 00421810 f i stlport_vc6_static:locale_impl.obj
 0001:00020890       ?__copy_ptrs@_STL@@YAPAGPAG00ABU__false_type@1@@Z 00421890 f i stlport_vc6_static:locale_impl.obj
 0001:000208c0       ?__match@_STL@@YAPAV?$basic_string@DV?$char_traits@D@_STL@@V?$allocator@D@2@@1@AAV?$istreambuf_iterator@GV?$char_traits@G@_STL@@@1@0PAV21@1PAH@Z 004218c0 f i stlport_vc6_static:locale_impl.obj
 0001:00020ad0       ?__find@_STL@@YAPADPAD0ABDABUrandom_access_iterator_tag@1@@Z 00421ad0 f i stlport_vc6_static:locale_impl.obj
 0001:00020b40       ?__copy@_STL@@YAPAGPAG00ABUrandom_access_iterator_tag@1@PAH@Z 00421b40 f i stlport_vc6_static:locale_impl.obj
 0001:00020b70       ?__find@_STL@@YAPAGPAG0ABGABUrandom_access_iterator_tag@1@@Z 00421b70 f i stlport_vc6_static:locale_impl.obj
 0001:00020bf0       ?append@?$basic_string@GV?$char_traits@G@_STL@@V?$allocator@G@2@@_STL@@AAEAAV12@PAG0ABUforward_iterator_tag@2@@Z 00421bf0 f i stlport_vc6_static:locale_impl.obj
 0001:00020fd0       ??0Init@ios_base@_STL@@QAE@XZ 00421fd0 f   stlport_vc6_static:iostream.obj
 0001:00020ff0       ??1Init@ios_base@_STL@@QAE@XZ 00421ff0 f   stlport_vc6_static:iostream.obj
 0001:00021010       ?_Stl_create_filebuf@_STL@@YAPAV?$basic_filebuf@DV?$char_traits@D@_STL@@@1@PAU_iobuf@@H@Z 00422010 f   stlport_vc6_static:iostream.obj
 0001:000211a0       ?_Stl_create_wfilebuf@_STL@@YAPAV?$basic_filebuf@GV?$char_traits@G@_STL@@@1@PAU_iobuf@@H@Z 004221a0 f   stlport_vc6_static:iostream.obj
 0001:00021300       ?_S_initialize@ios_base@_STL@@KAXXZ 00422300 f   stlport_vc6_static:iostream.obj
 0001:00021a50       ??_Gstdio_istreambuf@_SgI@@UAEPAXI@Z 00422a50 f i stlport_vc6_static:iostream.obj
 0001:00021a50       ??_Estdio_istreambuf@_SgI@@UAEPAXI@Z 00422a50 f i stlport_vc6_static:iostream.obj
 0001:00021a70       ??_Gstdio_ostreambuf@_SgI@@UAEPAXI@Z 00422a70 f i stlport_vc6_static:iostream.obj
 0001:00021a70       ??_Estdio_ostreambuf@_SgI@@UAEPAXI@Z 00422a70 f i stlport_vc6_static:iostream.obj
 0001:00021a90       ?_S_uninitialize@ios_base@_STL@@KAXXZ 00422a90 f   stlport_vc6_static:iostream.obj
 0001:00021da0       ?sync_with_stdio@ios_base@_STL@@SA_N_N@Z 00422da0 f   stlport_vc6_static:iostream.obj
 0001:000220c0       ??0?$basic_istream@DV?$char_traits@D@_STL@@@_STL@@QAE@PAV?$basic_streambuf@DV?$char_traits@D@_STL@@@1@@Z 004230c0 f i stlport_vc6_static:iostream.obj
 0001:000221c0       ??0?$basic_istream@GV?$char_traits@G@_STL@@@_STL@@QAE@PAV?$basic_streambuf@GV?$char_traits@G@_STL@@@1@@Z 004231c0 f i stlport_vc6_static:iostream.obj
 0001:000222d0       ??1?$basic_ios@GV?$char_traits@G@_STL@@@_STL@@UAE@XZ 004232d0 f i stlport_vc6_static:iostream.obj
 0001:000222e0       ??_G?$basic_istream@GV?$char_traits@G@_STL@@@_STL@@UAEPAXI@Z 004232e0 f i stlport_vc6_static:iostream.obj
 0001:000222e0       ??_E?$basic_istream@GV?$char_traits@G@_STL@@@_STL@@UAEPAXI@Z 004232e0 f i stlport_vc6_static:iostream.obj
 0001:00022310       ??_G?$basic_ios@GV?$char_traits@G@_STL@@@_STL@@UAEPAXI@Z 00423310 f i stlport_vc6_static:iostream.obj
 0001:00022310       ??_E?$basic_ios@GV?$char_traits@G@_STL@@@_STL@@UAEPAXI@Z 00423310 f i stlport_vc6_static:iostream.obj
 0001:00022330       ?clear@?$basic_ios@GV?$char_traits@G@_STL@@@_STL@@QAEXH@Z 00423330 f i stlport_vc6_static:iostream.obj
 0001:00022350       ??0?$basic_ios@DV?$char_traits@D@_STL@@@_STL@@IAE@XZ 00423350 f i stlport_vc6_static:iostream.obj
 0001:00022370       ?rdbuf@?$basic_ios@DV?$char_traits@D@_STL@@@_STL@@QAEPAV?$basic_streambuf@DV?$char_traits@D@_STL@@@2@PAV32@@Z 00423370 f i stlport_vc6_static:iostream.obj
 0001:000223a0       ?init@?$basic_ios@GV?$char_traits@G@_STL@@@_STL@@IAEXPAV?$basic_streambuf@GV?$char_traits@G@_STL@@@2@@Z 004233a0 f i stlport_vc6_static:iostream.obj
 0001:00022450       ??0?$basic_ostream@GV?$char_traits@G@_STL@@@_STL@@QAE@PAV?$basic_streambuf@GV?$char_traits@G@_STL@@@1@@Z 00423450 f i stlport_vc6_static:iostream.obj
 0001:00022560       ??1?$basic_streambuf@GV?$char_traits@G@_STL@@@_STL@@UAE@XZ 00423560 f i stlport_vc6_static:iostream.obj
 0001:00022570       ?setbuf@?$basic_streambuf@GV?$char_traits@G@_STL@@@_STL@@MAEPAV12@PAGH@Z 00423570 f i stlport_vc6_static:iostream.obj
 0001:00022580       ?seekoff@?$basic_streambuf@GV?$char_traits@G@_STL@@@_STL@@MAE?AV?$fpos@H@2@JHH@Z 00423580 f i stlport_vc6_static:iostream.obj
 0001:000225a0       ?seekpos@?$basic_streambuf@GV?$char_traits@G@_STL@@@_STL@@MAE?AV?$fpos@H@2@V32@H@Z 004235a0 f i stlport_vc6_static:iostream.obj
 0001:000225c0       ?sync@?$basic_streambuf@GV?$char_traits@G@_STL@@@_STL@@MAEHXZ 004235c0 f i stlport_vc6_static:iostream.obj
 0001:000225d0       ?showmanyc@?$basic_streambuf@GV?$char_traits@G@_STL@@@_STL@@MAEHXZ 004235d0 f i stlport_vc6_static:iostream.obj
 0001:000225e0       ?xsgetn@?$basic_streambuf@GV?$char_traits@G@_STL@@@_STL@@MAEHPAGH@Z 004235e0 f i stlport_vc6_static:iostream.obj
 0001:00022680       ?underflow@?$basic_streambuf@GV?$char_traits@G@_STL@@@_STL@@MAEGXZ 00423680 f i stlport_vc6_static:iostream.obj
 0001:00022690       ?uflow@?$basic_streambuf@GV?$char_traits@G@_STL@@@_STL@@MAEGXZ 00423690 f i stlport_vc6_static:iostream.obj
 0001:000226c0       ?pbackfail@?$basic_streambuf@GV?$char_traits@G@_STL@@@_STL@@MAEGG@Z 004236c0 f i stlport_vc6_static:iostream.obj
 0001:000226d0       ?xsputn@?$basic_streambuf@GV?$char_traits@G@_STL@@@_STL@@MAEHPBGH@Z 004236d0 f i stlport_vc6_static:iostream.obj
 0001:00022780       ?_M_xsputnc@?$basic_streambuf@GV?$char_traits@G@_STL@@@_STL@@MAEHGH@Z 00423780 f i stlport_vc6_static:iostream.obj
 0001:00022810       ?overflow@?$basic_streambuf@GV?$char_traits@G@_STL@@@_STL@@MAEGG@Z 00423810 f i stlport_vc6_static:iostream.obj
 0001:00022820       ?imbue@?$basic_streambuf@GV?$char_traits@G@_STL@@@_STL@@MAEXABVlocale@2@@Z 00423820 f i stlport_vc6_static:iostream.obj
 0001:00022830       ?showmanyc@?$basic_filebuf@GV?$char_traits@G@_STL@@@_STL@@MAEHXZ 00423830 f i stlport_vc6_static:iostream.obj
 0001:00022890       ?underflow@?$basic_filebuf@GV?$char_traits@G@_STL@@@_STL@@MAEGXZ 00423890 f i stlport_vc6_static:iostream.obj
 0001:00022a60       ?pbackfail@?$basic_filebuf@GV?$char_traits@G@_STL@@@_STL@@MAEGG@Z 00423a60 f i stlport_vc6_static:iostream.obj
 0001:00022b10       ?overflow@?$basic_filebuf@GV?$char_traits@G@_STL@@@_STL@@MAEGG@Z 00423b10 f i stlport_vc6_static:iostream.obj
 0001:00022cc0       ?setbuf@?$basic_filebuf@GV?$char_traits@G@_STL@@@_STL@@MAEPAV?$basic_streambuf@GV?$char_traits@G@_STL@@@2@PAGH@Z 00423cc0 f i stlport_vc6_static:iostream.obj
 0001:00022e60       ?seekoff@?$basic_filebuf@GV?$char_traits@G@_STL@@@_STL@@MAE?AV?$fpos@H@2@JHH@Z 00423e60 f i stlport_vc6_static:iostream.obj
 0001:00023340       ?seekpos@?$basic_filebuf@GV?$char_traits@G@_STL@@@_STL@@MAE?AV?$fpos@H@2@V32@H@Z 00424340 f i stlport_vc6_static:iostream.obj
 0001:00023430       ?sync@?$basic_filebuf@GV?$char_traits@G@_STL@@@_STL@@MAEHXZ 00424430 f i stlport_vc6_static:iostream.obj
 0001:00023450       ?imbue@?$basic_filebuf@GV?$char_traits@G@_STL@@@_STL@@MAEXABVlocale@2@@Z 00424450 f i stlport_vc6_static:iostream.obj
 0001:000234d0       ??_E?$basic_ostream@GV?$char_traits@G@_STL@@@_STL@@UAEPAXI@Z 004244d0 f i stlport_vc6_static:iostream.obj
 0001:000234d0       ??_G?$basic_ostream@GV?$char_traits@G@_STL@@@_STL@@UAEPAXI@Z 004244d0 f i stlport_vc6_static:iostream.obj
 0001:00023500       ??_G?$basic_streambuf@GV?$char_traits@G@_STL@@@_STL@@UAEPAXI@Z 00424500 f i stlport_vc6_static:iostream.obj
 0001:00023500       ??_E?$basic_streambuf@GV?$char_traits@G@_STL@@@_STL@@UAEPAXI@Z 00424500 f i stlport_vc6_static:iostream.obj
 0001:00023520       ??_E?$basic_filebuf@GV?$char_traits@G@_STL@@@_STL@@UAEPAXI@Z 00424520 f i stlport_vc6_static:iostream.obj
 0001:00023520       ??_G?$basic_filebuf@GV?$char_traits@G@_STL@@@_STL@@UAEPAXI@Z 00424520 f i stlport_vc6_static:iostream.obj
 0001:00023540       ??1?$basic_filebuf@GV?$char_traits@G@_STL@@@_STL@@UAE@XZ 00424540 f i stlport_vc6_static:iostream.obj
 0001:000236d0       ?unshift@?$codecvt@GDH@_STL@@QBE?AW4result@codecvt_base@2@AAHPAD1AAPAD@Z 004246d0 f i stlport_vc6_static:iostream.obj
 0001:000236f0       ?setg@?$basic_streambuf@GV?$char_traits@G@_STL@@@_STL@@IAEXPAG00@Z 004246f0 f i stlport_vc6_static:iostream.obj
 0001:00023710       ?setp@?$basic_streambuf@GV?$char_traits@G@_STL@@@_STL@@IAEXPAG0@Z 00424710 f i stlport_vc6_static:iostream.obj
 0001:00023730       ??1?$_Filebuf_Tmp_Buf@G@_STL@@QAE@XZ 00424730 f i stlport_vc6_static:iostream.obj
 0001:00023740       ?imbue@?$basic_ios@GV?$char_traits@G@_STL@@@_STL@@QAE?AVlocale@2@ABV32@@Z 00424740 f i stlport_vc6_static:iostream.obj
 0001:000238a0       ?grouping@?$numpunct@G@_STL@@QBE?AV?$basic_string@DV?$char_traits@D@_STL@@V?$allocator@D@2@@2@XZ 004248a0 f i stlport_vc6_static:iostream.obj
 0001:000238c0       ?_M_exit_input_mode@?$basic_filebuf@GV?$char_traits@G@_STL@@@_STL@@AAEXXZ 004248c0 f i stlport_vc6_static:iostream.obj
 0001:000238f0       ?_M_allocate_buffers@?$basic_filebuf@GV?$char_traits@G@_STL@@@_STL@@AAE_NPAGH@Z 004248f0 f i stlport_vc6_static:iostream.obj
 0001:000239d0       ?_M_setup_codecvt@?$basic_filebuf@GV?$char_traits@G@_STL@@@_STL@@AAEXABVlocale@2@@Z 004249d0 f i stlport_vc6_static:iostream.obj
 0001:00023a40       ?_M_exit_putback_mode@?$basic_filebuf@GV?$char_traits@G@_STL@@@_STL@@AAEXXZ 00424a40 f i stlport_vc6_static:iostream.obj
 0001:00023a60       ?pubimbue@?$basic_streambuf@GV?$char_traits@G@_STL@@@_STL@@QAE?AVlocale@2@ABV32@@Z 00424a60 f i stlport_vc6_static:iostream.obj
 0001:00023af0       ?_M_unshift@?$basic_filebuf@GV?$char_traits@G@_STL@@@_STL@@AAE_NXZ 00424af0 f i stlport_vc6_static:iostream.obj
 0001:00023b70       ??0failure@ios_base@_STL@@QAE@ABV?$basic_string@DV?$char_traits@D@_STL@@V?$allocator@D@2@@2@@Z 00424b70 f   stlport_vc6_static:ios.obj
 0001:00023b90       ??_Gfailure@ios_base@_STL@@UAEPAXI@Z 00424b90 f i stlport_vc6_static:ios.obj
 0001:00023b90       ??_Efailure@ios_base@_STL@@UAEPAXI@Z 00424b90 f i stlport_vc6_static:ios.obj
 0001:00023bb0       ??1failure@ios_base@_STL@@UAE@XZ 00424bb0 f   stlport_vc6_static:ios.obj
 0001:00023bc0       ?imbue@ios_base@_STL@@QAE?AVlocale@2@ABV32@@Z 00424bc0 f   stlport_vc6_static:ios.obj
 0001:00023c50       ?xalloc@ios_base@_STL@@SAHXZ 00424c50 f   stlport_vc6_static:ios.obj
 0001:00023d60       ?iword@ios_base@_STL@@QAEAAJH@Z 00424d60 f   stlport_vc6_static:ios.obj
 0001:00023e10       ?pword@ios_base@_STL@@QAEAAPAXH@Z 00424e10 f   stlport_vc6_static:ios.obj
 0001:00023ec0       ?register_callback@ios_base@_STL@@QAEXP6AXW4event@12@AAV12@H@ZH@Z 00424ec0 f   stlport_vc6_static:ios.obj
 0001:00023f80       ?_M_invoke_callbacks@ios_base@_STL@@IAEXW4event@12@@Z 00424f80 f   stlport_vc6_static:ios.obj
 0001:00023fb0       ?_M_throw_failure@ios_base@_STL@@IAEXXZ 00424fb0 f   stlport_vc6_static:ios.obj
 0001:00024060       ??0failure@ios_base@_STL@@QAE@ABV012@@Z 00425060 f i stlport_vc6_static:ios.obj
 0001:00024090       ?_M_copy_state@ios_base@_STL@@IAEXABV12@@Z 00425090 f   stlport_vc6_static:ios.obj
 0001:00024240       ??0ios_base@_STL@@IAE@XZ   00425240 f   stlport_vc6_static:ios.obj
 0001:00024370       ??_Eios_base@_STL@@UAEPAXI@Z 00425370 f i stlport_vc6_static:ios.obj
 0001:00024370       ??_Gios_base@_STL@@UAEPAXI@Z 00425370 f i stlport_vc6_static:ios.obj
 0001:00024390       ??1ios_base@_STL@@UAE@XZ   00425390 f   stlport_vc6_static:ios.obj
 0001:00024460       ?tie@?$basic_ios@DV?$char_traits@D@_STL@@@_STL@@QBEPAV?$basic_ostream@DV?$char_traits@D@_STL@@@2@XZ 00425460 f i stlport_vc6_static:ios.obj
 0001:00024470       ?tie@?$basic_ios@DV?$char_traits@D@_STL@@@_STL@@QAEPAV?$basic_ostream@DV?$char_traits@D@_STL@@@2@PAV32@@Z 00425470 f i stlport_vc6_static:ios.obj
 0001:00024480       ?rdbuf@?$basic_ios@DV?$char_traits@D@_STL@@@_STL@@QBEPAV?$basic_streambuf@DV?$char_traits@D@_STL@@@2@XZ 00425480 f i stlport_vc6_static:ios.obj
 0001:00024490       ?fill@?$basic_ios@DV?$char_traits@D@_STL@@@_STL@@QBEDXZ 00425490 f i stlport_vc6_static:ios.obj
 0001:000244a0       ?fill@?$basic_ios@DV?$char_traits@D@_STL@@@_STL@@QAEDD@Z 004254a0 f i stlport_vc6_static:ios.obj
 0001:000244b0       ?setstate@?$basic_ios@DV?$char_traits@D@_STL@@@_STL@@QAEXH@Z 004254b0 f i stlport_vc6_static:ios.obj
 0001:000244e0       ?exceptions@?$basic_ios@DV?$char_traits@D@_STL@@@_STL@@QBEHXZ 004254e0 f i stlport_vc6_static:ios.obj
 0001:000244f0       ?exceptions@?$basic_ios@DV?$char_traits@D@_STL@@@_STL@@QAEXH@Z 004254f0 f i stlport_vc6_static:ios.obj
 0001:00024520       ?_S_eof@?$basic_ios@DV?$char_traits@D@_STL@@@_STL@@SA_NH@Z 00425520 f i stlport_vc6_static:ios.obj
 0001:00024530       ?tie@?$basic_ios@GV?$char_traits@G@_STL@@@_STL@@QBEPAV?$basic_ostream@GV?$char_traits@G@_STL@@@2@XZ 00425530 f i stlport_vc6_static:ios.obj
 0001:00024540       ?tie@?$basic_ios@GV?$char_traits@G@_STL@@@_STL@@QAEPAV?$basic_ostream@GV?$char_traits@G@_STL@@@2@PAV32@@Z 00425540 f i stlport_vc6_static:ios.obj
 0001:00024550       ?rdbuf@?$basic_ios@GV?$char_traits@G@_STL@@@_STL@@QBEPAV?$basic_streambuf@GV?$char_traits@G@_STL@@@2@XZ 00425550 f i stlport_vc6_static:ios.obj
 0001:00024560       ?fill@?$basic_ios@GV?$char_traits@G@_STL@@@_STL@@QBEGXZ 00425560 f i stlport_vc6_static:ios.obj
 0001:00024570       ?fill@?$basic_ios@GV?$char_traits@G@_STL@@@_STL@@QAEGG@Z 00425570 f i stlport_vc6_static:ios.obj
 0001:00024580       ?setstate@?$basic_ios@GV?$char_traits@G@_STL@@@_STL@@QAEXH@Z 00425580 f i stlport_vc6_static:ios.obj
 0001:000245b0       ?exceptions@?$basic_ios@GV?$char_traits@G@_STL@@@_STL@@QBEHXZ 004255b0 f i stlport_vc6_static:ios.obj
 0001:000245c0       ?exceptions@?$basic_ios@GV?$char_traits@G@_STL@@@_STL@@QAEXH@Z 004255c0 f i stlport_vc6_static:ios.obj
 0001:000245f0       ?_S_eof@?$basic_ios@GV?$char_traits@G@_STL@@@_STL@@SA_NG@Z 004255f0 f i stlport_vc6_static:ios.obj
 0001:00024600       ??0?$basic_ios@DV?$char_traits@D@_STL@@@_STL@@QAE@PAV?$basic_streambuf@DV?$char_traits@D@_STL@@@1@@Z 00425600 f i stlport_vc6_static:ios.obj
 0001:000246c0       ?copyfmt@?$basic_ios@DV?$char_traits@D@_STL@@@_STL@@QAEAAV12@ABV12@@Z 004256c0 f i stlport_vc6_static:ios.obj
 0001:00024700       ?_M_handle_exception@?$basic_ios@DV?$char_traits@D@_STL@@@_STL@@QAEXH@Z 00425700 f i stlport_vc6_static:ios.obj
 0001:00024720       ??0?$basic_ios@GV?$char_traits@G@_STL@@@_STL@@IAE@XZ 00425720 f i stlport_vc6_static:ios.obj
 0001:00024740       ??0?$basic_ios@GV?$char_traits@G@_STL@@@_STL@@QAE@PAV?$basic_streambuf@GV?$char_traits@G@_STL@@@1@@Z 00425740 f i stlport_vc6_static:ios.obj
 0001:00024810       ?rdbuf@?$basic_ios@GV?$char_traits@G@_STL@@@_STL@@QAEPAV?$basic_streambuf@GV?$char_traits@G@_STL@@@2@PAV32@@Z 00425810 f i stlport_vc6_static:ios.obj
 0001:00024840       ?copyfmt@?$basic_ios@GV?$char_traits@G@_STL@@@_STL@@QAEAAV12@ABV12@@Z 00425840 f i stlport_vc6_static:ios.obj
 0001:00024880       ?narrow@?$basic_ios@GV?$char_traits@G@_STL@@@_STL@@QBEDGD@Z 00425880 f i stlport_vc6_static:ios.obj
 0001:000248a0       ?widen@?$basic_ios@GV?$char_traits@G@_STL@@@_STL@@QBEGD@Z 004258a0 f i stlport_vc6_static:ios.obj
 0001:000248b0       ?_M_handle_exception@?$basic_ios@GV?$char_traits@G@_STL@@@_STL@@QAEXH@Z 004258b0 f i stlport_vc6_static:ios.obj
 0001:000248d0       ?narrow@?$basic_ios@DV?$char_traits@D@_STL@@@_STL@@QBEDDD@Z 004258d0 f i stlport_vc6_static:ios.obj
 0001:000248e0       ?widen@?$basic_ios@DV?$char_traits@D@_STL@@@_STL@@QBEDD@Z 004258e0 f i stlport_vc6_static:ios.obj
 0001:000248f0       ?__copy@_STL@@YAPAU?$pair@P6AXW4event@ios_base@_STL@@AAV23@H@ZH@1@PBU21@0PAU21@ABUrandom_access_iterator_tag@1@PAH@Z 004258f0 f i stlport_vc6_static:ios.obj
 0001:00024930       ?__copy@_STL@@YAPAJPBJ0PAJABUrandom_access_iterator_tag@1@PAH@Z 00425930 f i stlport_vc6_static:ios.obj
 0001:00024960       ?__stl_throw_range_error@_STL@@YAXPBD@Z 00425960 f   stlport_vc6_static:dll_main.obj
 0001:00024ae0       ??_Erange_error@_STL@@UAEPAXI@Z 00425ae0 f i stlport_vc6_static:dll_main.obj
 0001:00024ae0       ??_Grange_error@_STL@@UAEPAXI@Z 00425ae0 f i stlport_vc6_static:dll_main.obj
 0001:00024b00       ??0range_error@_STL@@QAE@ABV01@@Z 00425b00 f i stlport_vc6_static:dll_main.obj
 0001:00024b50       ?__stl_throw_out_of_range@_STL@@YAXPBD@Z 00425b50 f   stlport_vc6_static:dll_main.obj
 0001:00024cd0       ??_Glogic_error@_STL@@UAEPAXI@Z 00425cd0 f i stlport_vc6_static:dll_main.obj
 0001:00024cd0       ??_Elogic_error@_STL@@UAEPAXI@Z 00425cd0 f i stlport_vc6_static:dll_main.obj
 0001:00024cf0       ??_Eout_of_range@_STL@@UAEPAXI@Z 00425cf0 f i stlport_vc6_static:dll_main.obj
 0001:00024cf0       ??_Gout_of_range@_STL@@UAEPAXI@Z 00425cf0 f i stlport_vc6_static:dll_main.obj
 0001:00024d10       ??0out_of_range@_STL@@QAE@ABV01@@Z 00425d10 f i stlport_vc6_static:dll_main.obj
 0001:00024d60       ??0logic_error@_STL@@QAE@ABV01@@Z 00425d60 f i stlport_vc6_static:dll_main.obj
 0001:00024db0       ?__stl_throw_length_error@_STL@@YAXPBD@Z 00425db0 f   stlport_vc6_static:dll_main.obj
 0001:00024f30       ??_Glength_error@_STL@@UAEPAXI@Z 00425f30 f i stlport_vc6_static:dll_main.obj
 0001:00024f30       ??_Elength_error@_STL@@UAEPAXI@Z 00425f30 f i stlport_vc6_static:dll_main.obj
 0001:00024f50       ??0length_error@_STL@@QAE@ABV01@@Z 00425f50 f i stlport_vc6_static:dll_main.obj
 0001:00024fa0       ?__stl_throw_invalid_argument@_STL@@YAXPBD@Z 00425fa0 f   stlport_vc6_static:dll_main.obj
 0001:00025120       ??_Einvalid_argument@_STL@@UAEPAXI@Z 00426120 f i stlport_vc6_static:dll_main.obj
 0001:00025120       ??_Ginvalid_argument@_STL@@UAEPAXI@Z 00426120 f i stlport_vc6_static:dll_main.obj
 0001:00025140       ??0invalid_argument@_STL@@QAE@ABV01@@Z 00426140 f i stlport_vc6_static:dll_main.obj
 0001:00025190       ?__stl_throw_overflow_error@_STL@@YAXPBD@Z 00426190 f   stlport_vc6_static:dll_main.obj
 0001:00025310       ??_Eoverflow_error@_STL@@UAEPAXI@Z 00426310 f i stlport_vc6_static:dll_main.obj
 0001:00025310       ??_Goverflow_error@_STL@@UAEPAXI@Z 00426310 f i stlport_vc6_static:dll_main.obj
 0001:00025330       ??0overflow_error@_STL@@QAE@ABV01@@Z 00426330 f i stlport_vc6_static:dll_main.obj
 0001:00025380       ?__get_c_string@_STL@@YAPBDABV?$basic_string@DV?$char_traits@D@_STL@@V?$allocator@D@2@@1@@Z 00426380 f   stlport_vc6_static:dll_main.obj
 0001:000253a0       ??0__Named_exception@_STL@@QAE@ABV?$basic_string@DV?$char_traits@D@_STL@@V?$allocator@D@2@@1@@Z 004263a0 f   stlport_vc6_static:dll_main.obj
 0001:00025420       ?what@__Named_exception@_STL@@UBEPBDXZ 00426420 f   stlport_vc6_static:dll_main.obj
 0001:00025440       ??1__Named_exception@_STL@@UAE@XZ 00426440 f   stlport_vc6_static:dll_main.obj
 0001:00025460       ??1logic_error@_STL@@UAE@XZ 00426460 f   stlport_vc6_static:dll_main.obj
 0001:00025480       ??1runtime_error@_STL@@UAE@XZ 00426480 f   stlport_vc6_static:dll_main.obj
 0001:000254a0       ??1domain_error@_STL@@UAE@XZ 004264a0 f   stlport_vc6_static:dll_main.obj
 0001:000254c0       ??_Gdomain_error@_STL@@UAEPAXI@Z 004264c0 f i stlport_vc6_static:dll_main.obj
 0001:000254c0       ??_Edomain_error@_STL@@UAEPAXI@Z 004264c0 f i stlport_vc6_static:dll_main.obj
 0001:000254e0       ??1invalid_argument@_STL@@UAE@XZ 004264e0 f   stlport_vc6_static:dll_main.obj
 0001:00025500       ??1length_error@_STL@@UAE@XZ 00426500 f   stlport_vc6_static:dll_main.obj
 0001:00025520       ??1out_of_range@_STL@@UAE@XZ 00426520 f   stlport_vc6_static:dll_main.obj
 0001:00025540       ??1range_error@_STL@@UAE@XZ 00426540 f   stlport_vc6_static:dll_main.obj
 0001:00025560       ??1overflow_error@_STL@@UAE@XZ 00426560 f   stlport_vc6_static:dll_main.obj
 0001:00025580       ??1underflow_error@_STL@@UAE@XZ 00426580 f   stlport_vc6_static:dll_main.obj
 0001:000255a0       ??_Eunderflow_error@_STL@@UAEPAXI@Z 004265a0 f i stlport_vc6_static:dll_main.obj
 0001:000255a0       ??_Gunderflow_error@_STL@@UAEPAXI@Z 004265a0 f i stlport_vc6_static:dll_main.obj
 0001:000255c0       ??0?$basic_string@DV?$char_traits@D@_STL@@V?$allocator@D@2@@_STL@@QAE@ABV?$allocator@D@1@@Z 004265c0 f i stlport_vc6_static:dll_main.obj
 0001:00025740       ??0?$basic_string@DV?$char_traits@D@_STL@@V?$allocator@D@2@@_STL@@QAE@U_String_reserve_t@1@IABV?$allocator@D@1@@Z 00426740 f i stlport_vc6_static:dll_main.obj
 0001:000258c0       ??0?$basic_string@DV?$char_traits@D@_STL@@V?$allocator@D@2@@_STL@@QAE@ABV01@IIABV?$allocator@D@1@@Z 004268c0 f i stlport_vc6_static:dll_main.obj
 0001:00025bb0       ??0?$basic_string@DV?$char_traits@D@_STL@@V?$allocator@D@2@@_STL@@QAE@PBDIABV?$allocator@D@1@@Z 00426bb0 f i stlport_vc6_static:dll_main.obj
 0001:00025d90       ??0?$basic_string@DV?$char_traits@D@_STL@@V?$allocator@D@2@@_STL@@QAE@IDABV?$allocator@D@1@@Z 00426d90 f i stlport_vc6_static:dll_main.obj
 0001:00025ee0       ??4?$basic_string@DV?$char_traits@D@_STL@@V?$allocator@D@2@@_STL@@QAEAAV01@D@Z 00426ee0 f i stlport_vc6_static:dll_main.obj
 0001:00026010       ?_M_null@?$basic_string@DV?$char_traits@D@_STL@@V?$allocator@D@2@@_STL@@SADXZ 00427010 f i stlport_vc6_static:dll_main.obj
 0001:00026020       ?_M_construct_null_aux@?$basic_string@DV?$char_traits@D@_STL@@V?$allocator@D@2@@_STL@@AAEXPADABU__false_type@2@@Z 00427020 f i stlport_vc6_static:dll_main.obj
 0001:00026040       ?_M_construct_null_aux@?$basic_string@DV?$char_traits@D@_STL@@V?$allocator@D@2@@_STL@@AAEXPADABU__true_type@2@@Z 00427040 f i stlport_vc6_static:dll_main.obj
 0001:00026060       ?_M_construct_null@?$basic_string@DV?$char_traits@D@_STL@@V?$allocator@D@2@@_STL@@AAEXPAD@Z 00427060 f i stlport_vc6_static:dll_main.obj
 0001:00026080       ?_M_terminate_string_aux@?$basic_string@DV?$char_traits@D@_STL@@V?$allocator@D@2@@_STL@@AAEXABU__false_type@2@@Z 00427080 f i stlport_vc6_static:dll_main.obj
 0001:000260e0       ?_M_terminate_string_aux@?$basic_string@DV?$char_traits@D@_STL@@V?$allocator@D@2@@_STL@@AAEXABU__true_type@2@@Z 004270e0 f i stlport_vc6_static:dll_main.obj
 0001:00026100       ?_M_terminate_string@?$basic_string@DV?$char_traits@D@_STL@@V?$allocator@D@2@@_STL@@AAEXXZ 00427100 f i stlport_vc6_static:dll_main.obj
 0001:00026120       ?begin@?$basic_string@DV?$char_traits@D@_STL@@V?$allocator@D@2@@_STL@@QAEPADXZ 00427120 f i stlport_vc6_static:dll_main.obj
 0001:00026130       ?end@?$basic_string@DV?$char_traits@D@_STL@@V?$allocator@D@2@@_STL@@QAEPADXZ 00427130 f i stlport_vc6_static:dll_main.obj
 0001:00026150       ?begin@?$basic_string@DV?$char_traits@D@_STL@@V?$allocator@D@2@@_STL@@QBEPBDXZ 00427150 f i stlport_vc6_static:dll_main.obj
 0001:00026160       ?end@?$basic_string@DV?$char_traits@D@_STL@@V?$allocator@D@2@@_STL@@QBEPBDXZ 00427160 f i stlport_vc6_static:dll_main.obj
 0001:00026180       ?rbegin@?$basic_string@DV?$char_traits@D@_STL@@V?$allocator@D@2@@_STL@@QAE?AV?$reverse_iterator@PADDAADPADH@2@XZ 00427180 f i stlport_vc6_static:dll_main.obj
 0001:000261b0       ?rend@?$basic_string@DV?$char_traits@D@_STL@@V?$allocator@D@2@@_STL@@QAE?AV?$reverse_iterator@PADDAADPADH@2@XZ 004271b0 f i stlport_vc6_static:dll_main.obj
 0001:000261e0       ?rbegin@?$basic_string@DV?$char_traits@D@_STL@@V?$allocator@D@2@@_STL@@QBE?AV?$reverse_iterator@PBDDABDPBDH@2@XZ 004271e0 f i stlport_vc6_static:dll_main.obj
 0001:00026210       ?rend@?$basic_string@DV?$char_traits@D@_STL@@V?$allocator@D@2@@_STL@@QBE?AV?$reverse_iterator@PBDDABDPBDH@2@XZ 00427210 f i stlport_vc6_static:dll_main.obj
 0001:00026240       ?size@?$basic_string@DV?$char_traits@D@_STL@@V?$allocator@D@2@@_STL@@QBEIXZ 00427240 f i stlport_vc6_static:dll_main.obj
 0001:00026260       ?length@?$basic_string@DV?$char_traits@D@_STL@@V?$allocator@D@2@@_STL@@QBEIXZ 00427260 f i stlport_vc6_static:dll_main.obj
 0001:00026280       ?max_size@?$basic_string@DV?$char_traits@D@_STL@@V?$allocator@D@2@@_STL@@QBEIXZ 00427280 f i stlport_vc6_static:dll_main.obj
 0001:00026290       ?resize@?$basic_string@DV?$char_traits@D@_STL@@V?$allocator@D@2@@_STL@@QAEXID@Z 00427290 f i stlport_vc6_static:dll_main.obj
 0001:00026340       ?resize@?$basic_string@DV?$char_traits@D@_STL@@V?$allocator@D@2@@_STL@@QAEXI@Z 00427340 f i stlport_vc6_static:dll_main.obj
 0001:000263f0       ?capacity@?$basic_string@DV?$char_traits@D@_STL@@V?$allocator@D@2@@_STL@@QBEIXZ 004273f0 f i stlport_vc6_static:dll_main.obj
 0001:00026410       ?clear@?$basic_string@DV?$char_traits@D@_STL@@V?$allocator@D@2@@_STL@@QAEXXZ 00427410 f i stlport_vc6_static:dll_main.obj
 0001:00026460       ?empty@?$basic_string@DV?$char_traits@D@_STL@@V?$allocator@D@2@@_STL@@QBE_NXZ 00427460 f i stlport_vc6_static:dll_main.obj
 0001:00026480       ??A?$basic_string@DV?$char_traits@D@_STL@@V?$allocator@D@2@@_STL@@QBEABDI@Z 00427480 f i stlport_vc6_static:dll_main.obj
 0001:000264a0       ??A?$basic_string@DV?$char_traits@D@_STL@@V?$allocator@D@2@@_STL@@QAEAADI@Z 004274a0 f i stlport_vc6_static:dll_main.obj
 0001:000264c0       ?at@?$basic_string@DV?$char_traits@D@_STL@@V?$allocator@D@2@@_STL@@QBEABDI@Z 004274c0 f i stlport_vc6_static:dll_main.obj
 0001:00026500       ?at@?$basic_string@DV?$char_traits@D@_STL@@V?$allocator@D@2@@_STL@@QAEAADI@Z 00427500 f i stlport_vc6_static:dll_main.obj
 0001:00026540       ??Y?$basic_string@DV?$char_traits@D@_STL@@V?$allocator@D@2@@_STL@@QAEAAV01@ABV01@@Z 00427540 f i stlport_vc6_static:dll_main.obj
 0001:00026580       ??Y?$basic_string@DV?$char_traits@D@_STL@@V?$allocator@D@2@@_STL@@QAEAAV01@PBD@Z 00427580 f i stlport_vc6_static:dll_main.obj
 0001:000265d0       ??Y?$basic_string@DV?$char_traits@D@_STL@@V?$allocator@D@2@@_STL@@QAEAAV01@D@Z 004275d0 f i stlport_vc6_static:dll_main.obj
 0001:00026680       ?append@?$basic_string@DV?$char_traits@D@_STL@@V?$allocator@D@2@@_STL@@QAEAAV12@ABV12@@Z 00427680 f i stlport_vc6_static:dll_main.obj
 0001:000266c0       ?append@?$basic_string@DV?$char_traits@D@_STL@@V?$allocator@D@2@@_STL@@QAEAAV12@ABV12@II@Z 004276c0 f i stlport_vc6_static:dll_main.obj
 0001:00026750       ?append@?$basic_string@DV?$char_traits@D@_STL@@V?$allocator@D@2@@_STL@@QAEAAV12@PBDI@Z 00427750 f i stlport_vc6_static:dll_main.obj
 0001:00026780       ?pop_back@?$basic_string@DV?$char_traits@D@_STL@@V?$allocator@D@2@@_STL@@QAEXXZ 00427780 f i stlport_vc6_static:dll_main.obj
 0001:000267c0       ?assign@?$basic_string@DV?$char_traits@D@_STL@@V?$allocator@D@2@@_STL@@QAEAAV12@ABV12@@Z 004277c0 f i stlport_vc6_static:dll_main.obj
 0001:000268b0       ?assign@?$basic_string@DV?$char_traits@D@_STL@@V?$allocator@D@2@@_STL@@QAEAAV12@ABV12@II@Z 004278b0 f i stlport_vc6_static:dll_main.obj
 0001:000269f0       ?assign@?$basic_string@DV?$char_traits@D@_STL@@V?$allocator@D@2@@_STL@@QAEAAV12@PBDI@Z 004279f0 f i stlport_vc6_static:dll_main.obj
 0001:00026b40       ?assign@?$basic_string@DV?$char_traits@D@_STL@@V?$allocator@D@2@@_STL@@QAEAAV12@PBD@Z 00427b40 f i stlport_vc6_static:dll_main.obj
 0001:00026ca0       ?insert@?$basic_string@DV?$char_traits@D@_STL@@V?$allocator@D@2@@_STL@@QAEAAV12@IABV12@@Z 00427ca0 f i stlport_vc6_static:dll_main.obj
 0001:00026d40       ?insert@?$basic_string@DV?$char_traits@D@_STL@@V?$allocator@D@2@@_STL@@QAEAAV12@IABV12@II@Z 00427d40 f i stlport_vc6_static:dll_main.obj
 0001:00026e20       ?insert@?$basic_string@DV?$char_traits@D@_STL@@V?$allocator@D@2@@_STL@@QAEAAV12@IPBDI@Z 00427e20 f i stlport_vc6_static:dll_main.obj
 0001:00026ea0       ?insert@?$basic_string@DV?$char_traits@D@_STL@@V?$allocator@D@2@@_STL@@QAEAAV12@IPBD@Z 00427ea0 f i stlport_vc6_static:dll_main.obj
 0001:00026f40       ?insert@?$basic_string@DV?$char_traits@D@_STL@@V?$allocator@D@2@@_STL@@QAEAAV12@IID@Z 00427f40 f i stlport_vc6_static:dll_main.obj
 0001:00026fc0       ?_M_copy@?$basic_string@DV?$char_traits@D@_STL@@V?$allocator@D@2@@_STL@@AAEXPBD0PAD@Z 00427fc0 f i stlport_vc6_static:dll_main.obj
 0001:00027010       ?erase@?$basic_string@DV?$char_traits@D@_STL@@V?$allocator@D@2@@_STL@@QAEAAV12@II@Z 00428010 f i stlport_vc6_static:dll_main.obj
 0001:000270f0       ?erase@?$basic_string@DV?$char_traits@D@_STL@@V?$allocator@D@2@@_STL@@QAEPADPAD@Z 004280f0 f i stlport_vc6_static:dll_main.obj
 0001:00027150       ?erase@?$basic_string@DV?$char_traits@D@_STL@@V?$allocator@D@2@@_STL@@QAEPADPAD0@Z 00428150 f i stlport_vc6_static:dll_main.obj
 0001:000271c0       ?replace@?$basic_string@DV?$char_traits@D@_STL@@V?$allocator@D@2@@_STL@@QAEAAV12@IIABV12@@Z 004281c0 f i stlport_vc6_static:dll_main.obj
 0001:00027440       ?replace@?$basic_string@DV?$char_traits@D@_STL@@V?$allocator@D@2@@_STL@@QAEAAV12@IIABV12@II@Z 00428440 f i stlport_vc6_static:dll_main.obj
 0001:00027730       ?replace@?$basic_string@DV?$char_traits@D@_STL@@V?$allocator@D@2@@_STL@@QAEAAV12@IIPBDI@Z 00428730 f i stlport_vc6_static:dll_main.obj
 0001:000279b0       ?replace@?$basic_string@DV?$char_traits@D@_STL@@V?$allocator@D@2@@_STL@@QAEAAV12@IIPBD@Z 004289b0 f i stlport_vc6_static:dll_main.obj
 0001:00027c70       ?replace@?$basic_string@DV?$char_traits@D@_STL@@V?$allocator@D@2@@_STL@@QAEAAV12@IIID@Z 00428c70 f i stlport_vc6_static:dll_main.obj
 0001:00027e00       ?replace@?$basic_string@DV?$char_traits@D@_STL@@V?$allocator@D@2@@_STL@@QAEAAV12@PAD0ABV12@@Z 00428e00 f i stlport_vc6_static:dll_main.obj
 0001:00027f70       ?replace@?$basic_string@DV?$char_traits@D@_STL@@V?$allocator@D@2@@_STL@@QAEAAV12@PAD0PBDI@Z 00428f70 f i stlport_vc6_static:dll_main.obj
 0001:000280e0       ?replace@?$basic_string@DV?$char_traits@D@_STL@@V?$allocator@D@2@@_STL@@QAEAAV12@PAD0PBD@Z 004290e0 f i stlport_vc6_static:dll_main.obj
 0001:00028270       ?copy@?$basic_string@DV?$char_traits@D@_STL@@V?$allocator@D@2@@_STL@@QBEIPADII@Z 00429270 f i stlport_vc6_static:dll_main.obj
 0001:00028310       ?swap@?$basic_string@DV?$char_traits@D@_STL@@V?$allocator@D@2@@_STL@@QAEXAAV12@@Z 00429310 f i stlport_vc6_static:dll_main.obj
 0001:00028380       ?c_str@?$basic_string@DV?$char_traits@D@_STL@@V?$allocator@D@2@@_STL@@QBEPBDXZ 00429380 f i stlport_vc6_static:dll_main.obj
 0001:00028390       ?data@?$basic_string@DV?$char_traits@D@_STL@@V?$allocator@D@2@@_STL@@QBEPBDXZ 00429390 f i stlport_vc6_static:dll_main.obj
 0001:000283a0       ?find@?$basic_string@DV?$char_traits@D@_STL@@V?$allocator@D@2@@_STL@@QBEIABV12@I@Z 004293a0 f i stlport_vc6_static:dll_main.obj
 0001:000285c0       ?find@?$basic_string@DV?$char_traits@D@_STL@@V?$allocator@D@2@@_STL@@QBEIPBDI@Z 004295c0 f i stlport_vc6_static:dll_main.obj
 0001:000287e0       ?rfind@?$basic_string@DV?$char_traits@D@_STL@@V?$allocator@D@2@@_STL@@QBEIABV12@I@Z 004297e0 f i stlport_vc6_static:dll_main.obj
 0001:00028ac0       ?rfind@?$basic_string@DV?$char_traits@D@_STL@@V?$allocator@D@2@@_STL@@QBEIPBDI@Z 00429ac0 f i stlport_vc6_static:dll_main.obj
 0001:00028da0       ?find_first_of@?$basic_string@DV?$char_traits@D@_STL@@V?$allocator@D@2@@_STL@@QBEIABV12@I@Z 00429da0 f i stlport_vc6_static:dll_main.obj
 0001:00028ea0       ?find_first_of@?$basic_string@DV?$char_traits@D@_STL@@V?$allocator@D@2@@_STL@@QBEIPBDI@Z 00429ea0 f i stlport_vc6_static:dll_main.obj
 0001:00028fa0       ?find_first_of@?$basic_string@DV?$char_traits@D@_STL@@V?$allocator@D@2@@_STL@@QBEIDI@Z 00429fa0 f i stlport_vc6_static:dll_main.obj
 0001:000291b0       ?find_last_of@?$basic_string@DV?$char_traits@D@_STL@@V?$allocator@D@2@@_STL@@QBEIABV12@I@Z 0042a1b0 f i stlport_vc6_static:dll_main.obj
 0001:000292c0       ?find_last_of@?$basic_string@DV?$char_traits@D@_STL@@V?$allocator@D@2@@_STL@@QBEIPBDI@Z 0042a2c0 f i stlport_vc6_static:dll_main.obj
 0001:000293d0       ?find_last_of@?$basic_string@DV?$char_traits@D@_STL@@V?$allocator@D@2@@_STL@@QBEIDI@Z 0042a3d0 f i stlport_vc6_static:dll_main.obj
 0001:000294d0       ?find_first_not_of@?$basic_string@DV?$char_traits@D@_STL@@V?$allocator@D@2@@_STL@@QBEIABV12@I@Z 0042a4d0 f i stlport_vc6_static:dll_main.obj
 0001:00029c80       ?find_first_not_of@?$basic_string@DV?$char_traits@D@_STL@@V?$allocator@D@2@@_STL@@QBEIPBDI@Z 0042ac80 f i stlport_vc6_static:dll_main.obj
 0001:0002a420       ?find_last_not_of@?$basic_string@DV?$char_traits@D@_STL@@V?$allocator@D@2@@_STL@@QBEIABV12@I@Z 0042b420 f i stlport_vc6_static:dll_main.obj
 0001:0002a540       ?find_last_not_of@?$basic_string@DV?$char_traits@D@_STL@@V?$allocator@D@2@@_STL@@QBEIPBDI@Z 0042b540 f i stlport_vc6_static:dll_main.obj
 0001:0002a660       ?compare@?$basic_string@DV?$char_traits@D@_STL@@V?$allocator@D@2@@_STL@@QBEHABV12@@Z 0042b660 f i stlport_vc6_static:dll_main.obj
 0001:0002a730       ?compare@?$basic_string@DV?$char_traits@D@_STL@@V?$allocator@D@2@@_STL@@QBEHIIABV12@@Z 0042b730 f i stlport_vc6_static:dll_main.obj
 0001:0002a850       ?compare@?$basic_string@DV?$char_traits@D@_STL@@V?$allocator@D@2@@_STL@@QBEHIIABV12@II@Z 0042b850 f i stlport_vc6_static:dll_main.obj
 0001:0002a9c0       ?compare@?$basic_string@DV?$char_traits@D@_STL@@V?$allocator@D@2@@_STL@@QBEHPBD@Z 0042b9c0 f i stlport_vc6_static:dll_main.obj
 0001:0002aa90       ?compare@?$basic_string@DV?$char_traits@D@_STL@@V?$allocator@D@2@@_STL@@QBEHIIPBD@Z 0042ba90 f i stlport_vc6_static:dll_main.obj
 0001:0002abc0       ?compare@?$basic_string@DV?$char_traits@D@_STL@@V?$allocator@D@2@@_STL@@QBEHIIPBDI@Z 0042bbc0 f i stlport_vc6_static:dll_main.obj
 0001:0002acd0       ?_M_compare@?$basic_string@DV?$char_traits@D@_STL@@V?$allocator@D@2@@_STL@@SAHPBD000@Z 0042bcd0 f i stlport_vc6_static:dll_main.obj
 0001:0002ad70       ?max_size@?$_String_base@DV?$allocator@D@_STL@@@_STL@@QBEIXZ 0042bd70 f i stlport_vc6_static:dll_main.obj
 0001:0002ad80       ??0?$_String_base@DV?$allocator@D@_STL@@@_STL@@QAE@ABV?$allocator@D@1@I@Z 0042bd80 f i stlport_vc6_static:dll_main.obj
 0001:0002af90       ?allocate@?$_STLP_alloc_proxy@PADDV?$allocator@D@_STL@@@_STL@@QAEPADI@Z 0042bf90 f i stlport_vc6_static:dll_main.obj
 0001:0002afe0       ??0?$allocator@D@_STL@@QAE@XZ 0042bfe0 f i stlport_vc6_static:dll_main.obj
 0001:0002aff0       ??0?$allocator@D@_STL@@QAE@ABV01@@Z 0042bff0 f i stlport_vc6_static:dll_main.obj
 0001:0002b000       ?address@?$allocator@D@_STL@@QAEPADAAD@Z 0042c000 f i stlport_vc6_static:dll_main.obj
 0001:0002b010       ?address@?$allocator@D@_STL@@QBEPBDABD@Z 0042c010 f i stlport_vc6_static:dll_main.obj
 0001:0002b020       ?allocate@?$allocator@D@_STL@@QBEPADIPBX@Z 0042c020 f i stlport_vc6_static:dll_main.obj
 0001:0002b070       ?deallocate@?$allocator@D@_STL@@QBEXPAD@Z 0042c070 f i stlport_vc6_static:dll_main.obj
 0001:0002b0b0       ?max_size@?$allocator@D@_STL@@QBEIXZ 0042c0b0 f i stlport_vc6_static:dll_main.obj
 0001:0002b0c0       ?construct@?$allocator@D@_STL@@QBEXPADABD@Z 0042c0c0 f i stlport_vc6_static:dll_main.obj
 0001:0002b100       ?destroy@?$allocator@D@_STL@@QBEXPAD@Z 0042c100 f i stlport_vc6_static:dll_main.obj
 0001:0002b110       ?_S_round_up@?$__node_alloc@$0A@$0A@@_STL@@SAII@Z 0042c110 f i stlport_vc6_static:dll_main.obj
 0001:0002b120       ?allocate@?$__node_alloc@$0A@$0A@@_STL@@SAPAXI@Z 0042c120 f i stlport_vc6_static:dll_main.obj
 0001:0002b160       ?deallocate@?$__node_alloc@$0A@$0A@@_STL@@SAXPAXI@Z 0042c160 f i stlport_vc6_static:dll_main.obj
 0001:0002b190       ?_S_round_up@?$__node_alloc@$00$0A@@_STL@@SAII@Z 0042c190 f i stlport_vc6_static:dll_main.obj
 0001:0002b1a0       ?allocate@?$__node_alloc@$00$0A@@_STL@@SAPAXI@Z 0042c1a0 f i stlport_vc6_static:dll_main.obj
 0001:0002b1e0       ?__extra_before_chunk@?$__debug_alloc@V?$__node_alloc@$00$0A@@_STL@@@_STL@@CAIXZ 0042c1e0 f i stlport_vc6_static:dll_main.obj
 0001:0002b1f0       ?__extra_after_chunk@?$__debug_alloc@V?$__node_alloc@$00$0A@@_STL@@@_STL@@CAIXZ 0042c1f0 f i stlport_vc6_static:dll_main.obj
 0001:0002b200       ??0?$__debug_alloc@V?$__node_alloc@$00$0A@@_STL@@@_STL@@QAE@XZ 0042c200 f i stlport_vc6_static:dll_main.obj
 0001:0002b210       ??1?$__debug_alloc@V?$__node_alloc@$00$0A@@_STL@@@_STL@@QAE@XZ 0042c210 f i stlport_vc6_static:dll_main.obj
 0001:0002b220       ?__extra_before_chunk@?$__debug_alloc@V?$__node_alloc@$0A@$0A@@_STL@@@_STL@@CAIXZ 0042c220 f i stlport_vc6_static:dll_main.obj
 0001:0002b230       ?__extra_after_chunk@?$__debug_alloc@V?$__node_alloc@$0A@$0A@@_STL@@@_STL@@CAIXZ 0042c230 f i stlport_vc6_static:dll_main.obj
 0001:0002b240       ??0?$__debug_alloc@V?$__node_alloc@$0A@$0A@@_STL@@@_STL@@QAE@XZ 0042c240 f i stlport_vc6_static:dll_main.obj
 0001:0002b250       ??1?$__debug_alloc@V?$__node_alloc@$0A@$0A@@_STL@@@_STL@@QAE@XZ 0042c250 f i stlport_vc6_static:dll_main.obj
 0001:0002b260       ?__extra_before_chunk@?$__debug_alloc@V__new_alloc@_STL@@@_STL@@CAIXZ 0042c260 f i stlport_vc6_static:dll_main.obj
 0001:0002b270       ?__extra_after_chunk@?$__debug_alloc@V__new_alloc@_STL@@@_STL@@CAIXZ 0042c270 f i stlport_vc6_static:dll_main.obj
 0001:0002b280       ??0?$__debug_alloc@V__new_alloc@_STL@@@_STL@@QAE@XZ 0042c280 f i stlport_vc6_static:dll_main.obj
 0001:0002b290       ??1?$__debug_alloc@V__new_alloc@_STL@@@_STL@@QAE@XZ 0042c290 f i stlport_vc6_static:dll_main.obj
 0001:0002b2a0       ?allocate@?$__malloc_alloc@$0A@@_STL@@SAPAXI@Z 0042c2a0 f i stlport_vc6_static:dll_main.obj
 0001:0002b310       ??0bad_alloc@std@@QAE@PBD@Z 0042c310 f i stlport_vc6_static:dll_main.obj
 0001:0002b330       ??1bad_alloc@std@@UAE@XZ   0042c330 f i stlport_vc6_static:dll_main.obj
 0001:0002b340       ?_Doraise@bad_alloc@std@@MBEXXZ 0042c340 f i stlport_vc6_static:dll_main.obj
 0001:0002b360       ??_Ebad_alloc@std@@UAEPAXI@Z 0042c360 f i stlport_vc6_static:dll_main.obj
 0001:0002b360       ??_Gbad_alloc@std@@UAEPAXI@Z 0042c360 f i stlport_vc6_static:dll_main.obj
 0001:0002b380       ??0bad_alloc@std@@QAE@ABV01@@Z 0042c380 f i stlport_vc6_static:dll_main.obj
 0001:0002b3a0       ?deallocate@?$__malloc_alloc@$0A@@_STL@@SAXPAXI@Z 0042c3a0 f i stlport_vc6_static:dll_main.obj
 0001:0002b3c0       ?set_malloc_handler@?$__malloc_alloc@$0A@@_STL@@SAP6AXXZP6AXXZ@Z 0042c3c0 f i stlport_vc6_static:dll_main.obj
 0001:0002b3e0       ??0?$allocator@PAX@_STL@@QAE@XZ 0042c3e0 f i stlport_vc6_static:dll_main.obj
 0001:0002b3f0       ??0?$allocator@PAX@_STL@@QAE@ABV01@@Z 0042c3f0 f i stlport_vc6_static:dll_main.obj
 0001:0002b400       ??1?$allocator@PAX@_STL@@QAE@XZ 0042c400 f i stlport_vc6_static:dll_main.obj
 0001:0002b410       ?address@?$allocator@PAX@_STL@@QAEPAPAXAAPAX@Z 0042c410 f i stlport_vc6_static:dll_main.obj
 0001:0002b420       ?address@?$allocator@PAX@_STL@@QBEPBQAXABQAX@Z 0042c420 f i stlport_vc6_static:dll_main.obj
 0001:0002b430       ?allocate@?$allocator@PAX@_STL@@QBEPAPAXIPBX@Z 0042c430 f i stlport_vc6_static:dll_main.obj
 0001:0002b490       ?deallocate@?$allocator@PAX@_STL@@QBEXPAPAXI@Z 0042c490 f i stlport_vc6_static:dll_main.obj
 0001:0002b4e0       ?deallocate@?$allocator@PAX@_STL@@QBEXPAPAX@Z 0042c4e0 f i stlport_vc6_static:dll_main.obj
 0001:0002b520       ?max_size@?$allocator@PAX@_STL@@QBEIXZ 0042c520 f i stlport_vc6_static:dll_main.obj
 0001:0002b530       ?construct@?$allocator@PAX@_STL@@QBEXPAPAXABQAX@Z 0042c530 f i stlport_vc6_static:dll_main.obj
 0001:0002b570       ?destroy@?$allocator@PAX@_STL@@QBEXPAPAX@Z 0042c570 f i stlport_vc6_static:dll_main.obj
 0001:0002b580       ??0?$_STLP_alloc_proxy@PAPAXPAXV?$allocator@PAX@_STL@@@_STL@@QAE@ABV?$allocator@PAX@1@PAPAX@Z 0042c580 f i stlport_vc6_static:dll_main.obj
 0001:0002b5a0       ?allocate@?$_STLP_alloc_proxy@PAPAXPAXV?$allocator@PAX@_STL@@@_STL@@QAEPAPAXI@Z 0042c5a0 f i stlport_vc6_static:dll_main.obj
 0001:0002b600       ?deallocate@?$_STLP_alloc_proxy@PAPAXPAXV?$allocator@PAX@_STL@@@_STL@@QAEXPAPAXI@Z 0042c600 f i stlport_vc6_static:dll_main.obj
 0001:0002b650       ??0?$_Vector_base@PAXV?$allocator@PAX@_STL@@@_STL@@QAE@ABV?$allocator@PAX@1@@Z 0042c650 f i stlport_vc6_static:dll_main.obj
 0001:0002b690       ??0?$_Vector_base@PAXV?$allocator@PAX@_STL@@@_STL@@QAE@IABV?$allocator@PAX@1@@Z 0042c690 f i stlport_vc6_static:dll_main.obj
 0001:0002b990       ??1?$_Vector_base@PAXV?$allocator@PAX@_STL@@@_STL@@QAE@XZ 0042c990 f i stlport_vc6_static:dll_main.obj
 0001:0002ba70       ?get_allocator@?$vector@PAXV?$allocator@PAX@_STL@@@_STL@@QBE?AV?$allocator@PAX@2@XZ 0042ca70 f i stlport_vc6_static:dll_main.obj
 0001:0002baa0       ?_M_insert_overflow@?$vector@PAXV?$allocator@PAX@_STL@@@_STL@@IAEXPAPAXABQAXABU__false_type@2@I_N@Z 0042caa0 f i stlport_vc6_static:dll_main.obj
 0001:0002be10       ?_M_insert_overflow@?$vector@PAXV?$allocator@PAX@_STL@@@_STL@@IAEXPAPAXABQAXABU__true_type@2@I_N@Z 0042ce10 f i stlport_vc6_static:dll_main.obj
 0001:0002bfe0       ?_M_range_check@?$vector@PAXV?$allocator@PAX@_STL@@@_STL@@IBEXI@Z 0042cfe0 f i stlport_vc6_static:dll_main.obj
 0001:0002c010       ?begin@?$vector@PAXV?$allocator@PAX@_STL@@@_STL@@QAEPAPAXXZ 0042d010 f i stlport_vc6_static:dll_main.obj
 0001:0002c020       ?begin@?$vector@PAXV?$allocator@PAX@_STL@@@_STL@@QBEPBQAXXZ 0042d020 f i stlport_vc6_static:dll_main.obj
 0001:0002c030       ?end@?$vector@PAXV?$allocator@PAX@_STL@@@_STL@@QAEPAPAXXZ 0042d030 f i stlport_vc6_static:dll_main.obj
 0001:0002c050       ?end@?$vector@PAXV?$allocator@PAX@_STL@@@_STL@@QBEPBQAXXZ 0042d050 f i stlport_vc6_static:dll_main.obj
 0001:0002c070       ?rbegin@?$vector@PAXV?$allocator@PAX@_STL@@@_STL@@QAE?AV?$reverse_iterator@PAPAXPAXAAPAXPAPAXH@2@XZ 0042d070 f i stlport_vc6_static:dll_main.obj
 0001:0002c0a0       ?rbegin@?$vector@PAXV?$allocator@PAX@_STL@@@_STL@@QBE?AV?$reverse_iterator@PBQAXPAXABQAXPBQAXH@2@XZ 0042d0a0 f i stlport_vc6_static:dll_main.obj
 0001:0002c0d0       ?rend@?$vector@PAXV?$allocator@PAX@_STL@@@_STL@@QAE?AV?$reverse_iterator@PAPAXPAXAAPAXPAPAXH@2@XZ 0042d0d0 f i stlport_vc6_static:dll_main.obj
 0001:0002c100       ?rend@?$vector@PAXV?$allocator@PAX@_STL@@@_STL@@QBE?AV?$reverse_iterator@PBQAXPAXABQAXPBQAXH@2@XZ 0042d100 f i stlport_vc6_static:dll_main.obj
 0001:0002c130       ?size@?$vector@PAXV?$allocator@PAX@_STL@@@_STL@@QBEIXZ 0042d130 f i stlport_vc6_static:dll_main.obj
 0001:0002c150       ?max_size@?$vector@PAXV?$allocator@PAX@_STL@@@_STL@@QBEIXZ 0042d150 f i stlport_vc6_static:dll_main.obj
 0001:0002c160       ?capacity@?$vector@PAXV?$allocator@PAX@_STL@@@_STL@@QBEIXZ 0042d160 f i stlport_vc6_static:dll_main.obj
 0001:0002c180       ?empty@?$vector@PAXV?$allocator@PAX@_STL@@@_STL@@QBE_NXZ 0042d180 f i stlport_vc6_static:dll_main.obj
 0001:0002c1a0       ??A?$vector@PAXV?$allocator@PAX@_STL@@@_STL@@QAEAAPAXI@Z 0042d1a0 f i stlport_vc6_static:dll_main.obj
 0001:0002c1c0       ??A?$vector@PAXV?$allocator@PAX@_STL@@@_STL@@QBEABQAXI@Z 0042d1c0 f i stlport_vc6_static:dll_main.obj
 0001:0002c1e0       ?front@?$vector@PAXV?$allocator@PAX@_STL@@@_STL@@QAEAAPAXXZ 0042d1e0 f i stlport_vc6_static:dll_main.obj
 0001:0002c200       ?front@?$vector@PAXV?$allocator@PAX@_STL@@@_STL@@QBEABQAXXZ 0042d200 f i stlport_vc6_static:dll_main.obj
 0001:0002c220       ?back@?$vector@PAXV?$allocator@PAX@_STL@@@_STL@@QAEAAPAXXZ 0042d220 f i stlport_vc6_static:dll_main.obj
 0001:0002c240       ?back@?$vector@PAXV?$allocator@PAX@_STL@@@_STL@@QBEABQAXXZ 0042d240 f i stlport_vc6_static:dll_main.obj
 0001:0002c260       ?at@?$vector@PAXV?$allocator@PAX@_STL@@@_STL@@QAEAAPAXI@Z 0042d260 f i stlport_vc6_static:dll_main.obj
 0001:0002c2a0       ?at@?$vector@PAXV?$allocator@PAX@_STL@@@_STL@@QBEABQAXI@Z 0042d2a0 f i stlport_vc6_static:dll_main.obj
 0001:0002c2e0       ??0?$vector@PAXV?$allocator@PAX@_STL@@@_STL@@QAE@ABV?$allocator@PAX@1@@Z 0042d2e0 f i stlport_vc6_static:dll_main.obj
 0001:0002c320       ??0?$vector@PAXV?$allocator@PAX@_STL@@@_STL@@QAE@IABQAXABV?$allocator@PAX@1@@Z 0042d320 f i stlport_vc6_static:dll_main.obj
 0001:0002c560       ??0?$vector@PAXV?$allocator@PAX@_STL@@@_STL@@QAE@I@Z 0042d560 f i stlport_vc6_static:dll_main.obj
 0001:0002c710       ??0?$vector@PAXV?$allocator@PAX@_STL@@@_STL@@QAE@ABV01@@Z 0042d710 f i stlport_vc6_static:dll_main.obj
 0001:0002c8f0       ??1?$vector@PAXV?$allocator@PAX@_STL@@@_STL@@QAE@XZ 0042d8f0 f i stlport_vc6_static:dll_main.obj
 0001:0002c9d0       ?assign@?$vector@PAXV?$allocator@PAX@_STL@@@_STL@@QAEXIABQAX@Z 0042d9d0 f i stlport_vc6_static:dll_main.obj
 0001:0002c9f0       ?push_back@?$vector@PAXV?$allocator@PAX@_STL@@@_STL@@QAEXABQAX@Z 0042d9f0 f i stlport_vc6_static:dll_main.obj
 0001:0002cc20       ?swap@?$vector@PAXV?$allocator@PAX@_STL@@@_STL@@QAEXAAV12@@Z 0042dc20 f i stlport_vc6_static:dll_main.obj
 0001:0002cc90       ?insert@?$vector@PAXV?$allocator@PAX@_STL@@@_STL@@QAEPAPAXPAPAXABQAX@Z 0042dc90 f i stlport_vc6_static:dll_main.obj
 0001:0002cfa0       ?push_back@?$vector@PAXV?$allocator@PAX@_STL@@@_STL@@QAEXXZ 0042dfa0 f i stlport_vc6_static:dll_main.obj
 0001:0002d1d0       ?insert@?$vector@PAXV?$allocator@PAX@_STL@@@_STL@@QAEPAPAXPAPAX@Z 0042e1d0 f i stlport_vc6_static:dll_main.obj
 0001:0002d4d0       ?insert@?$vector@PAXV?$allocator@PAX@_STL@@@_STL@@QAEXPAPAXIABQAX@Z 0042e4d0 f i stlport_vc6_static:dll_main.obj
 0001:0002d980       ?pop_back@?$vector@PAXV?$allocator@PAX@_STL@@@_STL@@QAEXXZ 0042e980 f i stlport_vc6_static:dll_main.obj
 0001:0002d9a0       ?erase@?$vector@PAXV?$allocator@PAX@_STL@@@_STL@@QAEPAPAXPAPAX@Z 0042e9a0 f i stlport_vc6_static:dll_main.obj
 0001:0002da20       ?erase@?$vector@PAXV?$allocator@PAX@_STL@@@_STL@@QAEPAPAXPAPAX0@Z 0042ea20 f i stlport_vc6_static:dll_main.obj
 0001:0002da80       ?resize@?$vector@PAXV?$allocator@PAX@_STL@@@_STL@@QAEXIABQAX@Z 0042ea80 f i stlport_vc6_static:dll_main.obj
 0001:0002dfe0       ?resize@?$vector@PAXV?$allocator@PAX@_STL@@@_STL@@QAEXI@Z 0042efe0 f i stlport_vc6_static:dll_main.obj
 0001:0002e4f0       ?clear@?$vector@PAXV?$allocator@PAX@_STL@@@_STL@@QAEXXZ 0042f4f0 f i stlport_vc6_static:dll_main.obj
 0001:0002e560       ?_M_clear@?$vector@PAXV?$allocator@PAX@_STL@@@_STL@@IAEXXZ 0042f560 f i stlport_vc6_static:dll_main.obj
 0001:0002e5c0       ?_M_set@?$vector@PAXV?$allocator@PAX@_STL@@@_STL@@IAEXPAPAX00@Z 0042f5c0 f i stlport_vc6_static:dll_main.obj
 0001:0002e5f0       ?__previous@?$_Sl_global@_N@_STL@@SAPBU_Slist_node_base@2@PBU32@0@Z 0042f5f0 f i stlport_vc6_static:dll_main.obj
 0001:0002e620       ??1?$_STLP_alloc_proxy@PAPAXPAXV?$allocator@PAX@_STL@@@_STL@@QAE@XZ 0042f620 f i stlport_vc6_static:dll_main.obj
 0001:0002e630       ??0?$reverse_iterator@PBDDABDPBDH@_STL@@QAE@PBD@Z 0042f630 f i stlport_vc6_static:dll_main.obj
 0001:0002e650       ?_M_throw_length_error@?$_String_base@DV?$allocator@D@_STL@@@_STL@@QBEXXZ 0042f650 f i stlport_vc6_static:dll_main.obj
 0001:0002e670       ?_M_throw_out_of_range@?$_String_base@DV?$allocator@D@_STL@@@_STL@@QBEXXZ 0042f670 f i stlport_vc6_static:dll_main.obj
 0001:0002e690       ??0?$basic_string@DV?$char_traits@D@_STL@@V?$allocator@D@2@@_STL@@QAE@PBDABV?$allocator@D@1@@Z 0042f690 f i stlport_vc6_static:dll_main.obj
 0001:0002e890       ?append@?$basic_string@DV?$char_traits@D@_STL@@V?$allocator@D@2@@_STL@@QAEAAV12@ID@Z 0042f890 f i stlport_vc6_static:dll_main.obj
 0001:0002ea00       ?assign@?$basic_string@DV?$char_traits@D@_STL@@V?$allocator@D@2@@_STL@@QAEAAV12@ID@Z 0042fa00 f i stlport_vc6_static:dll_main.obj
 0001:0002eb20       ?insert@?$basic_string@DV?$char_traits@D@_STL@@V?$allocator@D@2@@_STL@@QAEXPADID@Z 0042fb20 f i stlport_vc6_static:dll_main.obj
 0001:0002f110       ?replace@?$basic_string@DV?$char_traits@D@_STL@@V?$allocator@D@2@@_STL@@QAEAAV12@PAD0ID@Z 00430110 f i stlport_vc6_static:dll_main.obj
 0001:0002f200       ?find@?$basic_string@DV?$char_traits@D@_STL@@V?$allocator@D@2@@_STL@@QBEIDI@Z 00430200 f i stlport_vc6_static:dll_main.obj
 0001:0002f400       ?find@?$basic_string@DV?$char_traits@D@_STL@@V?$allocator@D@2@@_STL@@QBEIPBDII@Z 00430400 f i stlport_vc6_static:dll_main.obj
 0001:0002f600       ?rfind@?$basic_string@DV?$char_traits@D@_STL@@V?$allocator@D@2@@_STL@@QBEIDI@Z 00430600 f i stlport_vc6_static:dll_main.obj
 0001:0002f6f0       ?rfind@?$basic_string@DV?$char_traits@D@_STL@@V?$allocator@D@2@@_STL@@QBEIPBDII@Z 004306f0 f i stlport_vc6_static:dll_main.obj
 0001:0002f9a0       ?find_first_of@?$basic_string@DV?$char_traits@D@_STL@@V?$allocator@D@2@@_STL@@QBEIPBDII@Z 004309a0 f i stlport_vc6_static:dll_main.obj
 0001:0002fa80       ?find_last_of@?$basic_string@DV?$char_traits@D@_STL@@V?$allocator@D@2@@_STL@@QBEIPBDII@Z 00430a80 f i stlport_vc6_static:dll_main.obj
 0001:0002fb70       ?find_first_not_of@?$basic_string@DV?$char_traits@D@_STL@@V?$allocator@D@2@@_STL@@QBEIDI@Z 00430b70 f i stlport_vc6_static:dll_main.obj
 0001:0002fdc0       ?find_first_not_of@?$basic_string@DV?$char_traits@D@_STL@@V?$allocator@D@2@@_STL@@QBEIPBDII@Z 00430dc0 f i stlport_vc6_static:dll_main.obj
 0001:00030530       ?find_last_not_of@?$basic_string@DV?$char_traits@D@_STL@@V?$allocator@D@2@@_STL@@QBEIDI@Z 00431530 f i stlport_vc6_static:dll_main.obj
 0001:00030620       ?find_last_not_of@?$basic_string@DV?$char_traits@D@_STL@@V?$allocator@D@2@@_STL@@QBEIPBDII@Z 00431620 f i stlport_vc6_static:dll_main.obj
 0001:00030720       ?_Message@?$__stl_debug_engine@_N@_STL@@SAXPBDZZ 00431720 f i stlport_vc6_static:dll_main.obj
 0001:00030780       ?_IndexedError@?$__stl_debug_engine@_N@_STL@@SAXHPBDH@Z 00431780 f i stlport_vc6_static:dll_main.obj
 0001:000307b0       ?_Assert@?$__stl_debug_engine@_N@_STL@@SAXPBD0H@Z 004317b0 f i stlport_vc6_static:dll_main.obj
 0001:000307e0       ?_VerboseAssert@?$__stl_debug_engine@_N@_STL@@SAXPBDH0H@Z 004317e0 f i stlport_vc6_static:dll_main.obj
 0001:00030820       ?_Terminate@?$__stl_debug_engine@_N@_STL@@SAXXZ 00431820 f i stlport_vc6_static:dll_main.obj
 0001:00030830       ?_S_refill@?$__node_alloc@$0A@$0A@@_STL@@CAPAXI@Z 00431830 f i stlport_vc6_static:dll_main.obj
 0001:00030a70       ?_S_chunk_alloc@?$__node_alloc@$0A@$0A@@_STL@@CAPADIAAH@Z 00431a70 f i stlport_vc6_static:dll_main.obj
 0001:00030c20       ?_M_allocate@?$__node_alloc@$0A@$0A@@_STL@@CAPAXI@Z 00431c20 f i stlport_vc6_static:dll_main.obj
 0001:00030e80       ?_M_deallocate@?$__node_alloc@$0A@$0A@@_STL@@CAXPAXI@Z 00431e80 f i stlport_vc6_static:dll_main.obj
 0001:00030ff0       ?allocate@?$__debug_alloc@V?$__node_alloc@$00$0A@@_STL@@@_STL@@SAPAXI@Z 00431ff0 f i stlport_vc6_static:dll_main.obj
 0001:00031090       ?deallocate@?$__debug_alloc@V?$__node_alloc@$00$0A@@_STL@@@_STL@@SAXPAXI@Z 00432090 f i stlport_vc6_static:dll_main.obj
 0001:00031150       ?allocate@?$__debug_alloc@V?$__node_alloc@$0A@$0A@@_STL@@@_STL@@SAPAXI@Z 00432150 f i stlport_vc6_static:dll_main.obj
 0001:000311f0       ?deallocate@?$__debug_alloc@V?$__node_alloc@$0A@$0A@@_STL@@@_STL@@SAXPAXI@Z 004321f0 f i stlport_vc6_static:dll_main.obj
 0001:000312b0       ?allocate@?$__debug_alloc@V__new_alloc@_STL@@@_STL@@SAPAXI@Z 004322b0 f i stlport_vc6_static:dll_main.obj
 0001:00031330       ?deallocate@?$__debug_alloc@V__new_alloc@_STL@@@_STL@@SAXPAXI@Z 00432330 f i stlport_vc6_static:dll_main.obj
 0001:000313d0       ?_S_oom_malloc@?$__malloc_alloc@$0A@@_STL@@CAPAXI@Z 004323d0 f i stlport_vc6_static:dll_main.obj
 0001:00031430       ??4?$vector@PAXV?$allocator@PAX@_STL@@@_STL@@QAEAAV01@ABV01@@Z 00432430 f i stlport_vc6_static:dll_main.obj
 0001:00031630       ?reserve@?$vector@PAXV?$allocator@PAX@_STL@@@_STL@@QAEXI@Z 00432630 f i stlport_vc6_static:dll_main.obj
 0001:00031750       ?_M_fill_assign@?$vector@PAXV?$allocator@PAX@_STL@@@_STL@@QAEXIABQAX@Z 00432750 f i stlport_vc6_static:dll_main.obj
 0001:00031a50       ?_M_fill_insert@?$vector@PAXV?$allocator@PAX@_STL@@@_STL@@QAEXPAPAXIABQAX@Z 00432a50 f i stlport_vc6_static:dll_main.obj
 0001:00031f50       ?_Rebalance@?$_Rb_global@_N@_STL@@SAXPAU_Rb_tree_node_base@2@AAPAU32@@Z 00432f50 f i stlport_vc6_static:dll_main.obj
 0001:000322d0       ?_Rebalance_for_erase@?$_Rb_global@_N@_STL@@SAPAU_Rb_tree_node_base@2@PAU32@AAPAU32@11@Z 004332d0 f i stlport_vc6_static:dll_main.obj
 0001:00032a20       ?_M_increment@?$_Rb_global@_N@_STL@@SAPAU_Rb_tree_node_base@2@PAU32@@Z 00433a20 f i stlport_vc6_static:dll_main.obj
 0001:00032a90       ?_M_decrement@?$_Rb_global@_N@_STL@@SAPAU_Rb_tree_node_base@2@PAU32@@Z 00433a90 f i stlport_vc6_static:dll_main.obj
 0001:00032b20       ?_Rotate_left@?$_Rb_global@_N@_STL@@SAXPAU_Rb_tree_node_base@2@AAPAU32@@Z 00433b20 f i stlport_vc6_static:dll_main.obj
 0001:00032bb0       ?_Rotate_right@?$_Rb_global@_N@_STL@@SAXPAU_Rb_tree_node_base@2@AAPAU32@@Z 00433bb0 f i stlport_vc6_static:dll_main.obj
 0001:00032c40       ?_Transfer@?$_List_global@_N@_STL@@SAXPAU_List_node_base@2@00@Z 00433c40 f i stlport_vc6_static:dll_main.obj
 0001:00032ca0       ?size@?$_Sl_global@_N@_STL@@SAIPAU_Slist_node_base@2@@Z 00433ca0 f i stlport_vc6_static:dll_main.obj
 0001:00032cd0       ?__reverse@?$_Sl_global@_N@_STL@@SAPAU_Slist_node_base@2@PAU32@@Z 00433cd0 f i stlport_vc6_static:dll_main.obj
 0001:00032d20       ?__splice_after@?$_Sl_global@_N@_STL@@SAXPAU_Slist_node_base@2@0@Z 00433d20 f i stlport_vc6_static:dll_main.obj
 0001:00032d90       ?__splice_after@?$_Sl_global@_N@_STL@@SAXPAU_Slist_node_base@2@00@Z 00433d90 f i stlport_vc6_static:dll_main.obj
 0001:00032de0       ?__previous@?$_Sl_global@_N@_STL@@SAPAU_Slist_node_base@2@PAU32@PBU32@@Z 00433de0 f i stlport_vc6_static:dll_main.obj
 0001:00032e10       ?assign@?$basic_string@DV?$char_traits@D@_STL@@V?$allocator@D@2@@_STL@@QAEAAV12@PAD0@Z 00433e10 f i stlport_vc6_static:dll_main.obj
 0001:00032ef0       ?append@?$basic_string@DV?$char_traits@D@_STL@@V?$allocator@D@2@@_STL@@QAEAAV12@PAD0@Z 00433ef0 f i stlport_vc6_static:dll_main.obj
 0001:00032f20       ?append@?$basic_string@DV?$char_traits@D@_STL@@V?$allocator@D@2@@_STL@@QAEAAV12@PBD0@Z 00433f20 f i stlport_vc6_static:dll_main.obj
 0001:00032f50       ?insert@?$basic_string@DV?$char_traits@D@_STL@@V?$allocator@D@2@@_STL@@QAEXPAD00@Z 00433f50 f i stlport_vc6_static:dll_main.obj
 0001:00032f80       ?insert@?$basic_string@DV?$char_traits@D@_STL@@V?$allocator@D@2@@_STL@@QAEXPADPBD1@Z 00433f80 f i stlport_vc6_static:dll_main.obj
 0001:00032fb0       ?replace@?$basic_string@DV?$char_traits@D@_STL@@V?$allocator@D@2@@_STL@@QAEAAV12@PAD000@Z 00433fb0 f i stlport_vc6_static:dll_main.obj
 0001:00033110       ?replace@?$basic_string@DV?$char_traits@D@_STL@@V?$allocator@D@2@@_STL@@QAEAAV12@PAD0PBD1@Z 00434110 f i stlport_vc6_static:dll_main.obj
 0001:00033280       ?swap@_STL@@YAXAAV?$_STLP_alloc_proxy@PADDV?$allocator@D@_STL@@@1@0@Z 00434280 f i stlport_vc6_static:dll_main.obj
 0001:000332b0       ??0?$basic_string@DV?$char_traits@D@_STL@@V?$allocator@D@2@@_STL@@QAE@PAD0@Z 004342b0 f i stlport_vc6_static:dll_main.obj
 0001:00033510       ?__uninitialized_copy@_STL@@YAPAPAXPAPAX00ABU__false_type@1@@Z 00434510 f i stlport_vc6_static:dll_main.obj
 0001:000335b0       ?__uninitialized_fill_n@_STL@@YAPAPAXPAPAXIABQAXABU__false_type@1@@Z 004345b0 f i stlport_vc6_static:dll_main.obj
 0001:00033640       ?fill_n@_STL@@YAPAPAXPAPAXIABQAX@Z 00434640 f i stlport_vc6_static:dll_main.obj
 0001:00033670       ?swap@_STL@@YAXAAV?$_STLP_alloc_proxy@PAPAXPAXV?$allocator@PAX@_STL@@@1@0@Z 00434670 f i stlport_vc6_static:dll_main.obj
 0001:000336a0       ??0?$_STLP_alloc_proxy@PADDV?$allocator@D@_STL@@@_STL@@QAE@ABV01@@Z 004346a0 f i stlport_vc6_static:dll_main.obj
 0001:000336c0       ??0?$_STLP_alloc_proxy@PAPAXPAXV?$allocator@PAX@_STL@@@_STL@@QAE@ABV01@@Z 004346c0 f i stlport_vc6_static:dll_main.obj
 0001:000336e0       ??0?$reverse_iterator@PBDDABDPBDH@_STL@@QAE@ABV01@@Z 004346e0 f i stlport_vc6_static:dll_main.obj
 0001:00033710       ??1?$_Node_Alloc_Lock@$0A@$0A@@_STL@@QAE@XZ 00434710 f i stlport_vc6_static:dll_main.obj
 0001:00033740       ??0?$_Node_Alloc_Lock@$00$0A@@_STL@@QAE@XZ 00434740 f i stlport_vc6_static:dll_main.obj
 0001:00033880       ?find_if@_STL@@YA?AV?$reverse_iterator@PBDDABDPBDH@1@V21@0U?$_Eq_char_bound@V?$char_traits@D@_STL@@@1@@Z 00434880 f i stlport_vc6_static:dll_main.obj
 0001:000338c0       ?__find_first_of@_STL@@YA?AV?$reverse_iterator@PBDDABDPBDH@1@V21@0PBD1U?$_Eq_traits@V?$char_traits@D@_STL@@@1@@Z 004348c0 f i stlport_vc6_static:dll_main.obj
 0001:00033950       ?find_if@_STL@@YA?AV?$reverse_iterator@PBDDABDPBDH@1@V21@0U?$_Neq_char_bound@V?$char_traits@D@_STL@@@1@@Z 00434950 f i stlport_vc6_static:dll_main.obj
 0001:00033990       ?find_if@_STL@@YA?AV?$reverse_iterator@PBDDABDPBDH@1@V21@0U?$_Not_within_traits@V?$char_traits@D@_STL@@@1@@Z 00434990 f i stlport_vc6_static:dll_main.obj
 0001:000339e0       ?_M_allocate_and_copy@?$vector@PAXV?$allocator@PAX@_STL@@@_STL@@IAEPAPAXIPBQAX0@Z 004349e0 f i stlport_vc6_static:dll_main.obj
 0001:00033d90       ?_S_nsec_sleep@?$_STLP_mutex_spin@$0A@@_STL@@SAXH@Z 00434d90 f i stlport_vc6_static:dll_main.obj
 0001:00033dc0       ?_M_allocate_and_copy@?$vector@PAXV?$allocator@PAX@_STL@@@_STL@@IAEPAPAXIPAPAX0@Z 00434dc0 f i stlport_vc6_static:dll_main.obj
 0001:00034170       ?_M_assign_dispatch@?$basic_string@DV?$char_traits@D@_STL@@V?$allocator@D@2@@_STL@@AAEAAV12@PAD0ABU__false_type@2@@Z 00435170 f i stlport_vc6_static:dll_main.obj
 0001:00034240       ?_M_insert_dispatch@?$basic_string@DV?$char_traits@D@_STL@@V?$allocator@D@2@@_STL@@AAEXPAD00ABU__false_type@2@@Z 00435240 f i stlport_vc6_static:dll_main.obj
 0001:00034270       ?_M_insert_dispatch@?$basic_string@DV?$char_traits@D@_STL@@V?$allocator@D@2@@_STL@@AAEXPADPBD1ABU__false_type@2@@Z 00435270 f i stlport_vc6_static:dll_main.obj
 0001:000342a0       ?_M_replace_dispatch@?$basic_string@DV?$char_traits@D@_STL@@V?$allocator@D@2@@_STL@@AAEAAV12@PAD000ABU__false_type@2@@Z 004352a0 f i stlport_vc6_static:dll_main.obj
 0001:00034400       ?_M_replace_dispatch@?$basic_string@DV?$char_traits@D@_STL@@V?$allocator@D@2@@_STL@@AAEAAV12@PAD0PBD1ABU__false_type@2@@Z 00435400 f i stlport_vc6_static:dll_main.obj
 0001:00034570       ?_M_initialize_dispatch@?$basic_string@DV?$char_traits@D@_STL@@V?$allocator@D@2@@_STL@@AAEXPAD0ABU__false_type@2@@Z 00435570 f i stlport_vc6_static:dll_main.obj
 0001:000346c0       ?__find_if@_STL@@YA?AV?$reverse_iterator@PBDDABDPBDH@1@V21@0U?$_Eq_char_bound@V?$char_traits@D@_STL@@@1@ABUrandom_access_iterator_tag@1@@Z 004356c0 f i stlport_vc6_static:dll_main.obj
 0001:00034880       ?__find_if@_STL@@YA?AV?$reverse_iterator@PBDDABDPBDH@1@V21@0U?$_Neq_char_bound@V?$char_traits@D@_STL@@@1@ABUrandom_access_iterator_tag@1@@Z 00435880 f i stlport_vc6_static:dll_main.obj
 0001:00034a90       ?__find_if@_STL@@YA?AV?$reverse_iterator@PBDDABDPBDH@1@V21@0U?$_Not_within_traits@V?$char_traits@D@_STL@@@1@ABUrandom_access_iterator_tag@1@@Z 00435a90 f i stlport_vc6_static:dll_main.obj
 0001:00034f00       ?insert@?$basic_string@DV?$char_traits@D@_STL@@V?$allocator@D@2@@_STL@@AAEXPAD00ABUforward_iterator_tag@2@@Z 00435f00 f i stlport_vc6_static:dll_main.obj
 0001:00035580       ?insert@?$basic_string@DV?$char_traits@D@_STL@@V?$allocator@D@2@@_STL@@AAEXPADPBD1ABUforward_iterator_tag@2@@Z 00436580 f i stlport_vc6_static:dll_main.obj
 0001:00035c50       ?replace@?$basic_string@DV?$char_traits@D@_STL@@V?$allocator@D@2@@_STL@@AAEAAV12@PAD000ABUforward_iterator_tag@2@@Z 00436c50 f i stlport_vc6_static:dll_main.obj
 0001:00035da0       ?replace@?$basic_string@DV?$char_traits@D@_STL@@V?$allocator@D@2@@_STL@@AAEAAV12@PAD0PBD1ABUforward_iterator_tag@2@@Z 00436da0 f i stlport_vc6_static:dll_main.obj
 0001:00035f00       ?_M_copy@?$basic_string@DV?$char_traits@D@_STL@@V?$allocator@D@2@@_STL@@AAEXPAD00@Z 00436f00 f i stlport_vc6_static:dll_main.obj
 0001:00035f40       ?__find_if@_STL@@YAPADPAD0U?$_Eq_char_bound@V?$char_traits@D@_STL@@@1@ABUrandom_access_iterator_tag@1@@Z 00436f40 f i stlport_vc6_static:dll_main.obj
 0001:000360b0       ??1?$basic_streambuf@DV?$char_traits@D@_STL@@@_STL@@UAE@XZ 004370b0 f   stlport_vc6_static:streambuf.obj
 0001:000360c0       ??0?$basic_streambuf@DV?$char_traits@D@_STL@@@_STL@@IAE@PAU_iobuf@@0@Z 004370c0 f   stlport_vc6_static:streambuf.obj
 0001:00036130       ?imbue@?$basic_streambuf@DV?$char_traits@D@_STL@@@_STL@@MAEXABVlocale@2@@Z 00437130 f   stlport_vc6_static:streambuf.obj
 0001:00036140       ?setbuf@?$basic_streambuf@DV?$char_traits@D@_STL@@@_STL@@MAEPAV12@PADH@Z 00437140 f   stlport_vc6_static:streambuf.obj
 0001:00036150       ?seekoff@?$basic_streambuf@DV?$char_traits@D@_STL@@@_STL@@MAE?AV?$fpos@H@2@JHH@Z 00437150 f   stlport_vc6_static:streambuf.obj
 0001:00036170       ?seekpos@?$basic_streambuf@DV?$char_traits@D@_STL@@@_STL@@MAE?AV?$fpos@H@2@V32@H@Z 00437170 f   stlport_vc6_static:streambuf.obj
 0001:00036190       ?sync@?$basic_streambuf@DV?$char_traits@D@_STL@@@_STL@@MAEHXZ 00437190 f   stlport_vc6_static:streambuf.obj
 0001:000361a0       ?showmanyc@?$basic_streambuf@DV?$char_traits@D@_STL@@@_STL@@MAEHXZ 004371a0 f   stlport_vc6_static:streambuf.obj
 0001:000361b0       ?xsgetn@?$basic_streambuf@DV?$char_traits@D@_STL@@@_STL@@MAEHPADH@Z 004371b0 f   stlport_vc6_static:streambuf.obj
 0001:00036250       ?underflow@?$basic_streambuf@DV?$char_traits@D@_STL@@@_STL@@MAEHXZ 00437250 f   stlport_vc6_static:streambuf.obj
 0001:00036260       ?uflow@?$basic_streambuf@DV?$char_traits@D@_STL@@@_STL@@MAEHXZ 00437260 f   stlport_vc6_static:streambuf.obj
 0001:00036290       ?pbackfail@?$basic_streambuf@DV?$char_traits@D@_STL@@@_STL@@MAEHH@Z 00437290 f   stlport_vc6_static:streambuf.obj
 0001:000362a0       ?xsputn@?$basic_streambuf@DV?$char_traits@D@_STL@@@_STL@@MAEHPBDH@Z 004372a0 f   stlport_vc6_static:streambuf.obj
 0001:00036350       ?_M_xsputnc@?$basic_streambuf@DV?$char_traits@D@_STL@@@_STL@@MAEHDH@Z 00437350 f   stlport_vc6_static:streambuf.obj
 0001:00036410       ?overflow@?$basic_streambuf@DV?$char_traits@D@_STL@@@_STL@@MAEHH@Z 00437410 f   stlport_vc6_static:streambuf.obj
 0001:00036420       ?_M_snextc_aux@?$basic_streambuf@DV?$char_traits@D@_STL@@@_STL@@AAEHXZ 00437420 f   stlport_vc6_static:streambuf.obj
 0001:00036480       ?pubimbue@?$basic_streambuf@DV?$char_traits@D@_STL@@@_STL@@QAE?AVlocale@2@ABV32@@Z 00437480 f   stlport_vc6_static:streambuf.obj
 0001:00036510       ?eback@?$basic_streambuf@GV?$char_traits@G@_STL@@@_STL@@IBEPAGXZ 00437510 f i stlport_vc6_static:streambuf.obj
 0001:00036520       ?gptr@?$basic_streambuf@GV?$char_traits@G@_STL@@@_STL@@IBEPAGXZ 00437520 f i stlport_vc6_static:streambuf.obj
 0001:00036530       ?egptr@?$basic_streambuf@GV?$char_traits@G@_STL@@@_STL@@IBEPAGXZ 00437530 f i stlport_vc6_static:streambuf.obj
 0001:00036540       ?gbump@?$basic_streambuf@GV?$char_traits@G@_STL@@@_STL@@IAEXH@Z 00437540 f i stlport_vc6_static:streambuf.obj
 0001:00036560       ?_M_eback@?$basic_streambuf@GV?$char_traits@G@_STL@@@_STL@@QBEPAGXZ 00437560 f i stlport_vc6_static:streambuf.obj
 0001:00036570       ?_M_gptr@?$basic_streambuf@GV?$char_traits@G@_STL@@@_STL@@QBEPAGXZ 00437570 f i stlport_vc6_static:streambuf.obj
 0001:00036580       ?_M_egptr@?$basic_streambuf@GV?$char_traits@G@_STL@@@_STL@@QBEPAGXZ 00437580 f i stlport_vc6_static:streambuf.obj
 0001:00036590       ?_M_gbump@?$basic_streambuf@GV?$char_traits@G@_STL@@@_STL@@QAEXH@Z 00437590 f i stlport_vc6_static:streambuf.obj
 0001:000365b0       ?_M_setg@?$basic_streambuf@GV?$char_traits@G@_STL@@@_STL@@QAEXPAG00@Z 004375b0 f i stlport_vc6_static:streambuf.obj
 0001:000365d0       ?pbase@?$basic_streambuf@GV?$char_traits@G@_STL@@@_STL@@IBEPAGXZ 004375d0 f i stlport_vc6_static:streambuf.obj
 0001:000365e0       ?pptr@?$basic_streambuf@GV?$char_traits@G@_STL@@@_STL@@IBEPAGXZ 004375e0 f i stlport_vc6_static:streambuf.obj
 0001:000365f0       ?epptr@?$basic_streambuf@GV?$char_traits@G@_STL@@@_STL@@IBEPAGXZ 004375f0 f i stlport_vc6_static:streambuf.obj
 0001:00036600       ?pbump@?$basic_streambuf@GV?$char_traits@G@_STL@@@_STL@@IAEXH@Z 00437600 f i stlport_vc6_static:streambuf.obj
 0001:00036620       ?pubsetbuf@?$basic_streambuf@GV?$char_traits@G@_STL@@@_STL@@QAEPAV12@PAGH@Z 00437620 f i stlport_vc6_static:streambuf.obj
 0001:00036640       ?pubseekoff@?$basic_streambuf@GV?$char_traits@G@_STL@@@_STL@@QAE?AV?$fpos@H@2@JHH@Z 00437640 f i stlport_vc6_static:streambuf.obj
 0001:00036660       ?pubseekpos@?$basic_streambuf@GV?$char_traits@G@_STL@@@_STL@@QAE?AV?$fpos@H@2@V32@H@Z 00437660 f i stlport_vc6_static:streambuf.obj
 0001:00036680       ?pubsync@?$basic_streambuf@GV?$char_traits@G@_STL@@@_STL@@QAEHXZ 00437680 f i stlport_vc6_static:streambuf.obj
 0001:00036690       ?sputn@?$basic_streambuf@GV?$char_traits@G@_STL@@@_STL@@QAEHPBGH@Z 00437690 f i stlport_vc6_static:streambuf.obj
 0001:000366b0       ?_M_sputnc@?$basic_streambuf@GV?$char_traits@G@_STL@@@_STL@@QAEHGH@Z 004376b0 f i stlport_vc6_static:streambuf.obj
 0001:000366d0       ?in_avail@?$basic_streambuf@GV?$char_traits@G@_STL@@@_STL@@QAEHXZ 004376d0 f i stlport_vc6_static:streambuf.obj
 0001:000366f0       ?snextc@?$basic_streambuf@GV?$char_traits@G@_STL@@@_STL@@QAEGXZ 004376f0 f i stlport_vc6_static:streambuf.obj
 0001:00036750       ?sgetn@?$basic_streambuf@GV?$char_traits@G@_STL@@@_STL@@QAEHPAGH@Z 00437750 f i stlport_vc6_static:streambuf.obj
 0001:00036770       ?sputbackc@?$basic_streambuf@GV?$char_traits@G@_STL@@@_STL@@QAEGG@Z 00437770 f i stlport_vc6_static:streambuf.obj
 0001:000367a0       ?sungetc@?$basic_streambuf@GV?$char_traits@G@_STL@@@_STL@@QAEGXZ 004377a0 f i stlport_vc6_static:streambuf.obj
 0001:000367c0       ?getloc@?$basic_streambuf@GV?$char_traits@G@_STL@@@_STL@@QBE?AVlocale@2@XZ 004377c0 f i stlport_vc6_static:streambuf.obj
 0001:000367e0       ?stossc@?$basic_streambuf@GV?$char_traits@G@_STL@@@_STL@@QAEXXZ 004377e0 f i stlport_vc6_static:streambuf.obj
 0001:00036800       ??0?$basic_streambuf@GV?$char_traits@G@_STL@@@_STL@@IAE@XZ 00437800 f i stlport_vc6_static:streambuf.obj
 0001:00036830       ?_M_snextc_aux@?$basic_streambuf@GV?$char_traits@G@_STL@@@_STL@@AAEGXZ 00437830 f i stlport_vc6_static:streambuf.obj
 0001:000368c0       ?flag_to_openmode@_SgI@@YAHH@Z 004378c0 f   stlport_vc6_static:fstream.obj
 0001:00036900       ?__is_regular_file@_SgI@@YA_NPAX@Z 00437900 f   stlport_vc6_static:fstream.obj
 0001:00036920       ?__file_size@_SgI@@YAJPAX@Z 00437920 f   stlport_vc6_static:fstream.obj
 0001:00036960       ?_get_osfflags@_SgI@@YAHHPAX@Z 00437960 f   stlport_vc6_static:fstream.obj
 0001:000369b0       ??0_Filebuf_base@_STL@@QAE@XZ 004379b0 f   stlport_vc6_static:fstream.obj
 0001:00036a10       ?_M_file_size@_Filebuf_base@_STL@@QAEJXZ 00437a10 f   stlport_vc6_static:fstream.obj
 0001:00036a20       ?_M_open@_Filebuf_base@_STL@@QAE_NPBDHJ@Z 00437a20 f   stlport_vc6_static:fstream.obj
 0001:00036b60       ?_M_open@_Filebuf_base@_STL@@QAE_NPBDH@Z 00437b60 f   stlport_vc6_static:fstream.obj
 0001:00036b80       ?_M_open@_Filebuf_base@_STL@@QAE_NHH@Z 00437b80 f   stlport_vc6_static:fstream.obj
 0001:00036bf0       ?_M_close@_Filebuf_base@_STL@@QAE_NXZ 00437bf0 f   stlport_vc6_static:fstream.obj
 0001:00036c50       ?_M_read@_Filebuf_base@_STL@@QAEHPADH@Z 00437c50 f   stlport_vc6_static:fstream.obj
 0001:00036d40       ?_M_write@_Filebuf_base@_STL@@QAE_NPADH@Z 00437d40 f   stlport_vc6_static:fstream.obj
 0001:00036f00       ?_M_seek@_Filebuf_base@_STL@@QAEJJH@Z 00437f00 f   stlport_vc6_static:fstream.obj
 0001:00036fb0       ?_M_mmap@_Filebuf_base@_STL@@QAEPAXJJ@Z 00437fb0 f   stlport_vc6_static:fstream.obj
 0001:00037020       ?_M_unmap@_Filebuf_base@_STL@@QAEXPAXJ@Z 00438020 f   stlport_vc6_static:fstream.obj
 0001:00037050       ?_M_doit@?$_Underflow@DV?$char_traits@D@_STL@@@_STL@@SAHPAV?$basic_filebuf@DV?$char_traits@D@_STL@@@2@@Z 00438050 f   stlport_vc6_static:fstream.obj
 0001:00037370       ?is_open@?$basic_filebuf@DV?$char_traits@D@_STL@@@_STL@@QBE_NXZ 00438370 f i stlport_vc6_static:fstream.obj
 0001:00037380       ?open@?$basic_filebuf@DV?$char_traits@D@_STL@@@_STL@@QAEPAV12@PBDH@Z 00438380 f i stlport_vc6_static:fstream.obj
 0001:000373a0       ?open@?$basic_filebuf@DV?$char_traits@D@_STL@@@_STL@@QAEPAV12@PBDHJ@Z 004383a0 f i stlport_vc6_static:fstream.obj
 0001:000373d0       ?fd@?$basic_filebuf@DV?$char_traits@D@_STL@@@_STL@@QBEPAXXZ 004383d0 f i stlport_vc6_static:fstream.obj
 0001:000373e0       ?open@?$basic_filebuf@DV?$char_traits@D@_STL@@@_STL@@QAEPAV12@HH@Z 004383e0 f i stlport_vc6_static:fstream.obj
 0001:00037400       ?_M_open@?$basic_filebuf@DV?$char_traits@D@_STL@@@_STL@@QAEPAV12@HH@Z 00438400 f i stlport_vc6_static:fstream.obj
 0001:00037420       ?_M_exit_putback_mode@?$basic_filebuf@DV?$char_traits@D@_STL@@@_STL@@AAEXXZ 00438420 f i stlport_vc6_static:fstream.obj
 0001:00037450       ?_M_seek_return@?$basic_filebuf@DV?$char_traits@D@_STL@@@_STL@@AAE?AV?$fpos@H@2@JH@Z 00438450 f i stlport_vc6_static:fstream.obj
 0001:000374c0       ?_M_write@?$basic_filebuf@DV?$char_traits@D@_STL@@@_STL@@QAE_NPADH@Z 004384c0 f i stlport_vc6_static:fstream.obj
 0001:000374e0       ?_M_do_noconv_input@?$basic_filebuf@DV?$char_traits@D@_STL@@@_STL@@QAEHXZ 004384e0 f i stlport_vc6_static:fstream.obj
 0001:00037510       ??0?$basic_ifstream@DV?$char_traits@D@_STL@@@_STL@@QAE@XZ 00438510 f i stlport_vc6_static:fstream.obj
 0001:00037710       ??0?$basic_ifstream@DV?$char_traits@D@_STL@@@_STL@@QAE@PBDH@Z 00438710 f i stlport_vc6_static:fstream.obj
 0001:00037980       ??0?$basic_ifstream@DV?$char_traits@D@_STL@@@_STL@@QAE@HH@Z 00438980 f i stlport_vc6_static:fstream.obj
 0001:00037bf0       ??0?$basic_ifstream@DV?$char_traits@D@_STL@@@_STL@@QAE@PBDHJ@Z 00438bf0 f i stlport_vc6_static:fstream.obj
 0001:00037e60       ??1?$basic_ifstream@DV?$char_traits@D@_STL@@@_STL@@UAE@XZ 00438e60 f i stlport_vc6_static:fstream.obj
 0001:00037fc0       ?rdbuf@?$basic_ifstream@DV?$char_traits@D@_STL@@@_STL@@QBEPAV?$basic_filebuf@DV?$char_traits@D@_STL@@@2@XZ 00438fc0 f i stlport_vc6_static:fstream.obj
 0001:00037fd0       ?is_open@?$basic_ifstream@DV?$char_traits@D@_STL@@@_STL@@QAE_NXZ 00438fd0 f i stlport_vc6_static:fstream.obj
 0001:00037fe0       ?open@?$basic_ifstream@DV?$char_traits@D@_STL@@@_STL@@QAEXPBDH@Z 00438fe0 f i stlport_vc6_static:fstream.obj
 0001:00038030       ?close@?$basic_ifstream@DV?$char_traits@D@_STL@@@_STL@@QAEXXZ 00439030 f i stlport_vc6_static:fstream.obj
 0001:000381e0       ??0?$basic_ofstream@DV?$char_traits@D@_STL@@@_STL@@QAE@XZ 004391e0 f i stlport_vc6_static:fstream.obj
 0001:000383e0       ??0?$basic_ofstream@DV?$char_traits@D@_STL@@@_STL@@QAE@PBDH@Z 004393e0 f i stlport_vc6_static:fstream.obj
 0001:00038650       ??0?$basic_ofstream@DV?$char_traits@D@_STL@@@_STL@@QAE@HH@Z 00439650 f i stlport_vc6_static:fstream.obj
 0001:000388c0       ??0?$basic_ofstream@DV?$char_traits@D@_STL@@@_STL@@QAE@PBDHJ@Z 004398c0 f i stlport_vc6_static:fstream.obj
 0001:00038b30       ??1?$basic_ofstream@DV?$char_traits@D@_STL@@@_STL@@UAE@XZ 00439b30 f i stlport_vc6_static:fstream.obj
 0001:00038c90       ?rdbuf@?$basic_ofstream@DV?$char_traits@D@_STL@@@_STL@@QBEPAV?$basic_filebuf@DV?$char_traits@D@_STL@@@2@XZ 00439c90 f i stlport_vc6_static:fstream.obj
 0001:00038ca0       ?is_open@?$basic_ofstream@DV?$char_traits@D@_STL@@@_STL@@QAE_NXZ 00439ca0 f i stlport_vc6_static:fstream.obj
 0001:00038cb0       ?open@?$basic_ofstream@DV?$char_traits@D@_STL@@@_STL@@QAEXPBDH@Z 00439cb0 f i stlport_vc6_static:fstream.obj
 0001:00038d00       ?close@?$basic_ofstream@DV?$char_traits@D@_STL@@@_STL@@QAEXXZ 00439d00 f i stlport_vc6_static:fstream.obj
 0001:00038eb0       ??0?$basic_fstream@DV?$char_traits@D@_STL@@@_STL@@QAE@PBDH@Z 00439eb0 f i stlport_vc6_static:fstream.obj
 0001:000390e0       ??0?$basic_fstream@DV?$char_traits@D@_STL@@@_STL@@QAE@HH@Z 0043a0e0 f i stlport_vc6_static:fstream.obj
 0001:00039310       ??0?$basic_fstream@DV?$char_traits@D@_STL@@@_STL@@QAE@PBDHJ@Z 0043a310 f i stlport_vc6_static:fstream.obj
 0001:00039540       ?rdbuf@?$basic_fstream@DV?$char_traits@D@_STL@@@_STL@@QBEPAV?$basic_filebuf@DV?$char_traits@D@_STL@@@2@XZ 0043a540 f i stlport_vc6_static:fstream.obj
 0001:00039550       ?is_open@?$basic_fstream@DV?$char_traits@D@_STL@@@_STL@@QAE_NXZ 0043a550 f i stlport_vc6_static:fstream.obj
 0001:00039560       ?open@?$basic_fstream@DV?$char_traits@D@_STL@@@_STL@@QAEXPBDH@Z 0043a560 f i stlport_vc6_static:fstream.obj
 0001:000395b0       ?close@?$basic_fstream@DV?$char_traits@D@_STL@@@_STL@@QAEXXZ 0043a5b0 f i stlport_vc6_static:fstream.obj
 0001:00039760       ?is_open@?$basic_filebuf@GV?$char_traits@G@_STL@@@_STL@@QBE_NXZ 0043a760 f i stlport_vc6_static:fstream.obj
 0001:00039770       ?open@?$basic_filebuf@GV?$char_traits@G@_STL@@@_STL@@QAEPAV12@PBDH@Z 0043a770 f i stlport_vc6_static:fstream.obj
 0001:00039790       ?open@?$basic_filebuf@GV?$char_traits@G@_STL@@@_STL@@QAEPAV12@PBDHJ@Z 0043a790 f i stlport_vc6_static:fstream.obj
 0001:000397c0       ?fd@?$basic_filebuf@GV?$char_traits@G@_STL@@@_STL@@QBEPAXXZ 0043a7c0 f i stlport_vc6_static:fstream.obj
 0001:000397d0       ?open@?$basic_filebuf@GV?$char_traits@G@_STL@@@_STL@@QAEPAV12@HH@Z 0043a7d0 f i stlport_vc6_static:fstream.obj
 0001:000397f0       ?_M_open@?$basic_filebuf@GV?$char_traits@G@_STL@@@_STL@@QAEPAV12@HH@Z 0043a7f0 f i stlport_vc6_static:fstream.obj
 0001:00039810       ?_M_seek_return@?$basic_filebuf@GV?$char_traits@G@_STL@@@_STL@@AAE?AV?$fpos@H@2@JH@Z 0043a810 f i stlport_vc6_static:fstream.obj
 0001:00039880       ?_M_write@?$basic_filebuf@GV?$char_traits@G@_STL@@@_STL@@QAE_NPADH@Z 0043a880 f i stlport_vc6_static:fstream.obj
 0001:000398a0       ?_M_do_noconv_input@?$basic_filebuf@GV?$char_traits@G@_STL@@@_STL@@QAEGXZ 0043a8a0 f i stlport_vc6_static:fstream.obj
 0001:000398c0       ??0?$basic_ifstream@GV?$char_traits@G@_STL@@@_STL@@QAE@XZ 0043a8c0 f i stlport_vc6_static:fstream.obj
 0001:00039a90       ??0?$basic_ifstream@GV?$char_traits@G@_STL@@@_STL@@QAE@PBDH@Z 0043aa90 f i stlport_vc6_static:fstream.obj
 0001:00039cd0       ??0?$basic_ifstream@GV?$char_traits@G@_STL@@@_STL@@QAE@HH@Z 0043acd0 f i stlport_vc6_static:fstream.obj
 0001:00039f10       ??0?$basic_ifstream@GV?$char_traits@G@_STL@@@_STL@@QAE@PBDHJ@Z 0043af10 f i stlport_vc6_static:fstream.obj
 0001:0003a160       ??1?$basic_ifstream@GV?$char_traits@G@_STL@@@_STL@@UAE@XZ 0043b160 f i stlport_vc6_static:fstream.obj
 0001:0003a2a0       ?rdbuf@?$basic_ifstream@GV?$char_traits@G@_STL@@@_STL@@QBEPAV?$basic_filebuf@GV?$char_traits@G@_STL@@@2@XZ 0043b2a0 f i stlport_vc6_static:fstream.obj
 0001:0003a2b0       ?is_open@?$basic_ifstream@GV?$char_traits@G@_STL@@@_STL@@QAE_NXZ 0043b2b0 f i stlport_vc6_static:fstream.obj
 0001:0003a2c0       ?open@?$basic_ifstream@GV?$char_traits@G@_STL@@@_STL@@QAEXPBDH@Z 0043b2c0 f i stlport_vc6_static:fstream.obj
 0001:0003a310       ?close@?$basic_ifstream@GV?$char_traits@G@_STL@@@_STL@@QAEXXZ 0043b310 f i stlport_vc6_static:fstream.obj
 0001:0003a480       ??1?$basic_istream@GV?$char_traits@G@_STL@@@_STL@@UAE@XZ 0043b480 f i stlport_vc6_static:fstream.obj
 0001:0003a490       ??0?$basic_ofstream@GV?$char_traits@G@_STL@@@_STL@@QAE@XZ 0043b490 f i stlport_vc6_static:fstream.obj
 0001:0003a660       ??0?$basic_ofstream@GV?$char_traits@G@_STL@@@_STL@@QAE@PBDH@Z 0043b660 f i stlport_vc6_static:fstream.obj
 0001:0003a8a0       ??0?$basic_ofstream@GV?$char_traits@G@_STL@@@_STL@@QAE@HH@Z 0043b8a0 f i stlport_vc6_static:fstream.obj
 0001:0003aae0       ??0?$basic_ofstream@GV?$char_traits@G@_STL@@@_STL@@QAE@PBDHJ@Z 0043bae0 f i stlport_vc6_static:fstream.obj
 0001:0003ad30       ??1?$basic_ofstream@GV?$char_traits@G@_STL@@@_STL@@UAE@XZ 0043bd30 f i stlport_vc6_static:fstream.obj
 0001:0003ae70       ?rdbuf@?$basic_ofstream@GV?$char_traits@G@_STL@@@_STL@@QBEPAV?$basic_filebuf@GV?$char_traits@G@_STL@@@2@XZ 0043be70 f i stlport_vc6_static:fstream.obj
 0001:0003ae80       ?is_open@?$basic_ofstream@GV?$char_traits@G@_STL@@@_STL@@QAE_NXZ 0043be80 f i stlport_vc6_static:fstream.obj
 0001:0003ae90       ??0?$basic_streambuf@DV?$char_traits@D@_STL@@@_STL@@IAE@XZ 0043be90 f i stlport_vc6_static:fstream.obj
 0001:0003aed0       ?open@?$basic_ofstream@GV?$char_traits@G@_STL@@@_STL@@QAEXPBDH@Z 0043bed0 f i stlport_vc6_static:fstream.obj
 0001:0003af20       ?close@?$basic_ofstream@GV?$char_traits@G@_STL@@@_STL@@QAEXXZ 0043bf20 f i stlport_vc6_static:fstream.obj
 0001:0003b090       ??0?$basic_fstream@GV?$char_traits@G@_STL@@@_STL@@QAE@XZ 0043c090 f i stlport_vc6_static:fstream.obj
 0001:0003b230       ??0?$basic_fstream@GV?$char_traits@G@_STL@@@_STL@@QAE@PBDH@Z 0043c230 f i stlport_vc6_static:fstream.obj
 0001:0003b450       ??0?$basic_fstream@GV?$char_traits@G@_STL@@@_STL@@QAE@HH@Z 0043c450 f i stlport_vc6_static:fstream.obj
 0001:0003b670       ??0?$basic_fstream@GV?$char_traits@G@_STL@@@_STL@@QAE@PBDHJ@Z 0043c670 f i stlport_vc6_static:fstream.obj
 0001:0003b890       ??1?$basic_fstream@GV?$char_traits@G@_STL@@@_STL@@UAE@XZ 0043c890 f i stlport_vc6_static:fstream.obj
 0001:0003b9f0       ?rdbuf@?$basic_fstream@GV?$char_traits@G@_STL@@@_STL@@QBEPAV?$basic_filebuf@GV?$char_traits@G@_STL@@@2@XZ 0043c9f0 f i stlport_vc6_static:fstream.obj
 0001:0003ba00       ?is_open@?$basic_fstream@GV?$char_traits@G@_STL@@@_STL@@QAE_NXZ 0043ca00 f i stlport_vc6_static:fstream.obj
 0001:0003ba10       ?open@?$basic_fstream@GV?$char_traits@G@_STL@@@_STL@@QAEXPBDH@Z 0043ca10 f i stlport_vc6_static:fstream.obj
 0001:0003ba60       ?close@?$basic_fstream@GV?$char_traits@G@_STL@@@_STL@@QAEXXZ 0043ca60 f i stlport_vc6_static:fstream.obj
 0001:0003bbd0       ??_G?$basic_ifstream@DV?$char_traits@D@_STL@@@_STL@@UAEPAXI@Z 0043cbd0 f i stlport_vc6_static:fstream.obj
 0001:0003bbd0       ??_E?$basic_ifstream@DV?$char_traits@D@_STL@@@_STL@@UAEPAXI@Z 0043cbd0 f i stlport_vc6_static:fstream.obj
 0001:0003bc10       ??_E?$basic_ofstream@DV?$char_traits@D@_STL@@@_STL@@UAEPAXI@Z 0043cc10 f i stlport_vc6_static:fstream.obj
 0001:0003bc10       ??_G?$basic_ofstream@DV?$char_traits@D@_STL@@@_STL@@UAEPAXI@Z 0043cc10 f i stlport_vc6_static:fstream.obj
 0001:0003bc50       ??_G?$basic_ifstream@GV?$char_traits@G@_STL@@@_STL@@UAEPAXI@Z 0043cc50 f i stlport_vc6_static:fstream.obj
 0001:0003bc50       ??_E?$basic_ifstream@GV?$char_traits@G@_STL@@@_STL@@UAEPAXI@Z 0043cc50 f i stlport_vc6_static:fstream.obj
 0001:0003bc90       ??_G?$basic_ofstream@GV?$char_traits@G@_STL@@@_STL@@UAEPAXI@Z 0043cc90 f i stlport_vc6_static:fstream.obj
 0001:0003bc90       ??_E?$basic_ofstream@GV?$char_traits@G@_STL@@@_STL@@UAEPAXI@Z 0043cc90 f i stlport_vc6_static:fstream.obj
 0001:0003bcd0       ??_G?$basic_fstream@GV?$char_traits@G@_STL@@@_STL@@UAEPAXI@Z 0043ccd0 f i stlport_vc6_static:fstream.obj
 0001:0003bcd0       ??_E?$basic_fstream@GV?$char_traits@G@_STL@@@_STL@@UAEPAXI@Z 0043ccd0 f i stlport_vc6_static:fstream.obj
 0001:0003bd10       ??_D?$basic_ifstream@DV?$char_traits@D@_STL@@@_STL@@QAEXXZ 0043cd10 f i stlport_vc6_static:fstream.obj
 0001:0003bd30       ??_D?$basic_ofstream@DV?$char_traits@D@_STL@@@_STL@@QAEXXZ 0043cd30 f i stlport_vc6_static:fstream.obj
 0001:0003bd50       ??_D?$basic_fstream@DV?$char_traits@D@_STL@@@_STL@@QAEXXZ 0043cd50 f i stlport_vc6_static:fstream.obj
 0001:0003bd70       ??_D?$basic_ifstream@GV?$char_traits@G@_STL@@@_STL@@QAEXXZ 0043cd70 f i stlport_vc6_static:fstream.obj
 0001:0003bd90       ??_D?$basic_ofstream@GV?$char_traits@G@_STL@@@_STL@@QAEXXZ 0043cd90 f i stlport_vc6_static:fstream.obj
 0001:0003bdb0       ??_D?$basic_fstream@GV?$char_traits@G@_STL@@@_STL@@QAEXXZ 0043cdb0 f i stlport_vc6_static:fstream.obj
 0001:0003bdd0       ??0?$basic_filebuf@DV?$char_traits@D@_STL@@@_STL@@QAE@XZ 0043cdd0 f i stlport_vc6_static:fstream.obj
 0001:0003bf40       ?_M_switch_to_input_mode@?$basic_filebuf@DV?$char_traits@D@_STL@@@_STL@@AAE_NXZ 0043cf40 f i stlport_vc6_static:fstream.obj
 0001:0003c070       ?_M_switch_to_output_mode@?$basic_filebuf@DV?$char_traits@D@_STL@@@_STL@@AAE_NXZ 0043d070 f i stlport_vc6_static:fstream.obj
 0001:0003c1b0       ?_M_input_error@?$basic_filebuf@DV?$char_traits@D@_STL@@@_STL@@AAEHXZ 0043d1b0 f i stlport_vc6_static:fstream.obj
 0001:0003c200       ?_M_underflow_aux@?$basic_filebuf@DV?$char_traits@D@_STL@@@_STL@@AAEHXZ 0043d200 f i stlport_vc6_static:fstream.obj
 0001:0003c390       ?_M_output_error@?$basic_filebuf@DV?$char_traits@D@_STL@@@_STL@@AAEHXZ 0043d390 f i stlport_vc6_static:fstream.obj
 0001:0003c3b0       ?_M_allocate_buffers@?$basic_filebuf@DV?$char_traits@D@_STL@@@_STL@@AAE_NXZ 0043d3b0 f i stlport_vc6_static:fstream.obj
 0001:0003c4a0       ?_M_deallocate_buffers@?$basic_filebuf@DV?$char_traits@D@_STL@@@_STL@@AAEXXZ 0043d4a0 f i stlport_vc6_static:fstream.obj
 0001:0003c4e0       ?_M_seek_init@?$basic_filebuf@DV?$char_traits@D@_STL@@@_STL@@AAE_N_N@Z 0043d4e0 f i stlport_vc6_static:fstream.obj
 0001:0003c600       ?_M_doit@?$_Underflow@GV?$char_traits@G@_STL@@@_STL@@SAGPAV?$basic_filebuf@GV?$char_traits@G@_STL@@@2@@Z 0043d600 f i stlport_vc6_static:fstream.obj
 0001:0003c7e0       ??0?$basic_filebuf@GV?$char_traits@G@_STL@@@_STL@@QAE@XZ 0043d7e0 f i stlport_vc6_static:fstream.obj
 0001:0003c910       ?close@?$basic_filebuf@GV?$char_traits@G@_STL@@@_STL@@QAEPAV12@XZ 0043d910 f i stlport_vc6_static:fstream.obj
 0001:0003ca50       ?_M_switch_to_input_mode@?$basic_filebuf@GV?$char_traits@G@_STL@@@_STL@@AAE_NXZ 0043da50 f i stlport_vc6_static:fstream.obj
 0001:0003cb80       ?_M_switch_to_output_mode@?$basic_filebuf@GV?$char_traits@G@_STL@@@_STL@@AAE_NXZ 0043db80 f i stlport_vc6_static:fstream.obj
 0001:0003ccc0       ?_M_input_error@?$basic_filebuf@GV?$char_traits@G@_STL@@@_STL@@AAEGXZ 0043dcc0 f i stlport_vc6_static:fstream.obj
 0001:0003cd00       ?_M_underflow_aux@?$basic_filebuf@GV?$char_traits@G@_STL@@@_STL@@AAEGXZ 0043dd00 f i stlport_vc6_static:fstream.obj
 0001:0003ce40       ?_M_output_error@?$basic_filebuf@GV?$char_traits@G@_STL@@@_STL@@AAEGXZ 0043de40 f i stlport_vc6_static:fstream.obj
 0001:0003ce60       ?_M_allocate_buffers@?$basic_filebuf@GV?$char_traits@G@_STL@@@_STL@@AAE_NXZ 0043de60 f i stlport_vc6_static:fstream.obj
 0001:0003cf50       ?_M_deallocate_buffers@?$basic_filebuf@GV?$char_traits@G@_STL@@@_STL@@AAEXXZ 0043df50 f i stlport_vc6_static:fstream.obj
 0001:0003cf90       ?_M_seek_init@?$basic_filebuf@GV?$char_traits@G@_STL@@@_STL@@AAE_N_N@Z 0043df90 f i stlport_vc6_static:fstream.obj
 0001:0003d0a0       ??1?$basic_ostream@GV?$char_traits@G@_STL@@@_STL@@UAE@XZ 0043e0a0 f i stlport_vc6_static:fstream.obj
 0001:0003d0b0       ??1?$basic_iostream@GV?$char_traits@G@_STL@@@_STL@@UAE@XZ 0043e0b0 f i stlport_vc6_static:fstream.obj
 0001:0003d0f0       ??_E?$basic_iostream@GV?$char_traits@G@_STL@@@_STL@@UAEPAXI@Z 0043e0f0 f i stlport_vc6_static:fstream.obj
 0001:0003d0f0       ??_G?$basic_iostream@GV?$char_traits@G@_STL@@@_STL@@UAEPAXI@Z 0043e0f0 f i stlport_vc6_static:fstream.obj
 0001:0003d120       ??0?$messages@D@_STL@@QAE@PAV_Messages@1@@Z 0043e120 f   stlport_vc6_static:messages.obj
 0001:0003d150       ??_G?$messages@D@_STL@@MAEPAXI@Z 0043e150 f i stlport_vc6_static:messages.obj
 0001:0003d150       ??_E?$messages@D@_STL@@MAEPAXI@Z 0043e150 f i stlport_vc6_static:messages.obj
 0001:0003d170       ??1?$messages@D@_STL@@MAE@XZ 0043e170 f   stlport_vc6_static:messages.obj
 0001:0003d1e0       ?do_open@?$messages@D@_STL@@MBEHABV?$basic_string@DV?$char_traits@D@_STL@@V?$allocator@D@2@@2@ABVlocale@2@@Z 0043e1e0 f   stlport_vc6_static:messages.obj
 0001:0003d200       ?do_get@?$messages@D@_STL@@MBE?AV?$basic_string@DV?$char_traits@D@_STL@@V?$allocator@D@2@@2@HHHABV32@@Z 0043e200 f   stlport_vc6_static:messages.obj
 0001:0003d240       ?do_close@?$messages@D@_STL@@MBEXH@Z 0043e240 f   stlport_vc6_static:messages.obj
 0001:0003d250       ??0_Messages@_STL@@QAE@XZ  0043e250 f   stlport_vc6_static:messages.obj
 0001:0003d260       ??_E_Messages@_STL@@UAEPAXI@Z 0043e260 f i stlport_vc6_static:messages.obj
 0001:0003d260       ??_G_Messages@_STL@@UAEPAXI@Z 0043e260 f i stlport_vc6_static:messages.obj
 0001:0003d280       ??1_Messages@_STL@@UAE@XZ  0043e280 f   stlport_vc6_static:messages.obj
 0001:0003d290       ?do_open@_Messages@_STL@@UBEHABV?$basic_string@DV?$char_traits@D@_STL@@V?$allocator@D@2@@2@ABVlocale@2@@Z 0043e290 f   stlport_vc6_static:messages.obj
 0001:0003d2a0       ?do_get@_Messages@_STL@@UBE?AV?$basic_string@DV?$char_traits@D@_STL@@V?$allocator@D@2@@2@HHHABV32@@Z 0043e2a0 f   stlport_vc6_static:messages.obj
 0001:0003d360       ?do_close@_Messages@_STL@@UBEXH@Z 0043e360 f   stlport_vc6_static:messages.obj
 0001:0003d370       ??0?$messages@G@_STL@@QAE@PAV_Messages@1@@Z 0043e370 f   stlport_vc6_static:messages.obj
 0001:0003d3a0       ??_G?$messages@G@_STL@@MAEPAXI@Z 0043e3a0 f i stlport_vc6_static:messages.obj
 0001:0003d3a0       ??_E?$messages@G@_STL@@MAEPAXI@Z 0043e3a0 f i stlport_vc6_static:messages.obj
 0001:0003d3c0       ??1?$messages@G@_STL@@MAE@XZ 0043e3c0 f   stlport_vc6_static:messages.obj
 0001:0003d430       ?do_open@?$messages@G@_STL@@MBEHABV?$basic_string@DV?$char_traits@D@_STL@@V?$allocator@D@2@@2@ABVlocale@2@@Z 0043e430 f   stlport_vc6_static:messages.obj
 0001:0003d450       ?do_get@?$messages@G@_STL@@MBE?AV?$basic_string@GV?$char_traits@G@_STL@@V?$allocator@G@2@@2@HHHABV32@@Z 0043e450 f   stlport_vc6_static:messages.obj
 0001:0003d490       ?do_close@?$messages@G@_STL@@MBEXH@Z 0043e490 f   stlport_vc6_static:messages.obj
 0001:0003d4a0       ?do_get@_Messages@_STL@@UBE?AV?$basic_string@GV?$char_traits@G@_STL@@V?$allocator@G@2@@2@HHHABV32@@Z 0043e4a0 f   stlport_vc6_static:messages.obj
 0001:0003d580       ??1?$codecvt@DDH@_STL@@MAE@XZ 0043e580 f   stlport_vc6_static:codecvt.obj
 0001:0003d590       ?do_length@?$codecvt@DDH@_STL@@MBEHABHPBD1I@Z 0043e590 f   stlport_vc6_static:codecvt.obj
 0001:0003d5c0       ?do_max_length@?$codecvt@DDH@_STL@@MBEHXZ 0043e5c0 f   stlport_vc6_static:codecvt.obj
 0001:0003d5d0       ?do_always_noconv@?$codecvt@DDH@_STL@@MBE_NXZ 0043e5d0 f   stlport_vc6_static:codecvt.obj
 0001:0003d5e0       ?do_encoding@?$codecvt@DDH@_STL@@MBEHXZ 0043e5e0 f   stlport_vc6_static:codecvt.obj
 0001:0003d5f0       ?do_unshift@?$codecvt@DDH@_STL@@MBE?AW4result@codecvt_base@2@AAHPAD1AAPAD@Z 0043e5f0 f   stlport_vc6_static:codecvt.obj
 0001:0003d610       ?do_in@?$codecvt@DDH@_STL@@MBE?AW4result@codecvt_base@2@AAHPBD1AAPBDPAD3AAPAD@Z 0043e610 f   stlport_vc6_static:codecvt.obj
 0001:0003d630       ?do_out@?$codecvt@DDH@_STL@@MBE?AW4result@codecvt_base@2@AAHPBD1AAPBDPAD3AAPAD@Z 0043e630 f   stlport_vc6_static:codecvt.obj
 0001:0003d650       ??1?$codecvt@GDH@_STL@@MAE@XZ 0043e650 f   stlport_vc6_static:codecvt.obj
 0001:0003d660       ?do_out@?$codecvt@GDH@_STL@@MBE?AW4result@codecvt_base@2@AAHPBG1AAPBGPAD3AAPAD@Z 0043e660 f   stlport_vc6_static:codecvt.obj
 0001:0003d6d0       ?do_in@?$codecvt@GDH@_STL@@MBE?AW4result@codecvt_base@2@AAHPBD1AAPBDPAG3AAPAG@Z 0043e6d0 f   stlport_vc6_static:codecvt.obj
 0001:0003d740       ?do_unshift@?$codecvt@GDH@_STL@@MBE?AW4result@codecvt_base@2@AAHPAD1AAPAD@Z 0043e740 f   stlport_vc6_static:codecvt.obj
 0001:0003d760       ?do_encoding@?$codecvt@GDH@_STL@@MBEHXZ 0043e760 f   stlport_vc6_static:codecvt.obj
 0001:0003d770       ?do_always_noconv@?$codecvt@GDH@_STL@@MBE_NXZ 0043e770 f   stlport_vc6_static:codecvt.obj
 0001:0003d780       ?do_length@?$codecvt@GDH@_STL@@MBEHABHPBD1I@Z 0043e780 f   stlport_vc6_static:codecvt.obj
 0001:0003d7b0       ?do_max_length@?$codecvt@GDH@_STL@@MBEHXZ 0043e7b0 f   stlport_vc6_static:codecvt.obj
 0001:0003d7c0       ??1?$collate@D@_STL@@MAE@XZ 0043e7c0 f   stlport_vc6_static:collate.obj
 0001:0003d7d0       ?do_compare@?$collate@D@_STL@@MBEHPBD000@Z 0043e7d0 f   stlport_vc6_static:collate.obj
 0001:0003d830       ?do_transform@?$collate@D@_STL@@MBE?AV?$basic_string@DV?$char_traits@D@_STL@@V?$allocator@D@2@@2@PBD0@Z 0043e830 f   stlport_vc6_static:collate.obj
 0001:0003d8f0       ?do_hash@?$collate@D@_STL@@MBEJPBD0@Z 0043e8f0 f   stlport_vc6_static:collate.obj
 0001:0003d910       ??1?$collate@G@_STL@@MAE@XZ 0043e910 f   stlport_vc6_static:collate.obj
 0001:0003d920       ?do_compare@?$collate@G@_STL@@MBEHPBG000@Z 0043e920 f   stlport_vc6_static:collate.obj
 0001:0003d980       ?do_transform@?$collate@G@_STL@@MBE?AV?$basic_string@GV?$char_traits@G@_STL@@V?$allocator@G@2@@2@PBG0@Z 0043e980 f   stlport_vc6_static:collate.obj
 0001:0003da50       ?do_hash@?$collate@G@_STL@@MBEJPBG0@Z 0043ea50 f   stlport_vc6_static:collate.obj
 0001:0003da80       ?do_decimal_point@?$numpunct@D@_STL@@UBEDXZ 0043ea80 f   stlport_vc6_static:numpunct.obj
 0001:0003da90       ?do_thousands_sep@?$numpunct@D@_STL@@UBEDXZ 0043ea90 f   stlport_vc6_static:numpunct.obj
 0001:0003daa0       ?do_grouping@?$numpunct@D@_STL@@UBE?AV?$basic_string@DV?$char_traits@D@_STL@@V?$allocator@D@2@@2@XZ 0043eaa0 f   stlport_vc6_static:numpunct.obj
 0001:0003db70       ?do_truename@?$numpunct@D@_STL@@UBE?AV?$basic_string@DV?$char_traits@D@_STL@@V?$allocator@D@2@@2@XZ 0043eb70 f   stlport_vc6_static:numpunct.obj
 0001:0003dc40       ?do_falsename@?$numpunct@D@_STL@@UBE?AV?$basic_string@DV?$char_traits@D@_STL@@V?$allocator@D@2@@2@XZ 0043ec40 f   stlport_vc6_static:numpunct.obj
 0001:0003dd10       ??1?$numpunct@D@_STL@@UAE@XZ 0043ed10 f   stlport_vc6_static:numpunct.obj
 0001:0003e080       ??1?$numpunct@G@_STL@@MAE@XZ 0043f080 f   stlport_vc6_static:numpunct.obj
 0001:0003e090       ?do_decimal_point@?$numpunct@G@_STL@@MBEGXZ 0043f090 f   stlport_vc6_static:numpunct.obj
 0001:0003e0a0       ?do_thousands_sep@?$numpunct@G@_STL@@MBEGXZ 0043f0a0 f   stlport_vc6_static:numpunct.obj
 0001:0003e0b0       ?do_grouping@?$numpunct@G@_STL@@MBE?AV?$basic_string@DV?$char_traits@D@_STL@@V?$allocator@D@2@@2@XZ 0043f0b0 f   stlport_vc6_static:numpunct.obj
 0001:0003e180       ?do_truename@?$numpunct@G@_STL@@MBE?AV?$basic_string@GV?$char_traits@G@_STL@@V?$allocator@G@2@@2@XZ 0043f180 f   stlport_vc6_static:numpunct.obj
 0001:0003e260       ?do_falsename@?$numpunct@G@_STL@@MBE?AV?$basic_string@GV?$char_traits@G@_STL@@V?$allocator@G@2@@2@XZ 0043f260 f   stlport_vc6_static:numpunct.obj
 0001:0003e6a0       ??0?$ctype@D@_STL@@QAE@PBW4mask@ctype_base@1@_NI@Z 0043f6a0 f   stlport_vc6_static:ctype.obj
 0001:0003e6f0       ??_G?$ctype@D@_STL@@MAEPAXI@Z 0043f6f0 f i stlport_vc6_static:ctype.obj
 0001:0003e6f0       ??_E?$ctype@D@_STL@@MAEPAXI@Z 0043f6f0 f i stlport_vc6_static:ctype.obj
 0001:0003e710       ??1?$ctype@D@_STL@@MAE@XZ  0043f710 f   stlport_vc6_static:ctype.obj
 0001:0003e740       ?scan_is@?$ctype@D@_STL@@QBEPBDW4mask@ctype_base@2@PBD1@Z 0043f740 f   stlport_vc6_static:ctype.obj
 0001:0003e7c0       ?scan_not@?$ctype@D@_STL@@QBEPBDW4mask@ctype_base@2@PBD1@Z 0043f7c0 f   stlport_vc6_static:ctype.obj
 0001:0003e840       ?do_toupper@?$ctype@D@_STL@@MBEDD@Z 0043f840 f   stlport_vc6_static:ctype.obj
 0001:0003e860       ?do_tolower@?$ctype@D@_STL@@MBEDD@Z 0043f860 f   stlport_vc6_static:ctype.obj
 0001:0003e880       ?do_toupper@?$ctype@D@_STL@@MBEPBDPADPBD@Z 0043f880 f   stlport_vc6_static:ctype.obj
 0001:0003e8b0       ?do_tolower@?$ctype@D@_STL@@MBEPBDPADPBD@Z 0043f8b0 f   stlport_vc6_static:ctype.obj
 0001:0003e8e0       ?do_widen@?$ctype@D@_STL@@MBEDD@Z 0043f8e0 f   stlport_vc6_static:ctype.obj
 0001:0003e8f0       ?do_widen@?$ctype@D@_STL@@MBEPBDPBD0PAD@Z 0043f8f0 f   stlport_vc6_static:ctype.obj
 0001:0003e920       ?do_narrow@?$ctype@D@_STL@@MBEDDD@Z 0043f920 f   stlport_vc6_static:ctype.obj
 0001:0003e930       ?do_narrow@?$ctype@D@_STL@@MBEPBDPBD0DPAD@Z 0043f930 f   stlport_vc6_static:ctype.obj
 0001:0003e960       ??1?$ctype@G@_STL@@MAE@XZ  0043f960 f   stlport_vc6_static:ctype.obj
 0001:0003e970       ?do_is@?$ctype@G@_STL@@MBE_NW4mask@ctype_base@2@G@Z 0043f970 f   stlport_vc6_static:ctype.obj
 0001:0003e9a0       ?do_is@?$ctype@G@_STL@@MBEPBGPBG0PAW4mask@ctype_base@2@@Z 0043f9a0 f   stlport_vc6_static:ctype.obj
 0001:0003e9e0       ?do_scan_is@?$ctype@G@_STL@@MBEPBGW4mask@ctype_base@2@PBG1@Z 0043f9e0 f   stlport_vc6_static:ctype.obj
 0001:0003eaf0       ?do_scan_not@?$ctype@G@_STL@@MBEPBGW4mask@ctype_base@2@PBG1@Z 0043faf0 f   stlport_vc6_static:ctype.obj
 0001:0003ec10       ?do_toupper@?$ctype@G@_STL@@MBEGG@Z 0043fc10 f   stlport_vc6_static:ctype.obj
 0001:0003ec30       ?do_toupper@?$ctype@G@_STL@@MBEPBGPAGPBG@Z 0043fc30 f   stlport_vc6_static:ctype.obj
 0001:0003ec70       ?do_tolower@?$ctype@G@_STL@@MBEGG@Z 0043fc70 f   stlport_vc6_static:ctype.obj
 0001:0003ec90       ?do_tolower@?$ctype@G@_STL@@MBEPBGPAGPBG@Z 0043fc90 f   stlport_vc6_static:ctype.obj
 0001:0003ecd0       ?do_widen@?$ctype@G@_STL@@MBEGD@Z 0043fcd0 f   stlport_vc6_static:ctype.obj
 0001:0003ece0       ?do_widen@?$ctype@G@_STL@@MBEPBDPBD0PAG@Z 0043fce0 f   stlport_vc6_static:ctype.obj
 0001:0003ed10       ?do_narrow@?$ctype@G@_STL@@MBEDGD@Z 0043fd10 f   stlport_vc6_static:ctype.obj
 0001:0003ed30       ?do_narrow@?$ctype@G@_STL@@MBEPBGPBG0DPAD@Z 0043fd30 f   stlport_vc6_static:ctype.obj
 0001:0003ef90       ??0?$moneypunct@D$00@_STL@@QAE@I@Z 0043ff90 f   stlport_vc6_static:monetary.obj
 0001:0003f030       ??_E?$moneypunct@D$00@_STL@@MAEPAXI@Z 00440030 f i stlport_vc6_static:monetary.obj
 0001:0003f030       ??_G?$moneypunct@D$00@_STL@@MAEPAXI@Z 00440030 f i stlport_vc6_static:monetary.obj
 0001:0003f050       ??1?$moneypunct@D$00@_STL@@MAE@XZ 00440050 f   stlport_vc6_static:monetary.obj
 0001:0003f060       ?do_decimal_point@?$moneypunct@D$00@_STL@@MBEDXZ 00440060 f   stlport_vc6_static:monetary.obj
 0001:0003f070       ?do_thousands_sep@?$moneypunct@D$00@_STL@@MBEDXZ 00440070 f   stlport_vc6_static:monetary.obj
 0001:0003f080       ?do_grouping@?$moneypunct@D$00@_STL@@MBE?AV?$basic_string@DV?$char_traits@D@_STL@@V?$allocator@D@2@@2@XZ 00440080 f   stlport_vc6_static:monetary.obj
 0001:0003f150       ?do_curr_symbol@?$moneypunct@D$00@_STL@@MBE?AV?$basic_string@DV?$char_traits@D@_STL@@V?$allocator@D@2@@2@XZ 00440150 f   stlport_vc6_static:monetary.obj
 0001:0003f220       ?do_positive_sign@?$moneypunct@D$00@_STL@@MBE?AV?$basic_string@DV?$char_traits@D@_STL@@V?$allocator@D@2@@2@XZ 00440220 f   stlport_vc6_static:monetary.obj
 0001:0003f2f0       ?do_negative_sign@?$moneypunct@D$00@_STL@@MBE?AV?$basic_string@DV?$char_traits@D@_STL@@V?$allocator@D@2@@2@XZ 004402f0 f   stlport_vc6_static:monetary.obj
 0001:0003f3c0       ?do_pos_format@?$moneypunct@D$00@_STL@@MBE?AUpattern@money_base@2@XZ 004403c0 f   stlport_vc6_static:monetary.obj
 0001:0003f3d0       ?do_neg_format@?$moneypunct@D$00@_STL@@MBE?AUpattern@money_base@2@XZ 004403d0 f   stlport_vc6_static:monetary.obj
 0001:0003f3e0       ?do_frac_digits@?$moneypunct@D$00@_STL@@MBEHXZ 004403e0 f   stlport_vc6_static:monetary.obj
 0001:0003f3f0       ??0?$moneypunct@D$0A@@_STL@@QAE@I@Z 004403f0 f   stlport_vc6_static:monetary.obj
 0001:0003f430       ??_E?$moneypunct@D$0A@@_STL@@MAEPAXI@Z 00440430 f i stlport_vc6_static:monetary.obj
 0001:0003f430       ??_G?$moneypunct@D$0A@@_STL@@MAEPAXI@Z 00440430 f i stlport_vc6_static:monetary.obj
 0001:0003f450       ??1?$moneypunct@D$0A@@_STL@@MAE@XZ 00440450 f   stlport_vc6_static:monetary.obj
 0001:0003f460       ?do_decimal_point@?$moneypunct@D$0A@@_STL@@MBEDXZ 00440460 f   stlport_vc6_static:monetary.obj
 0001:0003f470       ?do_thousands_sep@?$moneypunct@D$0A@@_STL@@MBEDXZ 00440470 f   stlport_vc6_static:monetary.obj
 0001:0003f480       ?do_grouping@?$moneypunct@D$0A@@_STL@@MBE?AV?$basic_string@DV?$char_traits@D@_STL@@V?$allocator@D@2@@2@XZ 00440480 f   stlport_vc6_static:monetary.obj
 0001:0003f550       ?do_curr_symbol@?$moneypunct@D$0A@@_STL@@MBE?AV?$basic_string@DV?$char_traits@D@_STL@@V?$allocator@D@2@@2@XZ 00440550 f   stlport_vc6_static:monetary.obj
 0001:0003f620       ?do_positive_sign@?$moneypunct@D$0A@@_STL@@MBE?AV?$basic_string@DV?$char_traits@D@_STL@@V?$allocator@D@2@@2@XZ 00440620 f   stlport_vc6_static:monetary.obj
 0001:0003f6f0       ?do_negative_sign@?$moneypunct@D$0A@@_STL@@MBE?AV?$basic_string@DV?$char_traits@D@_STL@@V?$allocator@D@2@@2@XZ 004406f0 f   stlport_vc6_static:monetary.obj
 0001:0003f7c0       ?do_pos_format@?$moneypunct@D$0A@@_STL@@MBE?AUpattern@money_base@2@XZ 004407c0 f   stlport_vc6_static:monetary.obj
 0001:0003f7d0       ?do_neg_format@?$moneypunct@D$0A@@_STL@@MBE?AUpattern@money_base@2@XZ 004407d0 f   stlport_vc6_static:monetary.obj
 0001:0003f7e0       ?do_frac_digits@?$moneypunct@D$0A@@_STL@@MBEHXZ 004407e0 f   stlport_vc6_static:monetary.obj
 0001:0003f7f0       ??0?$moneypunct@G$00@_STL@@QAE@I@Z 004407f0 f   stlport_vc6_static:monetary.obj
 0001:0003f830       ??_E?$moneypunct@G$00@_STL@@MAEPAXI@Z 00440830 f i stlport_vc6_static:monetary.obj
 0001:0003f830       ??_G?$moneypunct@G$00@_STL@@MAEPAXI@Z 00440830 f i stlport_vc6_static:monetary.obj
 0001:0003f850       ??1?$moneypunct@G$00@_STL@@MAE@XZ 00440850 f   stlport_vc6_static:monetary.obj
 0001:0003f860       ?do_decimal_point@?$moneypunct@G$00@_STL@@MBEGXZ 00440860 f   stlport_vc6_static:monetary.obj
 0001:0003f870       ?do_thousands_sep@?$moneypunct@G$00@_STL@@MBEGXZ 00440870 f   stlport_vc6_static:monetary.obj
 0001:0003f880       ?do_grouping@?$moneypunct@G$00@_STL@@MBE?AV?$basic_string@DV?$char_traits@D@_STL@@V?$allocator@D@2@@2@XZ 00440880 f   stlport_vc6_static:monetary.obj
 0001:0003f950       ?do_curr_symbol@?$moneypunct@G$00@_STL@@MBE?AV?$basic_string@GV?$char_traits@G@_STL@@V?$allocator@G@2@@2@XZ 00440950 f   stlport_vc6_static:monetary.obj
 0001:0003fa30       ?do_positive_sign@?$moneypunct@G$00@_STL@@MBE?AV?$basic_string@GV?$char_traits@G@_STL@@V?$allocator@G@2@@2@XZ 00440a30 f   stlport_vc6_static:monetary.obj
 0001:0003fb10       ?do_negative_sign@?$moneypunct@G$00@_STL@@MBE?AV?$basic_string@GV?$char_traits@G@_STL@@V?$allocator@G@2@@2@XZ 00440b10 f   stlport_vc6_static:monetary.obj
 0001:0003fbf0       ?do_frac_digits@?$moneypunct@G$00@_STL@@MBEHXZ 00440bf0 f   stlport_vc6_static:monetary.obj
 0001:0003fc00       ?do_pos_format@?$moneypunct@G$00@_STL@@MBE?AUpattern@money_base@2@XZ 00440c00 f   stlport_vc6_static:monetary.obj
 0001:0003fc10       ?do_neg_format@?$moneypunct@G$00@_STL@@MBE?AUpattern@money_base@2@XZ 00440c10 f   stlport_vc6_static:monetary.obj
 0001:0003fc20       ??0?$moneypunct@G$0A@@_STL@@QAE@I@Z 00440c20 f   stlport_vc6_static:monetary.obj
 0001:0003fc60       ??_E?$moneypunct@G$0A@@_STL@@MAEPAXI@Z 00440c60 f i stlport_vc6_static:monetary.obj
 0001:0003fc60       ??_G?$moneypunct@G$0A@@_STL@@MAEPAXI@Z 00440c60 f i stlport_vc6_static:monetary.obj
 0001:0003fc80       ??1?$moneypunct@G$0A@@_STL@@MAE@XZ 00440c80 f   stlport_vc6_static:monetary.obj
 0001:0003fc90       ?do_decimal_point@?$moneypunct@G$0A@@_STL@@MBEGXZ 00440c90 f   stlport_vc6_static:monetary.obj
 0001:0003fca0       ?do_thousands_sep@?$moneypunct@G$0A@@_STL@@MBEGXZ 00440ca0 f   stlport_vc6_static:monetary.obj
 0001:0003fcb0       ?do_grouping@?$moneypunct@G$0A@@_STL@@MBE?AV?$basic_string@DV?$char_traits@D@_STL@@V?$allocator@D@2@@2@XZ 00440cb0 f   stlport_vc6_static:monetary.obj
 0001:0003fd80       ?do_curr_symbol@?$moneypunct@G$0A@@_STL@@MBE?AV?$basic_string@GV?$char_traits@G@_STL@@V?$allocator@G@2@@2@XZ 00440d80 f   stlport_vc6_static:monetary.obj
 0001:0003fe60       ?do_positive_sign@?$moneypunct@G$0A@@_STL@@MBE?AV?$basic_string@GV?$char_traits@G@_STL@@V?$allocator@G@2@@2@XZ 00440e60 f   stlport_vc6_static:monetary.obj
 0001:0003ff40       ?do_negative_sign@?$moneypunct@G$0A@@_STL@@MBE?AV?$basic_string@GV?$char_traits@G@_STL@@V?$allocator@G@2@@2@XZ 00440f40 f   stlport_vc6_static:monetary.obj
 0001:00040020       ?do_frac_digits@?$moneypunct@G$0A@@_STL@@MBEHXZ 00441020 f   stlport_vc6_static:monetary.obj
 0001:00040030       ?do_pos_format@?$moneypunct@G$0A@@_STL@@MBE?AUpattern@money_base@2@XZ 00441030 f   stlport_vc6_static:monetary.obj
 0001:00040040       ?do_neg_format@?$moneypunct@G$0A@@_STL@@MBE?AUpattern@money_base@2@XZ 00441040 f   stlport_vc6_static:monetary.obj
 0001:00040050       ??0?$money_get@DV?$istreambuf_iterator@DV?$char_traits@D@_STL@@@_STL@@@_STL@@QAE@I@Z 00441050 f i stlport_vc6_static:monetary.obj
 0001:00040070       ?get@?$money_get@DV?$istreambuf_iterator@DV?$char_traits@D@_STL@@@_STL@@@_STL@@QBE?AV?$istreambuf_iterator@DV?$char_traits@D@_STL@@@2@V32@0_NAAVios_base@2@AAHAAO@Z 00441070 f i stlport_vc6_static:monetary.obj
 0001:000400b0       ?get@?$money_get@DV?$istreambuf_iterator@DV?$char_traits@D@_STL@@@_STL@@@_STL@@QBE?AV?$istreambuf_iterator@DV?$char_traits@D@_STL@@@2@V32@0_NAAVios_base@2@AAHAAV?$basic_string@DV?$char_traits@D@_STL@@V?$allocator@D@2@@2@@Z 004410b0 f i stlport_vc6_static:monetary.obj
 0001:000400f0       ??0?$money_put@DV?$ostreambuf_iterator@DV?$char_traits@D@_STL@@@_STL@@@_STL@@QAE@I@Z 004410f0 f i stlport_vc6_static:monetary.obj
 0001:00040110       ?put@?$money_put@DV?$ostreambuf_iterator@DV?$char_traits@D@_STL@@@_STL@@@_STL@@QBE?AV?$ostreambuf_iterator@DV?$char_traits@D@_STL@@@2@V32@_NAAVios_base@2@DO@Z 00441110 f i stlport_vc6_static:monetary.obj
 0001:00040150       ?put@?$money_put@DV?$ostreambuf_iterator@DV?$char_traits@D@_STL@@@_STL@@@_STL@@QBE?AV?$ostreambuf_iterator@DV?$char_traits@D@_STL@@@2@V32@_NAAVios_base@2@DABV?$basic_string@DV?$char_traits@D@_STL@@V?$allocator@D@2@@2@@Z 00441150 f i stlport_vc6_static:monetary.obj
 0001:00040180       ??0?$money_get@GV?$istreambuf_iterator@GV?$char_traits@G@_STL@@@_STL@@@_STL@@QAE@I@Z 00441180 f i stlport_vc6_static:monetary.obj
 0001:000401a0       ?get@?$money_get@GV?$istreambuf_iterator@GV?$char_traits@G@_STL@@@_STL@@@_STL@@QBE?AV?$istreambuf_iterator@GV?$char_traits@G@_STL@@@2@V32@0_NAAVios_base@2@AAHAAO@Z 004411a0 f i stlport_vc6_static:monetary.obj
 0001:000401e0       ?get@?$money_get@GV?$istreambuf_iterator@GV?$char_traits@G@_STL@@@_STL@@@_STL@@QBE?AV?$istreambuf_iterator@GV?$char_traits@G@_STL@@@2@V32@0_NAAVios_base@2@AAHAAV?$basic_string@GV?$char_traits@G@_STL@@V?$allocator@G@2@@2@@Z 004411e0 f i stlport_vc6_static:monetary.obj
 0001:00040220       ??0?$money_put@GV?$ostreambuf_iterator@GV?$char_traits@G@_STL@@@_STL@@@_STL@@QAE@I@Z 00441220 f i stlport_vc6_static:monetary.obj
 0001:00040240       ?put@?$money_put@GV?$ostreambuf_iterator@GV?$char_traits@G@_STL@@@_STL@@@_STL@@QBE?AV?$ostreambuf_iterator@GV?$char_traits@G@_STL@@@2@V32@_NAAVios_base@2@GO@Z 00441240 f i stlport_vc6_static:monetary.obj
 0001:00040280       ?put@?$money_put@GV?$ostreambuf_iterator@GV?$char_traits@G@_STL@@@_STL@@@_STL@@QBE?AV?$ostreambuf_iterator@GV?$char_traits@G@_STL@@@2@V32@_NAAVios_base@2@GABV?$basic_string@GV?$char_traits@G@_STL@@V?$allocator@G@2@@2@@Z 00441280 f i stlport_vc6_static:monetary.obj
 0001:000402b0       ?_Init_timeinfo@_STL@@YAXAAV_Time_Info@1@@Z 004412b0 f   stlport_vc6_static:time_facets.obj
 0001:00040470       ?_Init_timeinfo@_STL@@YAXAAV_Time_Info@1@PAU_Locale_time@@@Z 00441470 f   stlport_vc6_static:time_facets.obj
 0001:00040750       ?__write_formatted_time@_STL@@YAPADPADDDABV_Time_Info@1@PBUtm@@@Z 00441750 f   stlport_vc6_static:time_facets.obj
 0001:00040d60       ?__get_date_order@_STL@@YA?AW4dateorder@time_base@1@PAU_Locale_time@@@Z 00441d60 f   stlport_vc6_static:time_facets.obj
 0001:00040e30       ??0?$time_get@DV?$istreambuf_iterator@DV?$char_traits@D@_STL@@@_STL@@@_STL@@QAE@I@Z 00441e30 f i stlport_vc6_static:time_facets.obj
 0001:00041020       ?date_order@?$time_get@DV?$istreambuf_iterator@DV?$char_traits@D@_STL@@@_STL@@@_STL@@QBE?AW4dateorder@time_base@2@XZ 00442020 f i stlport_vc6_static:time_facets.obj
 0001:00041030       ?get_time@?$time_get@DV?$istreambuf_iterator@DV?$char_traits@D@_STL@@@_STL@@@_STL@@QBE?AV?$istreambuf_iterator@DV?$char_traits@D@_STL@@@2@V32@0AAVios_base@2@AAHPAUtm@@@Z 00442030 f i stlport_vc6_static:time_facets.obj
 0001:00041070       ?get_date@?$time_get@DV?$istreambuf_iterator@DV?$char_traits@D@_STL@@@_STL@@@_STL@@QBE?AV?$istreambuf_iterator@DV?$char_traits@D@_STL@@@2@V32@0AAVios_base@2@AAHPAUtm@@@Z 00442070 f i stlport_vc6_static:time_facets.obj
 0001:000410b0       ?get_weekday@?$time_get@DV?$istreambuf_iterator@DV?$char_traits@D@_STL@@@_STL@@@_STL@@QBE?AV?$istreambuf_iterator@DV?$char_traits@D@_STL@@@2@V32@0AAVios_base@2@AAHPAUtm@@@Z 004420b0 f i stlport_vc6_static:time_facets.obj
 0001:000410f0       ?get_monthname@?$time_get@DV?$istreambuf_iterator@DV?$char_traits@D@_STL@@@_STL@@@_STL@@QBE?AV?$istreambuf_iterator@DV?$char_traits@D@_STL@@@2@V32@0AAVios_base@2@AAHPAUtm@@@Z 004420f0 f i stlport_vc6_static:time_facets.obj
 0001:00041130       ?get_year@?$time_get@DV?$istreambuf_iterator@DV?$char_traits@D@_STL@@@_STL@@@_STL@@QBE?AV?$istreambuf_iterator@DV?$char_traits@D@_STL@@@2@V32@0AAVios_base@2@AAHPAUtm@@@Z 00442130 f i stlport_vc6_static:time_facets.obj
 0001:00041170       ??0?$time_get@DV?$istreambuf_iterator@DV?$char_traits@D@_STL@@@_STL@@@_STL@@IAE@PAU_Locale_time@@I@Z 00442170 f i stlport_vc6_static:time_facets.obj
 0001:00041340       ??0?$time_put@DV?$ostreambuf_iterator@DV?$char_traits@D@_STL@@@_STL@@@_STL@@QAE@I@Z 00442340 f i stlport_vc6_static:time_facets.obj
 0001:00041530       ?put@?$time_put@DV?$ostreambuf_iterator@DV?$char_traits@D@_STL@@@_STL@@@_STL@@QBE?AV?$ostreambuf_iterator@DV?$char_traits@D@_STL@@@2@V32@AAVios_base@2@DPBUtm@@DD@Z 00442530 f i stlport_vc6_static:time_facets.obj
 0001:00041570       ??0?$time_put@DV?$ostreambuf_iterator@DV?$char_traits@D@_STL@@@_STL@@@_STL@@IAE@PAU_Locale_time@@I@Z 00442570 f i stlport_vc6_static:time_facets.obj
 0001:00041740       ??0?$time_get@GV?$istreambuf_iterator@GV?$char_traits@G@_STL@@@_STL@@@_STL@@QAE@I@Z 00442740 f i stlport_vc6_static:time_facets.obj
 0001:00041930       ?date_order@?$time_get@GV?$istreambuf_iterator@GV?$char_traits@G@_STL@@@_STL@@@_STL@@QBE?AW4dateorder@time_base@2@XZ 00442930 f i stlport_vc6_static:time_facets.obj
 0001:00041940       ?get_time@?$time_get@GV?$istreambuf_iterator@GV?$char_traits@G@_STL@@@_STL@@@_STL@@QBE?AV?$istreambuf_iterator@GV?$char_traits@G@_STL@@@2@V32@0AAVios_base@2@AAHPAUtm@@@Z 00442940 f i stlport_vc6_static:time_facets.obj
 0001:00041980       ?get_date@?$time_get@GV?$istreambuf_iterator@GV?$char_traits@G@_STL@@@_STL@@@_STL@@QBE?AV?$istreambuf_iterator@GV?$char_traits@G@_STL@@@2@V32@0AAVios_base@2@AAHPAUtm@@@Z 00442980 f i stlport_vc6_static:time_facets.obj
 0001:000419c0       ?get_weekday@?$time_get@GV?$istreambuf_iterator@GV?$char_traits@G@_STL@@@_STL@@@_STL@@QBE?AV?$istreambuf_iterator@GV?$char_traits@G@_STL@@@2@V32@0AAVios_base@2@AAHPAUtm@@@Z 004429c0 f i stlport_vc6_static:time_facets.obj
 0001:00041a00       ?get_monthname@?$time_get@GV?$istreambuf_iterator@GV?$char_traits@G@_STL@@@_STL@@@_STL@@QBE?AV?$istreambuf_iterator@GV?$char_traits@G@_STL@@@2@V32@0AAVios_base@2@AAHPAUtm@@@Z 00442a00 f i stlport_vc6_static:time_facets.obj
 0001:00041a40       ?get_year@?$time_get@GV?$istreambuf_iterator@GV?$char_traits@G@_STL@@@_STL@@@_STL@@QBE?AV?$istreambuf_iterator@GV?$char_traits@G@_STL@@@2@V32@0AAVios_base@2@AAHPAUtm@@@Z 00442a40 f i stlport_vc6_static:time_facets.obj
 0001:00041a80       ??0?$time_get@GV?$istreambuf_iterator@GV?$char_traits@G@_STL@@@_STL@@@_STL@@IAE@PAU_Locale_time@@I@Z 00442a80 f i stlport_vc6_static:time_facets.obj
 0001:00041c50       ??0?$time_put@GV?$ostreambuf_iterator@GV?$char_traits@G@_STL@@@_STL@@@_STL@@QAE@I@Z 00442c50 f i stlport_vc6_static:time_facets.obj
 0001:00041e40       ?put@?$time_put@GV?$ostreambuf_iterator@GV?$char_traits@G@_STL@@@_STL@@@_STL@@QBE?AV?$ostreambuf_iterator@GV?$char_traits@G@_STL@@@2@V32@AAVios_base@2@GPBUtm@@DD@Z 00442e40 f i stlport_vc6_static:time_facets.obj
 0001:00041e80       ??0?$time_put@GV?$ostreambuf_iterator@GV?$char_traits@G@_STL@@@_STL@@@_STL@@IAE@PAU_Locale_time@@I@Z 00442e80 f i stlport_vc6_static:time_facets.obj
 0001:00042050       ?copy@_STL@@YA?AV?$back_insert_iterator@V?$basic_string@DV?$char_traits@D@_STL@@V?$allocator@D@2@@_STL@@@1@PBD0V21@@Z 00443050 f i stlport_vc6_static:time_facets.obj
 0001:000420d0       ?put@?$time_put@DV?$ostreambuf_iterator@DV?$char_traits@D@_STL@@@_STL@@@_STL@@QBE?AV?$ostreambuf_iterator@DV?$char_traits@D@_STL@@@2@V32@AAVios_base@2@DPBUtm@@PBD3@Z 004430d0 f i stlport_vc6_static:time_facets.obj
 0001:00042210       ?put@?$time_put@GV?$ostreambuf_iterator@GV?$char_traits@G@_STL@@@_STL@@@_STL@@QBE?AV?$ostreambuf_iterator@GV?$char_traits@G@_STL@@@2@V32@AAVios_base@2@GPBUtm@@PBG3@Z 00443210 f i stlport_vc6_static:time_facets.obj
 0001:00042320       ?__copy_aux@_STL@@YA?AV?$back_insert_iterator@V?$basic_string@DV?$char_traits@D@_STL@@V?$allocator@D@2@@_STL@@@1@PBD0V21@ABU__false_type@1@@Z 00443320 f i stlport_vc6_static:time_facets.obj
 0001:000423a0       ?__copy@_STL@@YA?AV?$back_insert_iterator@V?$basic_string@DV?$char_traits@D@_STL@@V?$allocator@D@2@@_STL@@@1@PBD0V21@ABUrandom_access_iterator_tag@1@PAH@Z 004433a0 f i stlport_vc6_static:time_facets.obj
 0001:00042420       ?__copy@_STL@@YAPADPBD0PADABUrandom_access_iterator_tag@1@PAH@Z 00443420 f i stlport_vc6_static:time_facets.obj
 0001:00042450       ?_Initialize_get_digit@_STL@@YAXPAG0ABV?$ctype@G@1@@Z 00443450 f   stlport_vc6_static:num_get.obj
 0001:00042490       ?__get_digit@_STL@@YAHGPBG0G@Z 00443490 f   stlport_vc6_static:num_get.obj
 0001:00042590       ?__valid_grouping@_STL@@YA_NPBD000@Z 00443590 f   stlport_vc6_static:num_get.obj
 0001:000425e0       ?__get_fdigit@_STL@@YA_NAAGPBG@Z 004435e0 f   stlport_vc6_static:num_get.obj
 0001:00042670       ?__get_fdigit_or_sep@_STL@@YA_NAAGGPBG@Z 00443670 f   stlport_vc6_static:num_get.obj
 0001:000426a0       ??0?$istreambuf_iterator@GV?$char_traits@G@_STL@@@_STL@@QAE@PAV?$basic_streambuf@GV?$char_traits@G@_STL@@@1@@Z 004436a0 f i stlport_vc6_static:num_get.obj
 0001:000426c0       ??D?$istreambuf_iterator@GV?$char_traits@G@_STL@@@_STL@@QBEGXZ 004436c0 f i stlport_vc6_static:num_get.obj
 0001:00042700       ??E?$istreambuf_iterator@GV?$char_traits@G@_STL@@@_STL@@QAEAAV01@XZ 00443700 f i stlport_vc6_static:num_get.obj
 0001:00042730       ?_M_init@?$istreambuf_iterator@GV?$char_traits@G@_STL@@@_STL@@AAEXPAV?$basic_streambuf@GV?$char_traits@G@_STL@@@2@@Z 00443730 f i stlport_vc6_static:num_get.obj
 0001:00042750       ?_M_bumpc@?$istreambuf_iterator@GV?$char_traits@G@_STL@@@_STL@@AAEXXZ 00443750 f i stlport_vc6_static:num_get.obj
 0001:00042780       ??0?$num_get@GV?$istreambuf_iterator@GV?$char_traits@G@_STL@@@_STL@@@_STL@@QAE@I@Z 00443780 f i stlport_vc6_static:num_get.obj
 0001:000427a0       ?get@?$num_get@GV?$istreambuf_iterator@GV?$char_traits@G@_STL@@@_STL@@@_STL@@QBE?AV?$istreambuf_iterator@GV?$char_traits@G@_STL@@@2@V32@0AAVios_base@2@AAHAA_N@Z 004437a0 f i stlport_vc6_static:num_get.obj
 0001:000427e0       ?get@?$num_get@GV?$istreambuf_iterator@GV?$char_traits@G@_STL@@@_STL@@@_STL@@QBE?AV?$istreambuf_iterator@GV?$char_traits@G@_STL@@@2@V32@0AAVios_base@2@AAHAAJ@Z 004437e0 f i stlport_vc6_static:num_get.obj
 0001:00042820       ?get@?$num_get@GV?$istreambuf_iterator@GV?$char_traits@G@_STL@@@_STL@@@_STL@@QBE?AV?$istreambuf_iterator@GV?$char_traits@G@_STL@@@2@V32@0AAVios_base@2@AAHAAG@Z 00443820 f i stlport_vc6_static:num_get.obj
 0001:00042860       ?get@?$num_get@GV?$istreambuf_iterator@GV?$char_traits@G@_STL@@@_STL@@@_STL@@QBE?AV?$istreambuf_iterator@GV?$char_traits@G@_STL@@@2@V32@0AAVios_base@2@AAHAAI@Z 00443860 f i stlport_vc6_static:num_get.obj
 0001:000428a0       ?get@?$num_get@GV?$istreambuf_iterator@GV?$char_traits@G@_STL@@@_STL@@@_STL@@QBE?AV?$istreambuf_iterator@GV?$char_traits@G@_STL@@@2@V32@0AAVios_base@2@AAHAAK@Z 004438a0 f i stlport_vc6_static:num_get.obj
 0001:000428e0       ?get@?$num_get@GV?$istreambuf_iterator@GV?$char_traits@G@_STL@@@_STL@@@_STL@@QBE?AV?$istreambuf_iterator@GV?$char_traits@G@_STL@@@2@V32@0AAVios_base@2@AAHAA_J@Z 004438e0 f i stlport_vc6_static:num_get.obj
 0001:00042920       ?get@?$num_get@GV?$istreambuf_iterator@GV?$char_traits@G@_STL@@@_STL@@@_STL@@QBE?AV?$istreambuf_iterator@GV?$char_traits@G@_STL@@@2@V32@0AAVios_base@2@AAHAA_K@Z 00443920 f i stlport_vc6_static:num_get.obj
 0001:00042960       ?get@?$num_get@GV?$istreambuf_iterator@GV?$char_traits@G@_STL@@@_STL@@@_STL@@QBE?AV?$istreambuf_iterator@GV?$char_traits@G@_STL@@@2@V32@0AAVios_base@2@AAHAAM@Z 00443960 f i stlport_vc6_static:num_get.obj
 0001:000429a0       ?get@?$num_get@GV?$istreambuf_iterator@GV?$char_traits@G@_STL@@@_STL@@@_STL@@QBE?AV?$istreambuf_iterator@GV?$char_traits@G@_STL@@@2@V32@0AAVios_base@2@AAHAAN@Z 004439a0 f i stlport_vc6_static:num_get.obj
 0001:000429e0       ?get@?$num_get@GV?$istreambuf_iterator@GV?$char_traits@G@_STL@@@_STL@@@_STL@@QBE?AV?$istreambuf_iterator@GV?$char_traits@G@_STL@@@2@V32@0AAVios_base@2@AAHAAO@Z 004439e0 f i stlport_vc6_static:num_get.obj
 0001:00042a20       ?get@?$num_get@GV?$istreambuf_iterator@GV?$char_traits@G@_STL@@@_STL@@@_STL@@QBE?AV?$istreambuf_iterator@GV?$char_traits@G@_STL@@@2@V32@0AAVios_base@2@AAHAAPAX@Z 00443a20 f i stlport_vc6_static:num_get.obj
 0001:00042a60       ??0?$istreambuf_iterator@DV?$char_traits@D@_STL@@@_STL@@QAE@PAV?$basic_streambuf@DV?$char_traits@D@_STL@@@1@@Z 00443a60 f i stlport_vc6_static:num_get.obj
 0001:00042a80       ??D?$istreambuf_iterator@DV?$char_traits@D@_STL@@@_STL@@QBEDXZ 00443a80 f i stlport_vc6_static:num_get.obj
 0001:00042ac0       ??E?$istreambuf_iterator@DV?$char_traits@D@_STL@@@_STL@@QAEAAV01@XZ 00443ac0 f i stlport_vc6_static:num_get.obj
 0001:00042af0       ?_M_init@?$istreambuf_iterator@DV?$char_traits@D@_STL@@@_STL@@AAEXPAV?$basic_streambuf@DV?$char_traits@D@_STL@@@2@@Z 00443af0 f i stlport_vc6_static:num_get.obj
 0001:00042b10       ?_M_bumpc@?$istreambuf_iterator@DV?$char_traits@D@_STL@@@_STL@@AAEXXZ 00443b10 f i stlport_vc6_static:num_get.obj
 0001:00042b40       ??0?$num_get@DV?$istreambuf_iterator@DV?$char_traits@D@_STL@@@_STL@@@_STL@@QAE@I@Z 00443b40 f i stlport_vc6_static:num_get.obj
 0001:00042b60       ?get@?$num_get@DV?$istreambuf_iterator@DV?$char_traits@D@_STL@@@_STL@@@_STL@@QBE?AV?$istreambuf_iterator@DV?$char_traits@D@_STL@@@2@V32@0AAVios_base@2@AAHAA_N@Z 00443b60 f i stlport_vc6_static:num_get.obj
 0001:00042ba0       ?get@?$num_get@DV?$istreambuf_iterator@DV?$char_traits@D@_STL@@@_STL@@@_STL@@QBE?AV?$istreambuf_iterator@DV?$char_traits@D@_STL@@@2@V32@0AAVios_base@2@AAHAAJ@Z 00443ba0 f i stlport_vc6_static:num_get.obj
 0001:00042be0       ?get@?$num_get@DV?$istreambuf_iterator@DV?$char_traits@D@_STL@@@_STL@@@_STL@@QBE?AV?$istreambuf_iterator@DV?$char_traits@D@_STL@@@2@V32@0AAVios_base@2@AAHAAG@Z 00443be0 f i stlport_vc6_static:num_get.obj
 0001:00042c20       ?get@?$num_get@DV?$istreambuf_iterator@DV?$char_traits@D@_STL@@@_STL@@@_STL@@QBE?AV?$istreambuf_iterator@DV?$char_traits@D@_STL@@@2@V32@0AAVios_base@2@AAHAAI@Z 00443c20 f i stlport_vc6_static:num_get.obj
 0001:00042c60       ?get@?$num_get@DV?$istreambuf_iterator@DV?$char_traits@D@_STL@@@_STL@@@_STL@@QBE?AV?$istreambuf_iterator@DV?$char_traits@D@_STL@@@2@V32@0AAVios_base@2@AAHAAK@Z 00443c60 f i stlport_vc6_static:num_get.obj
 0001:00042ca0       ?get@?$num_get@DV?$istreambuf_iterator@DV?$char_traits@D@_STL@@@_STL@@@_STL@@QBE?AV?$istreambuf_iterator@DV?$char_traits@D@_STL@@@2@V32@0AAVios_base@2@AAHAA_J@Z 00443ca0 f i stlport_vc6_static:num_get.obj
 0001:00042ce0       ?get@?$num_get@DV?$istreambuf_iterator@DV?$char_traits@D@_STL@@@_STL@@@_STL@@QBE?AV?$istreambuf_iterator@DV?$char_traits@D@_STL@@@2@V32@0AAVios_base@2@AAHAA_K@Z 00443ce0 f i stlport_vc6_static:num_get.obj
 0001:00042d20       ?get@?$num_get@DV?$istreambuf_iterator@DV?$char_traits@D@_STL@@@_STL@@@_STL@@QBE?AV?$istreambuf_iterator@DV?$char_traits@D@_STL@@@2@V32@0AAVios_base@2@AAHAAM@Z 00443d20 f i stlport_vc6_static:num_get.obj
 0001:00042d60       ?get@?$num_get@DV?$istreambuf_iterator@DV?$char_traits@D@_STL@@@_STL@@@_STL@@QBE?AV?$istreambuf_iterator@DV?$char_traits@D@_STL@@@2@V32@0AAVios_base@2@AAHAAN@Z 00443d60 f i stlport_vc6_static:num_get.obj
 0001:00042da0       ?get@?$num_get@DV?$istreambuf_iterator@DV?$char_traits@D@_STL@@@_STL@@@_STL@@QBE?AV?$istreambuf_iterator@DV?$char_traits@D@_STL@@@2@V32@0AAVios_base@2@AAHAAO@Z 00443da0 f i stlport_vc6_static:num_get.obj
 0001:00042de0       ?get@?$num_get@DV?$istreambuf_iterator@DV?$char_traits@D@_STL@@@_STL@@@_STL@@QBE?AV?$istreambuf_iterator@DV?$char_traits@D@_STL@@@2@V32@0AAVios_base@2@AAHAAPAX@Z 00443de0 f i stlport_vc6_static:num_get.obj
 0001:00042e20       ??0?$istreambuf_iterator@GV?$char_traits@G@_STL@@@_STL@@QAE@AAV?$basic_istream@GV?$char_traits@G@_STL@@@1@@Z 00443e20 f i stlport_vc6_static:num_get.obj
 0001:00042e40       ??0?$istreambuf_iterator@DV?$char_traits@D@_STL@@@_STL@@QAE@AAV?$basic_istream@DV?$char_traits@D@_STL@@@1@@Z 00443e40 f i stlport_vc6_static:num_get.obj
 0001:00042e60       ?__write_integer@_STL@@YAPADPADHJ@Z 00443e60 f   stlport_vc6_static:num_put.obj
 0001:00042fd0       ?__insert_grouping@_STL@@YAHPAD0ABV?$basic_string@DV?$char_traits@D@_STL@@V?$allocator@D@2@@1@DDDH@Z 00443fd0 f   stlport_vc6_static:num_put.obj
 0001:00043080       ?__insert_grouping@_STL@@YAHPAG0ABV?$basic_string@DV?$char_traits@D@_STL@@V?$allocator@D@2@@1@GGGH@Z 00444080 f   stlport_vc6_static:num_put.obj
 0001:00043140       ??0?$ostreambuf_iterator@DV?$char_traits@D@_STL@@@_STL@@QAE@PAV?$basic_streambuf@DV?$char_traits@D@_STL@@@1@@Z 00444140 f i stlport_vc6_static:num_put.obj
 0001:00043160       ??D?$ostreambuf_iterator@DV?$char_traits@D@_STL@@@_STL@@QAEAAV01@XZ 00444160 f i stlport_vc6_static:num_put.obj
 0001:00043170       ??E?$ostreambuf_iterator@DV?$char_traits@D@_STL@@@_STL@@QAEAAV01@XZ 00444170 f i stlport_vc6_static:num_put.obj
 0001:00043180       ??E?$ostreambuf_iterator@DV?$char_traits@D@_STL@@@_STL@@QAEAAV01@H@Z 00444180 f i stlport_vc6_static:num_put.obj
 0001:00043190       ?failed@?$ostreambuf_iterator@DV?$char_traits@D@_STL@@@_STL@@QBE_NXZ 00444190 f i stlport_vc6_static:num_put.obj
 0001:000431a0       ??0?$num_put@DV?$ostreambuf_iterator@DV?$char_traits@D@_STL@@@_STL@@@_STL@@QAE@I@Z 004441a0 f i stlport_vc6_static:num_put.obj
 0001:000431c0       ?put@?$num_put@DV?$ostreambuf_iterator@DV?$char_traits@D@_STL@@@_STL@@@_STL@@QBE?AV?$ostreambuf_iterator@DV?$char_traits@D@_STL@@@2@V32@AAVios_base@2@D_N@Z 004441c0 f i stlport_vc6_static:num_put.obj
 0001:000431f0       ?put@?$num_put@DV?$ostreambuf_iterator@DV?$char_traits@D@_STL@@@_STL@@@_STL@@QBE?AV?$ostreambuf_iterator@DV?$char_traits@D@_STL@@@2@V32@AAVios_base@2@DJ@Z 004441f0 f i stlport_vc6_static:num_put.obj
 0001:00043220       ?put@?$num_put@DV?$ostreambuf_iterator@DV?$char_traits@D@_STL@@@_STL@@@_STL@@QBE?AV?$ostreambuf_iterator@DV?$char_traits@D@_STL@@@2@V32@AAVios_base@2@DK@Z 00444220 f i stlport_vc6_static:num_put.obj
 0001:00043250       ?put@?$num_put@DV?$ostreambuf_iterator@DV?$char_traits@D@_STL@@@_STL@@@_STL@@QBE?AV?$ostreambuf_iterator@DV?$char_traits@D@_STL@@@2@V32@AAVios_base@2@D_J@Z 00444250 f i stlport_vc6_static:num_put.obj
 0001:00043280       ?put@?$num_put@DV?$ostreambuf_iterator@DV?$char_traits@D@_STL@@@_STL@@@_STL@@QBE?AV?$ostreambuf_iterator@DV?$char_traits@D@_STL@@@2@V32@AAVios_base@2@D_K@Z 00444280 f i stlport_vc6_static:num_put.obj
 0001:000432b0       ?put@?$num_put@DV?$ostreambuf_iterator@DV?$char_traits@D@_STL@@@_STL@@@_STL@@QBE?AV?$ostreambuf_iterator@DV?$char_traits@D@_STL@@@2@V32@AAVios_base@2@DN@Z 004442b0 f i stlport_vc6_static:num_put.obj
 0001:000432e0       ?put@?$num_put@DV?$ostreambuf_iterator@DV?$char_traits@D@_STL@@@_STL@@@_STL@@QBE?AV?$ostreambuf_iterator@DV?$char_traits@D@_STL@@@2@V32@AAVios_base@2@DO@Z 004442e0 f i stlport_vc6_static:num_put.obj
 0001:00043310       ?put@?$num_put@DV?$ostreambuf_iterator@DV?$char_traits@D@_STL@@@_STL@@@_STL@@QBE?AV?$ostreambuf_iterator@DV?$char_traits@D@_STL@@@2@V32@AAVios_base@2@DPBX@Z 00444310 f i stlport_vc6_static:num_put.obj
 0001:00043340       ??0?$ostreambuf_iterator@GV?$char_traits@G@_STL@@@_STL@@QAE@PAV?$basic_streambuf@GV?$char_traits@G@_STL@@@1@@Z 00444340 f i stlport_vc6_static:num_put.obj
 0001:00043360       ??D?$ostreambuf_iterator@GV?$char_traits@G@_STL@@@_STL@@QAEAAV01@XZ 00444360 f i stlport_vc6_static:num_put.obj
 0001:00043370       ??E?$ostreambuf_iterator@GV?$char_traits@G@_STL@@@_STL@@QAEAAV01@XZ 00444370 f i stlport_vc6_static:num_put.obj
 0001:00043380       ??E?$ostreambuf_iterator@GV?$char_traits@G@_STL@@@_STL@@QAEAAV01@H@Z 00444380 f i stlport_vc6_static:num_put.obj
 0001:00043390       ?failed@?$ostreambuf_iterator@GV?$char_traits@G@_STL@@@_STL@@QBE_NXZ 00444390 f i stlport_vc6_static:num_put.obj
 0001:000433a0       ??0?$num_put@GV?$ostreambuf_iterator@GV?$char_traits@G@_STL@@@_STL@@@_STL@@QAE@I@Z 004443a0 f i stlport_vc6_static:num_put.obj
 0001:000433c0       ?put@?$num_put@GV?$ostreambuf_iterator@GV?$char_traits@G@_STL@@@_STL@@@_STL@@QBE?AV?$ostreambuf_iterator@GV?$char_traits@G@_STL@@@2@V32@AAVios_base@2@G_N@Z 004443c0 f i stlport_vc6_static:num_put.obj
 0001:000433f0       ?put@?$num_put@GV?$ostreambuf_iterator@GV?$char_traits@G@_STL@@@_STL@@@_STL@@QBE?AV?$ostreambuf_iterator@GV?$char_traits@G@_STL@@@2@V32@AAVios_base@2@GJ@Z 004443f0 f i stlport_vc6_static:num_put.obj
 0001:00043420       ?put@?$num_put@GV?$ostreambuf_iterator@GV?$char_traits@G@_STL@@@_STL@@@_STL@@QBE?AV?$ostreambuf_iterator@GV?$char_traits@G@_STL@@@2@V32@AAVios_base@2@GK@Z 00444420 f i stlport_vc6_static:num_put.obj
 0001:00043450       ?put@?$num_put@GV?$ostreambuf_iterator@GV?$char_traits@G@_STL@@@_STL@@@_STL@@QBE?AV?$ostreambuf_iterator@GV?$char_traits@G@_STL@@@2@V32@AAVios_base@2@G_J@Z 00444450 f i stlport_vc6_static:num_put.obj
 0001:00043480       ?put@?$num_put@GV?$ostreambuf_iterator@GV?$char_traits@G@_STL@@@_STL@@@_STL@@QBE?AV?$ostreambuf_iterator@GV?$char_traits@G@_STL@@@2@V32@AAVios_base@2@G_K@Z 00444480 f i stlport_vc6_static:num_put.obj
 0001:000434b0       ?put@?$num_put@GV?$ostreambuf_iterator@GV?$char_traits@G@_STL@@@_STL@@@_STL@@QBE?AV?$ostreambuf_iterator@GV?$char_traits@G@_STL@@@2@V32@AAVios_base@2@GN@Z 004444b0 f i stlport_vc6_static:num_put.obj
 0001:000434e0       ?put@?$num_put@GV?$ostreambuf_iterator@GV?$char_traits@G@_STL@@@_STL@@@_STL@@QBE?AV?$ostreambuf_iterator@GV?$char_traits@G@_STL@@@2@V32@AAVios_base@2@GO@Z 004444e0 f i stlport_vc6_static:num_put.obj
 0001:00043510       ?put@?$num_put@GV?$ostreambuf_iterator@GV?$char_traits@G@_STL@@@_STL@@@_STL@@QBE?AV?$ostreambuf_iterator@GV?$char_traits@G@_STL@@@2@V32@AAVios_base@2@GPBX@Z 00444510 f i stlport_vc6_static:num_put.obj
 0001:00043540       ??0?$ostreambuf_iterator@DV?$char_traits@D@_STL@@@_STL@@QAE@AAV?$basic_ostream@DV?$char_traits@D@_STL@@@1@@Z 00444540 f i stlport_vc6_static:num_put.obj
 0001:00043560       ??0?$ostreambuf_iterator@GV?$char_traits@G@_STL@@@_STL@@QAE@AAV?$basic_ostream@GV?$char_traits@G@_STL@@@1@@Z 00444560 f i stlport_vc6_static:num_put.obj
 0001:00043580       ?_Initialize_get_float@_STL@@YAXABV?$ctype@G@1@AAG111PAG@Z 00444580 f   stlport_vc6_static:num_get_float.obj
 0001:00043610       ?_Stl_mult64@_STL@@YAX_K0AA_K1@Z 00444610 f   stlport_vc6_static:num_get_float.obj
 0001:000436c0       ?_Stl_norm_and_round@_STL@@YAXAA_KAAH_K2@Z 004446c0 f   stlport_vc6_static:num_get_float.obj
 0001:000437c0       ?_Stl_tenscale@_STL@@YAXAA_KHAAH@Z 004447c0 f   stlport_vc6_static:num_get_float.obj
 0001:00043960       ?_Stl_atod@_STL@@YANPADHH@Z 00444960 f   stlport_vc6_static:num_get_float.obj
 0001:00043c30       ?_Stl_string_to_double@_STL@@YANPBD@Z 00444c30 f   stlport_vc6_static:num_get_float.obj
 0001:00043da0       ?_Stl_string_to_long_double@_STL@@YAOPBD@Z 00444da0 f   stlport_vc6_static:num_get_float.obj
 0001:00043f20       ?__string_to_float@_STL@@YAXABV?$basic_string@DV?$char_traits@D@_STL@@V?$allocator@D@2@@1@AAM@Z 00444f20 f   stlport_vc6_static:num_get_float.obj
 0001:00043f40       ?__string_to_float@_STL@@YAXABV?$basic_string@DV?$char_traits@D@_STL@@V?$allocator@D@2@@1@AAN@Z 00444f40 f   stlport_vc6_static:num_get_float.obj
 0001:00043f60       ?__string_to_float@_STL@@YAXABV?$basic_string@DV?$char_traits@D@_STL@@V?$allocator@D@2@@1@AAO@Z 00444f60 f   stlport_vc6_static:num_get_float.obj
 0001:00043f80       ?__format_float_scientific@_STL@@YAXPADPBDHH_NHH2@Z 00444f80 f   stlport_vc6_static:num_put_float.obj
 0001:00044090       ?__format_float_fixed@_STL@@YAXPADPBDHH_NHH2@Z 00445090 f   stlport_vc6_static:num_put_float.obj
 0001:00044190       ?__format_nan_or_inf@_STL@@YAXPADNH@Z 00445190 f   stlport_vc6_static:num_put_float.obj
 0001:00044250       ?__write_float@_STL@@YAPADPADHHN@Z 00445250 f   stlport_vc6_static:num_put_float.obj
 0001:00044480       ?__write_float@_STL@@YAPADPADHHO@Z 00445480 f   stlport_vc6_static:num_put_float.obj
 0001:000446b0       ?__convert_float_buffer@_STL@@YAPAGPBD0PAGABV?$ctype@G@1@G@Z 004456b0 f   stlport_vc6_static:num_put_float.obj
 0001:00044710       ?__adjust_float_buffer@_STL@@YAXPAD0D@Z 00445710 f   stlport_vc6_static:num_put_float.obj
 0001:00044730       ??0stdio_streambuf_base@_SgI@@QAE@PAU_iobuf@@@Z 00445730 f   stlport_vc6_static:stdio_streambuf.obj
 0001:00044750       ??_Estdio_streambuf_base@_SgI@@UAEPAXI@Z 00445750 f i stlport_vc6_static:stdio_streambuf.obj
 0001:00044750       ??_Gstdio_streambuf_base@_SgI@@UAEPAXI@Z 00445750 f i stlport_vc6_static:stdio_streambuf.obj
 0001:00044770       ??1stdio_streambuf_base@_SgI@@UAE@XZ 00445770 f   stlport_vc6_static:stdio_streambuf.obj
 0001:00044790       ?setbuf@stdio_streambuf_base@_SgI@@MAEPAV?$basic_streambuf@DV?$char_traits@D@_STL@@@_STL@@PADH@Z 00445790 f   stlport_vc6_static:stdio_streambuf.obj
 0001:000447d0       ?seekoff@stdio_streambuf_base@_SgI@@MAE?AV?$fpos@H@_STL@@JHH@Z 004457d0 f   stlport_vc6_static:stdio_streambuf.obj
 0001:00044850       ?seekpos@stdio_streambuf_base@_SgI@@MAE?AV?$fpos@H@_STL@@V34@H@Z 00445850 f   stlport_vc6_static:stdio_streambuf.obj
 0001:000448a0       ?sync@stdio_streambuf_base@_SgI@@MAEHXZ 004458a0 f   stlport_vc6_static:stdio_streambuf.obj
 0001:000448c0       ??1stdio_istreambuf@_SgI@@UAE@XZ 004458c0 f   stlport_vc6_static:stdio_streambuf.obj
 0001:000448d0       ?showmanyc@stdio_istreambuf@_SgI@@MAEHXZ 004458d0 f   stlport_vc6_static:stdio_streambuf.obj
 0001:00044950       ?underflow@stdio_istreambuf@_SgI@@MAEHXZ 00445950 f   stlport_vc6_static:stdio_streambuf.obj
 0001:00044980       ?uflow@stdio_istreambuf@_SgI@@MAEHXZ 00445980 f   stlport_vc6_static:stdio_streambuf.obj
 0001:000449a0       ?pbackfail@stdio_istreambuf@_SgI@@MAEHH@Z 004459a0 f   stlport_vc6_static:stdio_streambuf.obj
 0001:000449e0       ??1stdio_ostreambuf@_SgI@@UAE@XZ 004459e0 f   stlport_vc6_static:stdio_streambuf.obj
 0001:000449f0       ?showmanyc@stdio_ostreambuf@_SgI@@MAEHXZ 004459f0 f   stlport_vc6_static:stdio_streambuf.obj
 0001:00044a00       ?overflow@stdio_ostreambuf@_SgI@@MAEHH@Z 00445a00 f   stlport_vc6_static:stdio_streambuf.obj
 0001:00044a60       __Locale_ctype_create      00445a60 f   stlport_vc6_static:c_locale.obj
 0001:00044ee0       __Locale_numeric_create    00445ee0 f   stlport_vc6_static:c_locale.obj
 0001:00044fd0       __Locale_time_create       00445fd0 f   stlport_vc6_static:c_locale.obj
 0001:000451f0       __Locale_collate_create    004461f0 f   stlport_vc6_static:c_locale.obj
 0001:00045270       __Locale_monetary_create   00446270 f   stlport_vc6_static:c_locale.obj
 0001:00045410       __Locale_messages_create   00446410 f   stlport_vc6_static:c_locale.obj
 0001:00045430       __Locale_common_default    00446430 f   stlport_vc6_static:c_locale.obj
 0001:00045500       __Locale_ctype_default     00446500 f   stlport_vc6_static:c_locale.obj
 0001:00045510       __Locale_numeric_default   00446510 f   stlport_vc6_static:c_locale.obj
 0001:00045520       __Locale_time_default      00446520 f   stlport_vc6_static:c_locale.obj
 0001:00045530       __Locale_collate_default   00446530 f   stlport_vc6_static:c_locale.obj
 0001:00045540       __Locale_monetary_default  00446540 f   stlport_vc6_static:c_locale.obj
 0001:00045550       __Locale_messages_default  00446550 f   stlport_vc6_static:c_locale.obj
 0001:00045560       __Locale_ctype_name        00446560 f   stlport_vc6_static:c_locale.obj
 0001:00045590       __Locale_numeric_name      00446590 f   stlport_vc6_static:c_locale.obj
 0001:000455b0       __Locale_time_name         004465b0 f   stlport_vc6_static:c_locale.obj
 0001:000455d0       __Locale_collate_name      004465d0 f   stlport_vc6_static:c_locale.obj
 0001:000455f0       __Locale_monetary_name     004465f0 f   stlport_vc6_static:c_locale.obj
 0001:00045610       __Locale_messages_name     00446610 f   stlport_vc6_static:c_locale.obj
 0001:00045630       __Locale_ctype_destroy     00446630 f   stlport_vc6_static:c_locale.obj
 0001:00045640       __Locale_numeric_destroy   00446640 f   stlport_vc6_static:c_locale.obj
 0001:00045670       __Locale_time_destroy      00446670 f   stlport_vc6_static:c_locale.obj
 0001:000456f0       __Locale_collate_destroy   004466f0 f   stlport_vc6_static:c_locale.obj
 0001:00045700       __Locale_monetary_destroy  00446700 f   stlport_vc6_static:c_locale.obj
 0001:00045730       __Locale_messages_destroy  00446730 f   stlport_vc6_static:c_locale.obj
 0001:00045740       __Locale_extract_ctype_name 00446740 f   stlport_vc6_static:c_locale.obj
 0001:000457c0       __Locale_extract_numeric_name 004467c0 f   stlport_vc6_static:c_locale.obj
 0001:00045840       __Locale_extract_time_name 00446840 f   stlport_vc6_static:c_locale.obj
 0001:000458c0       __Locale_extract_collate_name 004468c0 f   stlport_vc6_static:c_locale.obj
 0001:00045940       __Locale_extract_monetary_name 00446940 f   stlport_vc6_static:c_locale.obj
 0001:000459c0       __Locale_extract_messages_name 004469c0 f   stlport_vc6_static:c_locale.obj
 0001:00045a10       __Locale_compose_name      00446a10 f   stlport_vc6_static:c_locale.obj
 0001:00045e30       __Locale_ctype_table       00446e30 f   stlport_vc6_static:c_locale.obj
 0001:00045e40       __Locale_toupper           00446e40 f   stlport_vc6_static:c_locale.obj
 0001:00045f40       __Locale_tolower           00446f40 f   stlport_vc6_static:c_locale.obj
 0001:00046040       __Locale_wchar_ctype       00447040 f   stlport_vc6_static:c_locale.obj
 0001:00046080       __Locale_wchar_tolower     00447080 f   stlport_vc6_static:c_locale.obj
 0001:000460b0       __Locale_wchar_toupper     004470b0 f   stlport_vc6_static:c_locale.obj
 0001:000460e0       __Locale_mb_cur_max        004470e0 f   stlport_vc6_static:c_locale.obj
 0001:00046110       __Locale_mb_cur_min        00447110 f   stlport_vc6_static:c_locale.obj
 0001:00046120       __Locale_is_stateless      00447120 f   stlport_vc6_static:c_locale.obj
 0001:00046150       __Locale_btowc             00447150 f   stlport_vc6_static:c_locale.obj
 0001:00046180       __Locale_wctob             00447180 f   stlport_vc6_static:c_locale.obj
 0001:000461c0       __Locale_mbtowc            004471c0 f   stlport_vc6_static:c_locale.obj
 0001:00046360       __Locale_wctomb            00447360 f   stlport_vc6_static:c_locale.obj
 0001:000463c0       __Locale_unshift           004473c0 f   stlport_vc6_static:c_locale.obj
 0001:00046400       __Locale_strcmp            00447400 f   stlport_vc6_static:c_locale.obj
 0001:000464f0       __Locale_strwcmp           004474f0 f   stlport_vc6_static:c_locale.obj
 0001:00046530       __Locale_strxfrm           00447530 f   stlport_vc6_static:c_locale.obj
 0001:000465e0       __Locale_strwxfrm          004475e0 f   stlport_vc6_static:c_locale.obj
 0001:00046610       __Locale_decimal_point     00447610 f   stlport_vc6_static:c_locale.obj
 0001:00046620       __Locale_thousands_sep     00447620 f   stlport_vc6_static:c_locale.obj
 0001:00046630       __Locale_grouping          00447630 f   stlport_vc6_static:c_locale.obj
 0001:00046650       __Locale_true              00447650 f   stlport_vc6_static:c_locale.obj
 0001:00046660       __Locale_false             00447660 f   stlport_vc6_static:c_locale.obj
 0001:00046670       __Locale_int_curr_symbol   00447670 f   stlport_vc6_static:c_locale.obj
 0001:00046680       __Locale_currency_symbol   00447680 f   stlport_vc6_static:c_locale.obj
 0001:00046690       __Locale_mon_decimal_point 00447690 f   stlport_vc6_static:c_locale.obj
 0001:000466a0       __Locale_mon_thousands_sep 004476a0 f   stlport_vc6_static:c_locale.obj
 0001:000466b0       __Locale_mon_grouping      004476b0 f   stlport_vc6_static:c_locale.obj
 0001:000466d0       __Locale_positive_sign     004476d0 f   stlport_vc6_static:c_locale.obj
 0001:000466e0       __Locale_negative_sign     004476e0 f   stlport_vc6_static:c_locale.obj
 0001:000466f0       __Locale_int_frac_digits   004476f0 f   stlport_vc6_static:c_locale.obj
 0001:00046700       __Locale_frac_digits       00447700 f   stlport_vc6_static:c_locale.obj
 0001:00046710       __Locale_p_cs_precedes     00447710 f   stlport_vc6_static:c_locale.obj
 0001:00046740       __Locale_p_sep_by_space    00447740 f   stlport_vc6_static:c_locale.obj
 0001:00046770       __Locale_p_sign_posn       00447770 f   stlport_vc6_static:c_locale.obj
 0001:000467a0       __Locale_n_cs_precedes     004477a0 f   stlport_vc6_static:c_locale.obj
 0001:000467d0       __Locale_n_sep_by_space    004477d0 f   stlport_vc6_static:c_locale.obj
 0001:00046800       __Locale_n_sign_posn       00447800 f   stlport_vc6_static:c_locale.obj
 0001:00046830       __Locale_full_monthname    00447830 f   stlport_vc6_static:c_locale.obj
 0001:00046840       __Locale_abbrev_monthname  00447840 f   stlport_vc6_static:c_locale.obj
 0001:00046850       __Locale_full_dayofweek    00447850 f   stlport_vc6_static:c_locale.obj
 0001:00046860       __Locale_abbrev_dayofweek  00447860 f   stlport_vc6_static:c_locale.obj
 0001:00046870       __Locale_d_t_fmt           00447870 f   stlport_vc6_static:c_locale.obj
 0001:00046910       __Locale_long_d_t_fmt      00447910 f   stlport_vc6_static:c_locale.obj
 0001:000469b0       ___ConvertDate             004479b0 f   stlport_vc6_static:c_locale.obj
 0001:00046b50       __Locale_d_fmt             00447b50 f   stlport_vc6_static:c_locale.obj
 0001:00046b90       __Locale_long_d_fmt        00447b90 f   stlport_vc6_static:c_locale.obj
 0001:00046bd0       __Locale_t_fmt             00447bd0 f   stlport_vc6_static:c_locale.obj
 0001:00046d80       __Locale_am_str            00447d80 f   stlport_vc6_static:c_locale.obj
 0001:00046dc0       __Locale_pm_str            00447dc0 f   stlport_vc6_static:c_locale.obj
 0001:00046e00       __Locale_t_fmt_ampm        00447e00 f   stlport_vc6_static:c_locale.obj
 0001:00046f00       __Locale_catopen           00447f00 f   stlport_vc6_static:c_locale.obj
 0001:00046f10       __Locale_catclose          00447f10 f   stlport_vc6_static:c_locale.obj
 0001:00046f20       __Locale_catgets           00447f20 f   stlport_vc6_static:c_locale.obj
 0001:000477d0       ??3@YAXPAX@Z               004487d0 f   libcpmt:delop.obj
 0001:000477dc       _inet_addr@4               004487dc f   ws2_32:WS2_32.dll
 0001:000477e2       _WSAGetLastError@0         004487e2 f   ws2_32:WS2_32.dll
 0001:000477e8       _WSAStartup@8              004487e8 f   ws2_32:WS2_32.dll
 0001:000477ee       _WSACleanup@0              004487ee f   ws2_32:WS2_32.dll
 0001:000477f4       _gethostbyname@4           004487f4 f   ws2_32:WS2_32.dll
 0001:000477fa       _gethostname@8             004487fa f   ws2_32:WS2_32.dll
 0001:00047800       _atol                      00448800 f   LIBCMT:atox.obj
 0001:0004788b       _atoi                      0044888b f   LIBCMT:atox.obj
 0001:00047896       __atoi64                   00448896 f   LIBCMT:atox.obj
 0001:00047950       __onexit                   00448950 f   LIBCMT:onexit.obj
 0001:000479ce       _atexit                    004489ce f   LIBCMT:onexit.obj
 0001:000479e0       ___onexitinit              004489e0 f   LIBCMT:onexit.obj
 0001:00047a0f       ?_JumpToContinuation@@YGXPAXPAUEHRegistrationNode@@@Z 00448a0f f   LIBCMT:trnsctrl.obj
 0001:00047a43       ?_CallMemberFunction0@@YGXPAX0@Z 00448a43 f   LIBCMT:trnsctrl.obj
 0001:00047a4a       ?_CallMemberFunction1@@YGXPAX00@Z 00448a4a f   LIBCMT:trnsctrl.obj
 0001:00047a51       ?_CallMemberFunction2@@YGXPAX00H@Z 00448a51 f   LIBCMT:trnsctrl.obj
 0001:00047a58       ?_UnwindNestedFrames@@YGXPAUEHRegistrationNode@@PAUEHExceptionRecord@@@Z 00448a58 f   LIBCMT:trnsctrl.obj
 0001:00047aa7       ___CxxFrameHandler         00448aa7 f   LIBCMT:trnsctrl.obj
 0001:00047add       ___CxxLongjmpUnwind@4      00448add f   LIBCMT:trnsctrl.obj
 0001:00047af7       ?_CallCatchBlock2@@YAPAXPAUEHRegistrationNode@@PBU_s_FuncInfo@@PAXHK@Z 00448af7 f   LIBCMT:trnsctrl.obj
 0001:00047b70       ?_CallSETranslator@@YAHPAUEHExceptionRecord@@PAUEHRegistrationNode@@PAX2PBU_s_FuncInfo@@H1@Z 00448b70 f   LIBCMT:trnsctrl.obj
 0001:00047c9b       ?_GetRangeOfTrysToCheck@@YAPBU_s_TryBlockMapEntry@@PBU_s_FuncInfo@@HHPAI1@Z 00448c9b f   LIBCMT:trnsctrl.obj
 0001:00047d18       __global_unwind2           00448d18 f   LIBCMT:exsup.obj
 0001:00047d5a       __local_unwind2            00448d5a f   LIBCMT:exsup.obj
 0001:00047db2       __NLG_Return2              00448db2 f   LIBCMT:exsup.obj
 0001:00047dc2       __abnormal_termination     00448dc2 f   LIBCMT:exsup.obj
 0001:00047de5       __NLG_Notify1              00448de5 f   LIBCMT:exsup.obj
 0001:00047dee       __NLG_Notify               00448dee f   LIBCMT:exsup.obj
 0001:00047e01       __NLG_Dispatch             00448e01 f   LIBCMT:exsup.obj
 0001:00047e06       _printf                    00448e06 f   LIBCMT:printf.obj
 0001:00047e47       ??2@YAPAXI@Z               00448e47 f   LIBCMT:new.obj
 0001:00047e55       _fclose                    00448e55 f   LIBCMT:fclose.obj
 0001:00047e86       __fclose_lk                00448e86 f   LIBCMT:fclose.obj
 0001:00047ed2       _fwrite                    00448ed2 f   LIBCMT:fwrite.obj
 0001:00047f01       __fwrite_lk                00448f01 f   LIBCMT:fwrite.obj
 0001:0004800b       _sprintf                   0044900b f   LIBCMT:sprintf.obj
 0001:0004805d       __fsopen                   0044905d f   LIBCMT:fopen.obj
 0001:0004808e       _fopen                     0044908e f   LIBCMT:fopen.obj
 0001:000480b0       __chkstk                   004490b0 f   LIBCMT:chkstk.obj
 0001:000480b0       __alloca_probe             004490b0 f   LIBCMT:chkstk.obj
 0001:000480df       __CxxThrowException@8      004490df f   LIBCMT:throw.obj
 0001:00048119       _mainCRTStartup            00449119 f   LIBCMT:crt0.obj
 0001:00048209       __amsg_exit                00449209 f   LIBCMT:crt0.obj
 0001:00048260       _memmove                   00449260 f   LIBCMT:memmove.obj
 0001:00048595       ??1type_info@@UAE@XZ       00449595 f   LIBCMT:typinfo.obj
 0001:000485be       ??_Etype_info@@UAEPAXI@Z   004495be f i LIBCMT:typinfo.obj
 0001:000485be       ??_Gtype_info@@UAEPAXI@Z   004495be f i LIBCMT:typinfo.obj
 0001:000485da       ??8type_info@@QBEHABV0@@Z  004495da f   LIBCMT:typinfo.obj
 0001:000485f5       ??9type_info@@QBEHABV0@@Z  004495f5 f   LIBCMT:typinfo.obj
 0001:00048611       ?before@type_info@@QBEHABV1@@Z 00449611 f   LIBCMT:typinfo.obj
 0001:00048630       ?raw_name@type_info@@QBEPBDXZ 00449630 f   LIBCMT:typinfo.obj
 0001:00048634       ??0type_info@@AAE@ABV0@@Z  00449634 f   LIBCMT:typinfo.obj
 0001:0004863f       ??4type_info@@AAEAAV0@ABV0@@Z 0044963f f   LIBCMT:typinfo.obj
 0001:00048644       __toupper                  00449644 f   LIBCMT:toupper.obj
 0001:0004864c       _toupper                   0044964c f   LIBCMT:toupper.obj
 0001:000486bb       __toupper_lk               004496bb f   LIBCMT:toupper.obj
 0001:00048787       _isalpha                   00449787 f   LIBCMT:_ctype.obj
 0001:000487b5       _isupper                   004497b5 f   LIBCMT:_ctype.obj
 0001:000487dd       _islower                   004497dd f   LIBCMT:_ctype.obj
 0001:00048805       _isdigit                   00449805 f   LIBCMT:_ctype.obj
 0001:0004882d       _isxdigit                  0044982d f   LIBCMT:_ctype.obj
 0001:0004885a       _isspace                   0044985a f   LIBCMT:_ctype.obj
 0001:00048882       _ispunct                   00449882 f   LIBCMT:_ctype.obj
 0001:000488aa       _isalnum                   004498aa f   LIBCMT:_ctype.obj
 0001:000488d8       _isprint                   004498d8 f   LIBCMT:_ctype.obj
 0001:00048906       _isgraph                   00449906 f   LIBCMT:_ctype.obj
 0001:00048934       _iscntrl                   00449934 f   LIBCMT:_ctype.obj
 0001:0004895c       ___isascii                 0044995c f   LIBCMT:_ctype.obj
 0001:00048969       ___toascii                 00449969 f   LIBCMT:_ctype.obj
 0001:00048971       ___iscsymf                 00449971 f   LIBCMT:_ctype.obj
 0001:000489ae       ___iscsym                  004499ae f   LIBCMT:_ctype.obj
 0001:000489eb       _strtok                    004499eb f   LIBCMT:strtok.obj
 0001:00048a8f       _free                      00449a8f f   LIBCMT:free.obj
 0001:00048b78       _malloc                    00449b78 f   LIBCMT:malloc.obj
 0001:00048b8a       __nh_malloc                00449b8a f   LIBCMT:malloc.obj
 0001:00048bb6       __heap_alloc               00449bb6 f   LIBCMT:malloc.obj
 0001:00048cb2       ??0exception@@QAE@XZ       00449cb2 f   LIBCMT:stdexcpt.obj
 0001:00048cc3       ??_Gexception@@UAEPAXI@Z   00449cc3 f i LIBCMT:stdexcpt.obj
 0001:00048cc3       ??_Eexception@@UAEPAXI@Z   00449cc3 f i LIBCMT:stdexcpt.obj
 0001:00048cdf       ??0exception@@QAE@ABQBD@Z  00449cdf f   LIBCMT:stdexcpt.obj
 0001:00048d1c       ??0exception@@QAE@ABV0@@Z  00449d1c f   LIBCMT:stdexcpt.obj
 0001:00048d66       ??4exception@@QAEAAV0@ABV0@@Z 00449d66 f   LIBCMT:stdexcpt.obj
 0001:00048d85       ??1exception@@UAE@XZ       00449d85 f   LIBCMT:stdexcpt.obj
 0001:00048d9b       ?what@exception@@UBEPBDXZ  00449d9b f   LIBCMT:stdexcpt.obj
 0001:00048db0       _strncat                   00449db0 f   LIBCMT:strncat.obj
 0001:00048ed3       _setlocale                 00449ed3 f   LIBCMT:setlocal.obj
 0001:000492ed       __expandlocale             0044a2ed f   LIBCMT:setlocal.obj
 0001:00049405       ___init_dummy              0044a405 f   LIBCMT:setlocal.obj
 0001:00049408       __strcats                  0044a408 f   LIBCMT:setlocal.obj
 0001:0004942d       ___lc_strtolc              0044a42d f   LIBCMT:setlocal.obj
 0001:000494f9       ___lc_lctostr              0044a4f9 f   LIBCMT:setlocal.obj
 0001:0004954c       ??_M@YGXPAXIHP6EX0@Z@Z     0044a54c f   LIBCMT:ehvecdtr.obj
 0001:000495cc       ?__ArrayUnwind@@YGXPAXIHP6EX0@Z@Z 0044a5cc f   LIBCMT:ehvecdtr.obj
 0001:00049640       ??_L@YGXPAXIHP6EX0@Z1@Z    0044a640 f   LIBCMT:ehvecctr.obj
 0001:000496d0       __aullshr                  0044a6d0 f   LIBCMT:ullshr.obj
 0001:000496f0       __aulldiv                  0044a6f0 f   LIBCMT:ulldiv.obj
 0001:00049760       __aullrem                  0044a760 f   LIBCMT:ullrem.obj
 0001:000497e0       __alldiv                   0044a7e0 f   LIBCMT:lldiv.obj
 0001:00049890       __allrem                   0044a890 f   LIBCMT:llrem.obj
 0001:00049942       __fpmath                   0044a942 f   LIBCMT:fpinit.obj
 0001:00049959       __fpclear                  0044a959 f   LIBCMT:fpinit.obj
 0001:0004995a       __cfltcvt_init             0044a95a f   LIBCMT:fpinit.obj
 0001:00049992       ___setfflag                0044a992 f   LIBCMT:fpinit.obj
 0001:000499b0       __allmul                   0044a9b0 f   LIBCMT:llmul.obj
 0001:000499e4       ___initstdio               0044a9e4 f   LIBCMT:_file.obj
 0001:00049a8c       ___endstdio                0044aa8c f   LIBCMT:_file.obj
 0001:00049aa0       __lock_file                0044aaa0 f   LIBCMT:_file.obj
 0001:00049acf       __lock_file2               0044aacf f   LIBCMT:_file.obj
 0001:00049af2       __unlock_file              0044aaf2 f   LIBCMT:_file.obj
 0001:00049b21       __unlock_file2             0044ab21 f   LIBCMT:_file.obj
 0001:00049b44       _realloc                   0044ab44 f   LIBCMT:realloc.obj
 0001:00049e80       _strncpy                   0044ae80 f   LIBCMT:strncpy.obj
 0001:00049f7e       __vsnprintf                0044af7e f   LIBCMT:vsnprint.obj
 0001:00049fce       _abort                     0044afce f   LIBCMT:abort.obj
 0001:00049fe5       __ioinit                   0044afe5 f   LIBCMT:ioinit.obj
 0001:0004a1a1       __ioterm                   0044b1a1 f   LIBCMT:ioinit.obj
 0001:0004a1f5       __alloc_osfhnd             0044b1f5 f   LIBCMT:osfinfo.obj
 0001:0004a318       __set_osfhnd               0044b318 f   LIBCMT:osfinfo.obj
 0001:0004a394       __free_osfhnd              0044b394 f   LIBCMT:osfinfo.obj
 0001:0004a413       __get_osfhandle            0044b413 f   LIBCMT:osfinfo.obj
 0001:0004a455       __open_osfhandle           0044b455 f   LIBCMT:osfinfo.obj
 0001:0004a4fc       __lock_fhandle             0044b4fc f   LIBCMT:osfinfo.obj
 0001:0004a55b       __unlock_fhandle           0044b55b f   LIBCMT:osfinfo.obj
 0001:0004a580       _memchr                    0044b580 f   LIBCMT:memchr.obj
 0001:0004a630       __allshl                   0044b630 f   LIBCMT:llshl.obj
 0001:0004a64f       __copysign                 0044b64f f   LIBCMT:ieeemisc.obj
 0001:0004a670       __chgsign                  0044b670 f   LIBCMT:ieeemisc.obj
 0001:0004a695       __scalb                    0044b695 f   LIBCMT:ieeemisc.obj
 0001:0004a6ab       __logb                     0044b6ab f   LIBCMT:ieeemisc.obj
 0001:0004a792       __nextafter                0044b792 f   LIBCMT:ieeemisc.obj
 0001:0004aa27       __finite                   0044ba27 f   LIBCMT:ieeemisc.obj
 0001:0004aa3b       __isnan                    0044ba3b f   LIBCMT:ieeemisc.obj
 0001:0004aa69       __fpclass                  0044ba69 f   LIBCMT:ieeemisc.obj
 0001:0004aafb       __fcvt                     0044bafb f   LIBCMT:fcvt.obj
 0001:0004ab2e       __ecvt                     0044bb2e f   LIBCMT:fcvt.obj
 0001:0004ab6b       __fpcvt                    0044bb6b f   LIBCMT:fcvt.obj
 0001:0004abc8       _fflush                    0044bbc8 f   LIBCMT:fflush.obj
 0001:0004abf7       __fflush_lk                0044bbf7 f   LIBCMT:fflush.obj
 0001:0004ac25       __flush                    0044bc25 f   LIBCMT:fflush.obj
 0001:0004ac81       __flushall                 0044bc81 f   LIBCMT:fflush.obj
 0001:0004ad2e       _setvbuf                   0044bd2e f   LIBCMT:setvbuf.obj
 0001:0004addd       _fgetpos                   0044bddd f   LIBCMT:fgetpos.obj
 0001:0004adff       _fseek                     0044bdff f   LIBCMT:fseek.obj
 0001:0004ae2b       __fseek_lk                 0044be2b f   LIBCMT:fseek.obj
 0001:0004aeb8       _fsetpos                   0044beb8 f   LIBCMT:fsetpos.obj
 0001:0004aed0       _ftell                     0044bed0 f   LIBCMT:ftell.obj
 0001:0004aef2       __ftell_lk                 0044bef2 f   LIBCMT:ftell.obj
 0001:0004b053       _feof                      0044c053 f   LIBCMT:feoferr.obj
 0001:0004b05e       _ferror                    0044c05e f   LIBCMT:feoferr.obj
 0001:0004b069       _ungetc                    0044c069 f   LIBCMT:ungetc.obj
 0001:0004b092       __ungetc_lk                0044c092 f   LIBCMT:ungetc.obj
 0001:0004b100       _fgetc                     0044c100 f   LIBCMT:fgetc.obj
 0001:0004b131       _getc                      0044c131 f   LIBCMT:fgetc.obj
 0001:0004b13c       _fputc                     0044c13c f   LIBCMT:fputc.obj
 0001:0004b177       _putc                      0044c177 f   LIBCMT:fputc.obj
 0001:0004b190       _strcspn                   0044c190 f   LIBCMT:strcspn.obj
 0001:0004b1e0       _strchr                    0044c1e0 f   LIBCMT:strchr.obj
 0001:0004b1e6       ___from_strstr_to_strchr   0044c1e6 f   LIBCMT:strchr.obj
 0001:0004b2a0       _strstr                    0044c2a0 f   LIBCMT:strstr.obj
 0001:0004b320       __isctype                  0044c320 f   LIBCMT:isctype.obj
 0001:0004b395       __cinit                    0044c395 f   LIBCMT:crt0dat.obj
 0001:0004b3c2       _exit                      0044c3c2 f   LIBCMT:crt0dat.obj
 0001:0004b3d3       __exit                     0044c3d3 f   LIBCMT:crt0dat.obj
 0001:0004b3e4       __cexit                    0044c3e4 f   LIBCMT:crt0dat.obj
 0001:0004b3f3       __c_exit                   0044c3f3 f   LIBCMT:crt0dat.obj
 0001:0004b4a7       __lockexit                 0044c4a7 f   LIBCMT:crt0dat.obj
 0001:0004b4b0       __unlockexit               0044c4b0 f   LIBCMT:crt0dat.obj
 0001:0004b4d3       __msize                    0044c4d3 f   LIBCMT:msize.obj
 0001:0004b5c1       ___InternalCxxFrameHandler 0044c5c1 f   LIBCMT:frame.obj
 0001:0004b916       ___FrameUnwindToState      0044c916 f   LIBCMT:frame.obj
 0001:0004bd4e       ?_DestructExceptionObject@@YAXPAUEHExceptionRecord@@E@Z 0044cd4e f   LIBCMT:frame.obj
 0001:0004bde0       __CallSettingFrame@12      0044cde0 f   LIBCMT:lowhelpr.obj
 0001:0004be07       __NLG_Return               0044ce07 f   LIBCMT:lowhelpr.obj
 0001:0004be2c       __mtinit                   0044ce2c f   LIBCMT:tidtable.obj
 0001:0004be80       __mtterm                   0044ce80 f   LIBCMT:tidtable.obj
 0001:0004be9e       __initptd                  0044ce9e f   LIBCMT:tidtable.obj
 0001:0004beb1       __getptd                   0044ceb1 f   LIBCMT:tidtable.obj
 0001:0004bf18       __freeptd                  0044cf18 f   LIBCMT:tidtable.obj
 0001:0004bfb8       ___threadid                0044cfb8 f   LIBCMT:tidtable.obj
 0001:0004bfbe       ___threadhandle            0044cfbe f   LIBCMT:tidtable.obj
 0001:0004bfc4       ?terminate@@YAXXZ          0044cfc4 f   LIBCMT:hooks.obj
 0001:0004c025       ?unexpected@@YAXXZ         0044d025 f   LIBCMT:hooks.obj
 0001:0004c03d       ?_inconsistency@@YAXXZ     0044d03d f   LIBCMT:hooks.obj
 0001:0004c093       __stbuf                    0044d093 f   LIBCMT:_sftbuf.obj
 0001:0004c120       __ftbuf                    0044d120 f   LIBCMT:_sftbuf.obj
 0001:0004c14a       __output                   0044d14a f   LIBCMT:output.obj
 0001:0004c9b1       __close                    0044d9b1 f   LIBCMT:close.obj
 0001:0004ca0e       __close_lk                 0044da0e f   LIBCMT:close.obj
 0001:0004ca91       __freebuf                  0044da91 f   LIBCMT:_freebuf.obj
 0001:0004cabc       __flsbuf                   0044dabc f   LIBCMT:_flsbuf.obj
 0001:0004cbd4       __write                    0044dbd4 f   LIBCMT:write.obj
 0001:0004cc39       __write_lk                 0044dc39 f   LIBCMT:write.obj
 0001:0004cdd0       _memcpy                    0044ddd0 f   LIBCMT:memcpy.obj
 0001:0004d105       __openfile                 0044e105 f   LIBCMT:_open.obj
 0001:0004d275       __getstream                0044e275 f   LIBCMT:stream.obj
 0001:0004d33d       ?__CxxUnhandledExceptionFilter@@YGJPAU_EXCEPTION_POINTERS@@@Z 0044e33d f   LIBCMT:unhandld.obj
 0001:0004d383       ?__CxxSetUnhandledExceptionFilter@@YAXXZ 0044e383 f   LIBCMT:unhandld.obj
 0001:0004d394       ?__CxxRestoreUnhandledExceptionFilter@@YAXXZ 0044e394 f   LIBCMT:unhandld.obj
 0001:0004d3a1       __XcptFilter               0044e3a1 f   LIBCMT:winxfltr.obj
 0001:0004d519       __setenvp                  0044e519 f   LIBCMT:stdenvp.obj
 0001:0004d5d2       __setargv                  0044e5d2 f   LIBCMT:stdargv.obj
 0001:0004d81f       ___crtGetEnvironmentStringsA 0044e81f f   LIBCMT:a_env.obj
 0001:0004d951       __GetLinkerVersion         0044e951 f   LIBCMT:heapinit.obj
 0001:0004d97e       ___heap_select             0044e97e f   LIBCMT:heapinit.obj
 0001:0004dac6       __heap_init                0044eac6 f   LIBCMT:heapinit.obj
 0001:0004db23       __heap_term                0044eb23 f   LIBCMT:heapinit.obj
 0001:0004dbd4       __except_handler3          0044ebd4 f   LIBCMT:exsup3.obj
 0001:0004dc91       __seh_longjmp_unwind@4     0044ec91 f   LIBCMT:exsup3.obj
 0001:0004dcac       __FF_MSGBANNER             0044ecac f   LIBCMT:crt0msg.obj
 0001:0004dce5       __NMSG_WRITE               0044ece5 f   LIBCMT:crt0msg.obj
 0001:0004de38       __GET_RTERRMSG             0044ee38 f   LIBCMT:crt0msg.obj
 0001:0004de69       __mtinitlocks              0044ee69 f   LIBCMT:mlock.obj
 0001:0004de92       __mtdeletelocks            0044ee92 f   LIBCMT:mlock.obj
 0001:0004defe       __lock                     0044eefe f   LIBCMT:mlock.obj
 0001:0004df5f       __unlock                   0044ef5f f   LIBCMT:mlock.obj
 0001:0004df74       __lockerr_exit             0044ef74 f   LIBCMT:mlock.obj
 0001:0004df90       _strcmp                    0044ef90 f   LIBCMT:strcmp.obj
 0001:0004e014       ___crtLCMapStringA         0044f014 f   LIBCMT:a_map.obj
 0001:0004e263       __get_sbh_threshold        0044f263 f   LIBCMT:sbheap.obj
 0001:0004e282       __set_sbh_threshold        0044f282 f   LIBCMT:sbheap.obj
 0001:0004e335       ___sbh_heap_init           0044f335 f   LIBCMT:sbheap.obj
 0001:0004e37d       ___sbh_find_block          0044f37d f   LIBCMT:sbheap.obj
 0001:0004e3a8       ___sbh_free_block          0044f3a8 f   LIBCMT:sbheap.obj
 0001:0004e6d1       ___sbh_alloc_block         0044f6d1 f   LIBCMT:sbheap.obj
 0001:0004e9da       ___sbh_alloc_new_region    0044f9da f   LIBCMT:sbheap.obj
 0001:0004ea8b       ___sbh_alloc_new_group     0044fa8b f   LIBCMT:sbheap.obj
 0001:0004eb86       ___sbh_resize_block        0044fb86 f   LIBCMT:sbheap.obj
 0001:0004ee7c       ___sbh_heapmin             0044fe7c f   LIBCMT:sbheap.obj
 0001:0004ef4d       ___sbh_heap_check          0044ff4d f   LIBCMT:sbheap.obj
 0001:0004f27c       __get_old_sbh_threshold    0045027c f   LIBCMT:sbheap.obj
 0001:0004f282       __set_old_sbh_threshold    00450282 f   LIBCMT:sbheap.obj
 0001:0004f29e       ___old_sbh_new_region      0045029e f   LIBCMT:sbheap.obj
 0001:0004f3e2       ___old_sbh_release_region  004503e2 f   LIBCMT:sbheap.obj
 0001:0004f438       ___old_sbh_decommit_pages  00450438 f   LIBCMT:sbheap.obj
 0001:0004f4fa       ___old_sbh_find_block      004504fa f   LIBCMT:sbheap.obj
 0001:0004f551       ___old_sbh_free_block      00450551 f   LIBCMT:sbheap.obj
 0001:0004f596       ___old_sbh_alloc_block     00450596 f   LIBCMT:sbheap.obj
 0001:0004f79e       ___old_sbh_alloc_block_from_page 0045079e f   LIBCMT:sbheap.obj
 0001:0004f8c2       ___old_sbh_resize_block    004508c2 f   LIBCMT:sbheap.obj
 0001:0004f96b       ___old_sbh_heap_check      0045096b f   LIBCMT:sbheap.obj
 0001:0004fac9       ?_set_new_handler@@YAP6AHI@ZP6AHI@Z@Z 00450ac9 f   LIBCMT:handler.obj
 0001:0004faed       ?_query_new_handler@@YAP6AHI@ZXZ 00450aed f   LIBCMT:handler.obj
 0001:0004faf3       __callnewh                 00450af3 f   LIBCMT:handler.obj
 0001:0004fb10       _strcpy                    00450b10 f   LIBCMT:strcat.obj
 0001:0004fb20       _strcat                    00450b20 f   LIBCMT:strcat.obj
 0001:0004fc00       _strlen                    00450c00 f   LIBCMT:strlen.obj
 0001:0004fc7b       ___init_time               00450c7b f   LIBCMT:inittime.obj
 0001:000501ea       ___init_numeric            004511ea f   LIBCMT:initnum.obj
 0001:000503f6       ___init_monetary           004513f6 f   LIBCMT:initmon.obj
 0001:00050668       ___init_ctype              00451668 f   LIBCMT:initctyp.obj
 0001:000508ad       ___init_collate            004518ad f   LIBCMT:initcoll.obj
 0001:000508b0       _strncmp                   004518b0 f   LIBCMT:strncmp.obj
 0001:000508f0       _strpbrk                   004518f0 f   LIBCMT:strpbrk.obj
 0001:0005092a       ___get_qualified_locale    0045192a f   LIBCMT:getqloc.obj
 0001:000511e0       _memset                    004521e0 f   LIBCMT:memset.obj
 0001:00051238       __setdefaultprecision      00452238 f   LIBCMT:fp8.obj
 0001:0005124a       __ms_p5_test_fdiv          0045224a f   LIBCMT:testfdiv.obj
 0001:00051288       __ms_p5_mp_test_fdiv       00452288 f   LIBCMT:testfdiv.obj
 0001:000512b1       __forcdecpt                004522b1 f   LIBCMT:cvt.obj
 0001:0005130b       __cropzeros                0045230b f   LIBCMT:cvt.obj
 0001:00051359       __positive                 00452359 f   LIBCMT:cvt.obj
 0001:00051371       __fassign                  00452371 f   LIBCMT:cvt.obj
 0001:000513af       __cftoe                    004523af f   LIBCMT:cvt.obj
 0001:000514d2       __cftof                    004524d2 f   LIBCMT:cvt.obj
 0001:000515ce       __cftog                    004525ce f   LIBCMT:cvt.obj
 0001:00051661       __cfltcvt                  00452661 f   LIBCMT:cvt.obj
 0001:000516d7       _calloc                    004526d7 f   LIBCMT:calloc.obj
 0001:00051814       __fcloseall                00452814 f   LIBCMT:closeall.obj
 0001:00051895       _signal                    00452895 f   LIBCMT:winsig.obj
 0001:00051a79       _raise                     00452a79 f   LIBCMT:winsig.obj
 0001:00051c38       ___fpecode                 00452c38 f   LIBCMT:winsig.obj
 0001:00051c41       ___pxcptinfoptrs           00452c41 f   LIBCMT:winsig.obj
 0001:00051c4a       __dosmaperr                00452c4a f   LIBCMT:dosmap.obj
 0001:00051cbd       __errno                    00452cbd f   LIBCMT:dosmap.obj
 0001:00051cc6       ___doserrno                00452cc6 f   LIBCMT:dosmap.obj
 0001:00051ccf       _ldexp                     00452ccf f   LIBCMT:ldexp.obj
 0001:00051eb5       __set_exp                  00452eb5 f   LIBCMT:util.obj
 0001:00051ede       __get_exp                  00452ede f   LIBCMT:util.obj
 0001:00051ef2       __add_exp                  00452ef2 f   LIBCMT:util.obj
 0001:00051f1e       __set_bexp                 00452f1e f   LIBCMT:util.obj
 0001:00051f42       __sptype                   00452f42 f   LIBCMT:util.obj
 0001:00051f9c       __decomp                   00452f9c f   LIBCMT:util.obj
 0001:0005205d       __handle_qnan1             0045305d f   LIBCMT:fpexcept.obj
 0001:000520b1       __handle_qnan2             004530b1 f   LIBCMT:fpexcept.obj
 0001:00052111       __except1                  00453111 f   LIBCMT:fpexcept.obj
 0001:000521a9       __except2                  004531a9 f   LIBCMT:fpexcept.obj
 0001:0005224e       __raise_exc                0045324e f   LIBCMT:fpexcept.obj
 0001:00052501       __handle_exc               00453501 f   LIBCMT:fpexcept.obj
 0001:00052718       __umatherr                 00453718 f   LIBCMT:fpexcept.obj
 0001:000527a0       __set_errno                004537a0 f   LIBCMT:fpexcept.obj
 0001:000527ed       __errcode                  004537ed f   LIBCMT:fpexcept.obj
 0001:0005281a       __statfp                   0045381a f   LIBCMT:fpctrl.obj
 0001:00052828       __clrfp                    00453828 f   LIBCMT:fpctrl.obj
 0001:00052837       __ctrlfp                   00453837 f   LIBCMT:fpctrl.obj
 0001:0005285a       __set_statfp               0045385a f   LIBCMT:fpctrl.obj
 0001:000528b0       __fltout2                  004538b0 f   LIBCMT:cfout.obj
 0001:0005290c       ___dtold                   0045390c f   LIBCMT:cfout.obj
 0001:000529c2       __fptostr                  004539c2 f   LIBCMT:_fptostr.obj
 0001:00052a39       __commit                   00453a39 f   LIBCMT:commit.obj
 0001:00052acc       __ftelli64                 00453acc f   LIBCMT:ftelli64.obj
 0001:00052af4       __ftelli64_lk              00453af4 f   LIBCMT:ftelli64.obj
 0001:00052c84       __lseek                    00453c84 f   LIBCMT:lseek.obj
 0001:00052ce9       __lseek_lk                 00453ce9 f   LIBCMT:lseek.obj
 0001:00052d5c       __fseeki64                 00453d5c f   LIBCMT:fseeki64.obj
 0001:00052d8b       __fseeki64_lk              00453d8b f   LIBCMT:fseeki64.obj
 0001:00052e1c       __getbuf                   00453e1c f   LIBCMT:_getbuf.obj
 0001:00052e60       __filbuf                   00453e60 f   LIBCMT:_filbuf.obj
 0001:00052f3c       ___crtGetStringTypeA       00453f3c f   LIBCMT:a_str.obj
 0001:00053085       ?_ValidateRead@@YAHPBXI@Z  00454085 f   LIBCMT:validate.obj
 0001:000530a1       ?_ValidateWrite@@YAHPAXI@Z 004540a1 f   LIBCMT:validate.obj
 0001:000530bd       ?_ValidateExecute@@YAHP6GHXZ@Z 004540bd f   LIBCMT:validate.obj
 0001:000530d5       __isatty                   004540d5 f   LIBCMT:isatty.obj
 0001:000530fe       _wctomb                    004540fe f   LIBCMT:wctomb.obj
 0001:00053157       __wctomb_lk                00454157 f   LIBCMT:wctomb.obj
 0001:000531c0       __open                     004541c0 f   LIBCMT:open.obj
 0001:000531d7       __sopen                    004541d7 f   LIBCMT:open.obj
 0001:000534a6       __setmbcp                  004544a6 f   LIBCMT:mbctype.obj
 0001:0005387e       __getmbcp                  0045487e f   LIBCMT:mbctype.obj
 0001:0005388e       ___initmbctable            0045488e f   LIBCMT:mbctype.obj
 0001:000538aa       _strtol                    004548aa f   LIBCMT:strtol.obj
 0001:00053ac6       _strtoul                   00454ac6 f   LIBCMT:strtol.obj
 0001:00053add       ___crtMessageBoxA          00454add f   LIBCMT:crtmbox.obj
 0001:00053b66       __Getdays                  00454b66 f   LIBCMT:strftime.obj
 0001:00053bf5       __Getmonths                00454bf5 f   LIBCMT:strftime.obj
 0001:00053c8a       __Gettnames                00454c8a f   LIBCMT:strftime.obj
 0001:00053ebc       _strftime                  00454ebc f   LIBCMT:strftime.obj
 0001:00053ed7       __Strftime                 00454ed7 f   LIBCMT:strftime.obj
 0001:000547ad       ___getlocaleinfo           004557ad f   LIBCMT:inithelp.obj
 0001:000548e5       _localeconv                004558e5 f   LIBCMT:lconv.obj
 0001:000548eb       ___crtGetStringTypeW       004558eb f   LIBCMT:w_str.obj
 0001:00054ab0       __itoa                     00455ab0 f   LIBCMT:xtoa.obj
 0001:00054b39       __ltoa                     00455b39 f   LIBCMT:xtoa.obj
 0001:00054b63       __ultoa                    00455b63 f   LIBCMT:xtoa.obj
 0001:00054b7e       __i64toa                   00455b7e f   LIBCMT:xtoa.obj
 0001:00054c35       __ui64toa                  00455c35 f   LIBCMT:xtoa.obj
 0001:00054c50       __strcmpi                  00455c50 f   LIBCMT:stricmp.obj
 0001:00054c50       __stricmp                  00455c50 f   LIBCMT:stricmp.obj
 0001:00054d20       __strnicmp                 00455d20 f   LIBCMT:strnicmp.obj
 0001:00054e21       __statusfp                 00455e21 f   LIBCMT:ieee87.obj
 0001:00054e34       __clearfp                  00455e34 f   LIBCMT:ieee87.obj
 0001:00054e48       __control87                00455e48 f   LIBCMT:ieee87.obj
 0001:00054e7d       __controlfp                00455e7d f   LIBCMT:ieee87.obj
 0001:00054e93       __fpreset                  00455e93 f   LIBCMT:ieee87.obj
 0001:0005500e       __tolower                  0045600e f   LIBCMT:tolower.obj
 0001:00055016       _tolower                   00456016 f   LIBCMT:tolower.obj
 0001:00055085       __tolower_lk               00456085 f   LIBCMT:tolower.obj
 0001:00055150       __ZeroTail                 00456150 f   LIBCMT:intrncvt.obj
 0001:00055199       __IncMan                   00456199 f   LIBCMT:intrncvt.obj
 0001:000551ef       __RoundMan                 004561ef f   LIBCMT:intrncvt.obj
 0001:0005527b       __CopyMan                  0045627b f   LIBCMT:intrncvt.obj
 0001:00055296       __FillZeroMan              00456296 f   LIBCMT:intrncvt.obj
 0001:000552a2       __IsZeroMan                004562a2 f   LIBCMT:intrncvt.obj
 0001:000552bd       __ShrMan                   004562bd f   LIBCMT:intrncvt.obj
 0001:0005534a       __ld12cvt                  0045634a f   LIBCMT:intrncvt.obj
 0001:000554b6       __ld12tod                  004564b6 f   LIBCMT:intrncvt.obj
 0001:000554cc       __ld12tof                  004564cc f   LIBCMT:intrncvt.obj
 0001:000554e2       __ld12told                 004564e2 f   LIBCMT:intrncvt.obj
 0001:0005555c       __atodbl                   0045655c f   LIBCMT:intrncvt.obj
 0001:00055589       __atoldbl                  00456589 f   LIBCMT:intrncvt.obj
 0001:000555b7       __atoflt                   004565b7 f   LIBCMT:intrncvt.obj
 0001:000555e4       __fptrap                   004565e4 f   LIBCMT:crt0fp.obj
 0001:000555ed       __matherr                  004565ed f   LIBCMT:matherr.obj
 0001:000555f0       _$I10_OUTPUT               004565f0 f   LIBCMT:x10fout.obj
 0001:00055883       __lseeki64                 00456883 f   LIBCMT:lseeki64.obj
 0001:000558f4       __lseeki64_lk              004568f4 f   LIBCMT:lseeki64.obj
 0001:00055979       __read                     00456979 f   LIBCMT:read.obj
 0001:000559de       __read_lk                  004569de f   LIBCMT:read.obj
 0001:00055bb7       __chsize                   00456bb7 f   LIBCMT:chsize.obj
 0001:00055c10       __chsize_lk                00456c10 f   LIBCMT:chsize.obj
 0001:00055d35       ___tzset                   00456d35 f   LIBCMT:tzset.obj
 0001:00055d63       __tzset                    00456d63 f   LIBCMT:tzset.obj
 0001:00056000       __isindst                  00457000 f   LIBCMT:tzset.obj
 0001:0005630d       ___crtGetLocaleInfoW       0045730d f   LIBCMT:w_loc.obj
 0001:00056420       ___crtGetLocaleInfoA       00457420 f   LIBCMT:a_loc.obj
 0001:0005653e       ___addl                    0045753e f   LIBCMT:mantold.obj
 0001:0005655f       ___add_12                  0045755f f   LIBCMT:mantold.obj
 0001:000565bd       ___shl_12                  004575bd f   LIBCMT:mantold.obj
 0001:000565eb       ___shr_12                  004575eb f   LIBCMT:mantold.obj
 0001:00056618       ___mtold12                 00457618 f   LIBCMT:mantold.obj
 0001:000566df       ___strgtold12              004576df f   LIBCMT:strgtold.obj
 0001:00056bb0       ___STRINGTOLD              00457bb0 f   LIBCMT:strgtold.obj
 0001:00056bec       ___ld12mul                 00457bec f   LIBCMT:tenpow.obj
 0001:00056e0c       ___multtenpow12            00457e0c f   LIBCMT:tenpow.obj
 0001:00056e88       __setmode                  00457e88 f   LIBCMT:setmode.obj
 0001:00056ee1       __setmode_lk               00457ee1 f   LIBCMT:setmode.obj
 0001:00056f42       _getenv                    00457f42 f   LIBCMT:getenv.obj
 0001:00056f63       __getenv_lk                00457f63 f   LIBCMT:getenv.obj
 0001:00056fe0       __mbsnbicoll               00457fe0 f   LIBCMT:mbsnbico.obj
 0001:0005701f       ___wtomb_environ           0045801f f   LIBCMT:wtombenv.obj
 0001:0005708d       ___crtCompareStringA       0045808d f   LIBCMT:a_cmp.obj
 0001:00057335       ___crtsetenv               00458335 f   LIBCMT:setenv.obj
 0001:0005757b       __mbschr                   0045857b f   LIBCMT:mbschr.obj
 0001:00057612       __strdup                   00458612 f   LIBCMT:strdup.obj
 0001:00057640       _VerQueryValueA@16         00458640 f   Version:VERSION.dll
 0001:00057646       _GetFileVersionInfoA@16    00458646 f   Version:VERSION.dll
 0001:0005764c       _GetFileVersionInfoSizeA@8 0045864c f   Version:VERSION.dll
 0001:00057652       _OutputDebugStringA@4      00458652 f   kernel32:KERNEL32.dll
 0001:00057658       _GetFileType@4             00458658 f   kernel32:KERNEL32.dll
 0001:0005765e       _GetFileSize@8             0045865e f   kernel32:KERNEL32.dll
 0001:00057664       _GetSystemInfo@4           00458664 f   kernel32:KERNEL32.dll
 0001:0005766a       _CloseHandle@4             0045866a f   kernel32:KERNEL32.dll
 0001:00057670       _SetFilePointer@16         00458670 f   kernel32:KERNEL32.dll
 0001:00057676       _SetEndOfFile@4            00458676 f   kernel32:KERNEL32.dll
 0001:0005767c       _CreateFileA@28            0045867c f   kernel32:KERNEL32.dll
 0001:00057682       _ReadFile@20               00458682 f   kernel32:KERNEL32.dll
 0001:00057688       _WriteFile@20              00458688 f   kernel32:KERNEL32.dll
 0001:0005768e       _MapViewOfFile@20          0045868e f   kernel32:KERNEL32.dll
 0001:00057694       _CreateFileMappingA@24     00458694 f   kernel32:KERNEL32.dll
 0001:0005769a       _UnmapViewOfFile@4         0045869a f   kernel32:KERNEL32.dll
 0001:000576a0       _WideCharToMultiByte@32    004586a0 f   kernel32:KERNEL32.dll
 0001:000576a6       _GetStringTypeA@20         004586a6 f   kernel32:KERNEL32.dll
 0001:000576ac       _GetStringTypeW@16         004586ac f   kernel32:KERNEL32.dll
 0001:000576b2       _MultiByteToWideChar@24    004586b2 f   kernel32:KERNEL32.dll
 0001:000576b8       _GetVersionExA@4           004586b8 f   kernel32:KERNEL32.dll
 0001:000576be       _GetCPInfo@8               004586be f   kernel32:KERNEL32.dll
 0001:000576c4       _GetLocaleInfoA@16         004586c4 f   kernel32:KERNEL32.dll
 0001:000576ca       _LCMapStringA@24           004586ca f   kernel32:KERNEL32.dll
 0001:000576d0       _LCMapStringW@24           004586d0 f   kernel32:KERNEL32.dll
 0001:000576d6       _CompareStringA@24         004586d6 f   kernel32:KERNEL32.dll
 0001:000576dc       _CompareStringW@24         004586dc f   kernel32:KERNEL32.dll
 0001:000576e2       _lstrcmpiA@8               004586e2 f   kernel32:KERNEL32.dll
 0001:000576e8       _EnumSystemLocalesA@8      004586e8 f   kernel32:KERNEL32.dll
 0001:000576ee       _RtlUnwind@16              004586ee f   kernel32:KERNEL32.dll
 0001:000576f4       _RaiseException@16         004586f4 f   kernel32:KERNEL32.dll
 0001:000576fa       _GetCommandLineA@0         004586fa f   kernel32:KERNEL32.dll
 0001:00057700       _GetVersion@0              00458700 f   kernel32:KERNEL32.dll
 0001:00057706       _ExitProcess@4             00458706 f   kernel32:KERNEL32.dll
 0001:0005770c       _HeapFree@12               0045870c f   kernel32:KERNEL32.dll
 0001:00057712       _HeapAlloc@12              00458712 f   kernel32:KERNEL32.dll
 0001:00057718       _HeapReAlloc@16            00458718 f   kernel32:KERNEL32.dll
 0001:0005771e       _SetHandleCount@4          0045871e f   kernel32:KERNEL32.dll
 0001:00057724       _GetStdHandle@4            00458724 f   kernel32:KERNEL32.dll
 0001:0005772a       _GetStartupInfoA@4         0045872a f   kernel32:KERNEL32.dll
 0001:00057730       _SetStdHandle@8            00458730 f   kernel32:KERNEL32.dll
 0001:00057736       _TerminateProcess@8        00458736 f   kernel32:KERNEL32.dll
 0001:0005773c       _GetCurrentProcess@0       0045873c f   kernel32:KERNEL32.dll
 0001:00057742       _HeapSize@12               00458742 f   kernel32:KERNEL32.dll
 0001:00057748       _GetCurrentThreadId@0      00458748 f   kernel32:KERNEL32.dll
 0001:0005774e       _TlsSetValue@8             0045874e f   kernel32:KERNEL32.dll
 0001:00057754       _TlsAlloc@0                00458754 f   kernel32:KERNEL32.dll
 0001:0005775a       _TlsFree@4                 0045875a f   kernel32:KERNEL32.dll
 0001:00057760       _TlsGetValue@4             00458760 f   kernel32:KERNEL32.dll
 0001:00057766       _GetCurrentThread@0        00458766 f   kernel32:KERNEL32.dll
 0001:0005776c       _SetUnhandledExceptionFilter@4 0045876c f   kernel32:KERNEL32.dll
 0001:00057772       _UnhandledExceptionFilter@4 00458772 f   kernel32:KERNEL32.dll
 0001:00057778       _FreeEnvironmentStringsA@4 00458778 f   kernel32:KERNEL32.dll
 0001:0005777e       _FreeEnvironmentStringsW@4 0045877e f   kernel32:KERNEL32.dll
 0001:00057784       _GetEnvironmentStrings@0   00458784 f   kernel32:KERNEL32.dll
 0001:0005778a       _GetEnvironmentStringsW@0  0045878a f   kernel32:KERNEL32.dll
 0001:00057790       _GetModuleHandleA@4        00458790 f   kernel32:KERNEL32.dll
 0001:00057796       _GetEnvironmentVariableA@12 00458796 f   kernel32:KERNEL32.dll
 0001:0005779c       _HeapDestroy@4             0045879c f   kernel32:KERNEL32.dll
 0001:000577a2       _HeapCreate@12             004587a2 f   kernel32:KERNEL32.dll
 0001:000577a8       _VirtualFree@12            004587a8 f   kernel32:KERNEL32.dll
 0001:000577ae       _FatalAppExitA@8           004587ae f   kernel32:KERNEL32.dll
 0001:000577b4       _VirtualAlloc@16           004587b4 f   kernel32:KERNEL32.dll
 0001:000577ba       _IsBadWritePtr@8           004587ba f   kernel32:KERNEL32.dll
 0001:000577c0       _IsValidLocale@8           004587c0 f   kernel32:KERNEL32.dll
 0001:000577c6       _IsValidCodePage@4         004587c6 f   kernel32:KERNEL32.dll
 0001:000577cc       _GetUserDefaultLCID@0      004587cc f   kernel32:KERNEL32.dll
 0001:000577d2       _SetConsoleCtrlHandler@8   004587d2 f   kernel32:KERNEL32.dll
 0001:000577d8       _FlushFileBuffers@4        004587d8 f   kernel32:KERNEL32.dll
 0001:000577de       _IsBadReadPtr@8            004587de f   kernel32:KERNEL32.dll
 0001:000577e4       _IsBadCodePtr@4            004587e4 f   kernel32:KERNEL32.dll
 0001:000577ea       _GetACP@0                  004587ea f   kernel32:KERNEL32.dll
 0001:000577f0       _GetOEMCP@0                004587f0 f   kernel32:KERNEL32.dll
 0001:000577f6       _GetTimeZoneInformation@4  004587f6 f   kernel32:KERNEL32.dll
 0001:000577fc       _GetLocaleInfoW@16         004587fc f   kernel32:KERNEL32.dll
 0001:00057802       _SetEnvironmentVariableA@8 00458802 f   kernel32:KERNEL32.dll
 0001:00057808       _fstat                     00458808 f   LIBCMT:fstat.obj
 0001:00057808       __fstat                    00458808 f   LIBCMT:fstat.obj
 0001:00057a9b       ___loctotime_t             00458a9b f   LIBCMT:dtoxtime.obj
 0001:00057b5e       _FileTimeToSystemTime@8    00458b5e f   kernel32:KERNEL32.dll
 0001:00057b64       _FileTimeToLocalFileTime@8 00458b64 f   kernel32:KERNEL32.dll
 0001:00057b6a       _GetFileInformationByHandle@8 00458b6a f   kernel32:KERNEL32.dll
 0001:00057b70       _PeekNamedPipe@24          00458b70 f   kernel32:KERNEL32.dll
 0002:00000000       __imp__GetUserNameA@8      0045d000     advapi32:ADVAPI32.dll
 0002:00000004       \177ADVAPI32_NULL_THUNK_DATA 0045d004     advapi32:ADVAPI32.dll
 0002:00000008       __imp__CoreGetServerShell  0045d008     CoreServer:CoreServer.dll
 0002:0000000c       \177CoreServer_NULL_THUNK_DATA 0045d00c     CoreServer:CoreServer.dll
 0002:00000010       __imp_?g_DebugLog@@YAXPADZZ 0045d010     engine:Engine.dll
 0002:00000014       __imp_?GetElapse@KTimer@@QAEKXZ 0045d014     engine:Engine.dll
 0002:00000018       __imp_?g_SetRootPath@@YAXPAD@Z 0045d018     engine:Engine.dll
 0002:0000001c       __imp_?g_SetFilePath@@YAXPAD@Z 0045d01c     engine:Engine.dll
 0002:00000020       __imp_??0KIniFile@@QAE@XZ  0045d020     engine:Engine.dll
 0002:00000024       __imp_?Load@KIniFile@@QAEHPBD@Z 0045d024     engine:Engine.dll
 0002:00000028       __imp_?GetInteger@KIniFile@@QAEHPBD0HPAH@Z 0045d028     engine:Engine.dll
 0002:0000002c       __imp_?GetString@KIniFile@@QAEHPBD00PADK@Z 0045d02c     engine:Engine.dll
 0002:00000030       __imp_??1KIniFile@@QAE@XZ  0045d030     engine:Engine.dll
 0002:00000034       __imp_?Start@KTimer@@QAEXXZ 0045d034     engine:Engine.dll
 0002:00000038       __imp_??0KTimer@@QAE@XZ    0045d038     engine:Engine.dll
 0002:0000003c       __imp_?g_FileName2Id@@YAKPAD@Z 0045d03c     engine:Engine.dll
 0002:00000040       \177Engine_NULL_THUNK_DATA 0045d040     engine:Engine.dll
 0002:00000044       __imp__GetComputerNameA@8  0045d044     kernel32:KERNEL32.dll
 0002:00000048       __imp__SetLastError@4      0045d048     kernel32:KERNEL32.dll
 0002:0000004c       __imp__EnterCriticalSection@4 0045d04c     kernel32:KERNEL32.dll
 0002:00000050       __imp__GetLocalTime@4      0045d050     kernel32:KERNEL32.dll
 0002:00000054       __imp__FileTimeToSystemTime@8 0045d054     kernel32:KERNEL32.dll
 0002:00000058       __imp__SetEnvironmentVariableA@8 0045d058     kernel32:KERNEL32.dll
 0002:0000005c       __imp__LeaveCriticalSection@4 0045d05c     kernel32:KERNEL32.dll
 0002:00000060       __imp__DeleteCriticalSection@4 0045d060     kernel32:KERNEL32.dll
 0002:00000064       __imp__GetSystemTime@4     0045d064     kernel32:KERNEL32.dll
 0002:00000068       __imp__GetModuleFileNameA@12 0045d068     kernel32:KERNEL32.dll
 0002:0000006c       __imp__GetCurrentDirectoryA@8 0045d06c     kernel32:KERNEL32.dll
 0002:00000070       __imp__FormatMessageA@28   0045d070     kernel32:KERNEL32.dll
 0002:00000074       __imp__GetLastError@0      0045d074     kernel32:KERNEL32.dll
 0002:00000078       __imp__InterlockedExchange@8 0045d078     kernel32:KERNEL32.dll
 0002:0000007c       __imp__InterlockedIncrement@4 0045d07c     kernel32:KERNEL32.dll
 0002:00000080       __imp__InterlockedDecrement@4 0045d080     kernel32:KERNEL32.dll
 0002:00000084       __imp__LoadLibraryA@4      0045d084     kernel32:KERNEL32.dll
 0002:00000088       __imp__FreeLibrary@4       0045d088     kernel32:KERNEL32.dll
 0002:0000008c       __imp__Sleep@4             0045d08c     kernel32:KERNEL32.dll
 0002:00000090       __imp__FileTimeToLocalFileTime@8 0045d090     kernel32:KERNEL32.dll
 0002:00000094       __imp__GetProcAddress@8    0045d094     kernel32:KERNEL32.dll
 0002:00000098       __imp__GetFileInformationByHandle@8 0045d098     kernel32:KERNEL32.dll
 0002:0000009c       __imp__InitializeCriticalSection@4 0045d09c     kernel32:KERNEL32.dll
 0002:000000a0       __imp__GetLocaleInfoW@16   0045d0a0     kernel32:KERNEL32.dll
 0002:000000a4       __imp__GetTimeZoneInformation@4 0045d0a4     kernel32:KERNEL32.dll
 0002:000000a8       __imp__GetOEMCP@0          0045d0a8     kernel32:KERNEL32.dll
 0002:000000ac       __imp__GetACP@0            0045d0ac     kernel32:KERNEL32.dll
 0002:000000b0       __imp__IsBadCodePtr@4      0045d0b0     kernel32:KERNEL32.dll
 0002:000000b4       __imp__IsBadReadPtr@8      0045d0b4     kernel32:KERNEL32.dll
 0002:000000b8       __imp__FlushFileBuffers@4  0045d0b8     kernel32:KERNEL32.dll
 0002:000000bc       __imp__SetConsoleCtrlHandler@8 0045d0bc     kernel32:KERNEL32.dll
 0002:000000c0       __imp__GetUserDefaultLCID@0 0045d0c0     kernel32:KERNEL32.dll
 0002:000000c4       __imp__IsValidCodePage@4   0045d0c4     kernel32:KERNEL32.dll
 0002:000000c8       __imp__IsValidLocale@8     0045d0c8     kernel32:KERNEL32.dll
 0002:000000cc       __imp__OutputDebugStringA@4 0045d0cc     kernel32:KERNEL32.dll
 0002:000000d0       __imp__GetFileType@4       0045d0d0     kernel32:KERNEL32.dll
 0002:000000d4       __imp__GetFileSize@8       0045d0d4     kernel32:KERNEL32.dll
 0002:000000d8       __imp__GetSystemInfo@4     0045d0d8     kernel32:KERNEL32.dll
 0002:000000dc       __imp__CloseHandle@4       0045d0dc     kernel32:KERNEL32.dll
 0002:000000e0       __imp__SetFilePointer@16   0045d0e0     kernel32:KERNEL32.dll
 0002:000000e4       __imp__SetEndOfFile@4      0045d0e4     kernel32:KERNEL32.dll
 0002:000000e8       __imp__CreateFileA@28      0045d0e8     kernel32:KERNEL32.dll
 0002:000000ec       __imp__ReadFile@20         0045d0ec     kernel32:KERNEL32.dll
 0002:000000f0       __imp__WriteFile@20        0045d0f0     kernel32:KERNEL32.dll
 0002:000000f4       __imp__MapViewOfFile@20    0045d0f4     kernel32:KERNEL32.dll
 0002:000000f8       __imp__CreateFileMappingA@24 0045d0f8     kernel32:KERNEL32.dll
 0002:000000fc       __imp__UnmapViewOfFile@4   0045d0fc     kernel32:KERNEL32.dll
 0002:00000100       __imp__WideCharToMultiByte@32 0045d100     kernel32:KERNEL32.dll
 0002:00000104       __imp__GetStringTypeA@20   0045d104     kernel32:KERNEL32.dll
 0002:00000108       __imp__GetStringTypeW@16   0045d108     kernel32:KERNEL32.dll
 0002:0000010c       __imp__MultiByteToWideChar@24 0045d10c     kernel32:KERNEL32.dll
 0002:00000110       __imp__GetVersionExA@4     0045d110     kernel32:KERNEL32.dll
 0002:00000114       __imp__GetCPInfo@8         0045d114     kernel32:KERNEL32.dll
 0002:00000118       __imp__GetLocaleInfoA@16   0045d118     kernel32:KERNEL32.dll
 0002:0000011c       __imp__LCMapStringA@24     0045d11c     kernel32:KERNEL32.dll
 0002:00000120       __imp__LCMapStringW@24     0045d120     kernel32:KERNEL32.dll
 0002:00000124       __imp__CompareStringA@24   0045d124     kernel32:KERNEL32.dll
 0002:00000128       __imp__CompareStringW@24   0045d128     kernel32:KERNEL32.dll
 0002:0000012c       __imp__lstrcmpiA@8         0045d12c     kernel32:KERNEL32.dll
 0002:00000130       __imp__EnumSystemLocalesA@8 0045d130     kernel32:KERNEL32.dll
 0002:00000134       __imp__RtlUnwind@16        0045d134     kernel32:KERNEL32.dll
 0002:00000138       __imp__RaiseException@16   0045d138     kernel32:KERNEL32.dll
 0002:0000013c       __imp__GetCommandLineA@0   0045d13c     kernel32:KERNEL32.dll
 0002:00000140       __imp__GetVersion@0        0045d140     kernel32:KERNEL32.dll
 0002:00000144       __imp__ExitProcess@4       0045d144     kernel32:KERNEL32.dll
 0002:00000148       __imp__HeapFree@12         0045d148     kernel32:KERNEL32.dll
 0002:0000014c       __imp__HeapAlloc@12        0045d14c     kernel32:KERNEL32.dll
 0002:00000150       __imp__HeapReAlloc@16      0045d150     kernel32:KERNEL32.dll
 0002:00000154       __imp__SetHandleCount@4    0045d154     kernel32:KERNEL32.dll
 0002:00000158       __imp__GetStdHandle@4      0045d158     kernel32:KERNEL32.dll
 0002:0000015c       __imp__GetStartupInfoA@4   0045d15c     kernel32:KERNEL32.dll
 0002:00000160       __imp__SetStdHandle@8      0045d160     kernel32:KERNEL32.dll
 0002:00000164       __imp__TerminateProcess@8  0045d164     kernel32:KERNEL32.dll
 0002:00000168       __imp__GetCurrentProcess@0 0045d168     kernel32:KERNEL32.dll
 0002:0000016c       __imp__HeapSize@12         0045d16c     kernel32:KERNEL32.dll
 0002:00000170       __imp__GetCurrentThreadId@0 0045d170     kernel32:KERNEL32.dll
 0002:00000174       __imp__TlsSetValue@8       0045d174     kernel32:KERNEL32.dll
 0002:00000178       __imp__TlsAlloc@0          0045d178     kernel32:KERNEL32.dll
 0002:0000017c       __imp__TlsFree@4           0045d17c     kernel32:KERNEL32.dll
 0002:00000180       __imp__TlsGetValue@4       0045d180     kernel32:KERNEL32.dll
 0002:00000184       __imp__GetCurrentThread@0  0045d184     kernel32:KERNEL32.dll
 0002:00000188       __imp__SetUnhandledExceptionFilter@4 0045d188     kernel32:KERNEL32.dll
 0002:0000018c       __imp__UnhandledExceptionFilter@4 0045d18c     kernel32:KERNEL32.dll
 0002:00000190       __imp__FreeEnvironmentStringsA@4 0045d190     kernel32:KERNEL32.dll
 0002:00000194       __imp__FreeEnvironmentStringsW@4 0045d194     kernel32:KERNEL32.dll
 0002:00000198       __imp__GetEnvironmentStrings@0 0045d198     kernel32:KERNEL32.dll
 0002:0000019c       __imp__GetEnvironmentStringsW@0 0045d19c     kernel32:KERNEL32.dll
 0002:000001a0       __imp__GetModuleHandleA@4  0045d1a0     kernel32:KERNEL32.dll
 0002:000001a4       __imp__GetEnvironmentVariableA@12 0045d1a4     kernel32:KERNEL32.dll
 0002:000001a8       __imp__HeapDestroy@4       0045d1a8     kernel32:KERNEL32.dll
 0002:000001ac       __imp__HeapCreate@12       0045d1ac     kernel32:KERNEL32.dll
 0002:000001b0       __imp__VirtualFree@12      0045d1b0     kernel32:KERNEL32.dll
 0002:000001b4       __imp__FatalAppExitA@8     0045d1b4     kernel32:KERNEL32.dll
 0002:000001b8       __imp__VirtualAlloc@16     0045d1b8     kernel32:KERNEL32.dll
 0002:000001bc       __imp__IsBadWritePtr@8     0045d1bc     kernel32:KERNEL32.dll
 0002:000001c0       __imp__PeekNamedPipe@24    0045d1c0     kernel32:KERNEL32.dll
 0002:000001c4       \177KERNEL32_NULL_THUNK_DATA 0045d1c4     kernel32:KERNEL32.dll
 0002:000001c8       __imp__wsprintfA           0045d1c8     user32:USER32.dll
 0002:000001cc       __imp__MessageBeep@4       0045d1cc     user32:USER32.dll
 0002:000001d0       __imp__MessageBoxA@16      0045d1d0     user32:USER32.dll
 0002:000001d4       \177USER32_NULL_THUNK_DATA 0045d1d4     user32:USER32.dll
 0002:000001d8       __imp__VerQueryValueA@16   0045d1d8     Version:VERSION.dll
 0002:000001dc       __imp__GetFileVersionInfoA@16 0045d1dc     Version:VERSION.dll
 0002:000001e0       __imp__GetFileVersionInfoSizeA@8 0045d1e0     Version:VERSION.dll
 0002:000001e4       \177VERSION_NULL_THUNK_DATA 0045d1e4     Version:VERSION.dll
 0002:000001e8       __imp__inet_addr@4         0045d1e8     ws2_32:WS2_32.dll
 0002:000001ec       __imp__WSACleanup@0        0045d1ec     ws2_32:WS2_32.dll
 0002:000001f0       __imp__gethostbyname@4     0045d1f0     ws2_32:WS2_32.dll
 0002:000001f4       __imp__gethostname@8       0045d1f4     ws2_32:WS2_32.dll
 0002:000001f8       __imp__WSAStartup@8        0045d1f8     ws2_32:WS2_32.dll
 0002:000001fc       __imp__WSAGetLastError@0   0045d1fc     ws2_32:WS2_32.dll
 0002:00000200       \177WS2_32_NULL_THUNK_DATA 0045d200     ws2_32:WS2_32.dll
 0002:00000230       _IID_IDocHostUIHandlerDispatch 0045d230     GameServer.obj
 0002:00000240       _IID_IInternalConnection   0045d240     GameServer.obj
 0002:00000250       _IID_IAxWinAmbientDispatch 0045d250     GameServer.obj
 0002:00000260       _IID_IAxWinHostWindow      0045d260     GameServer.obj
 0002:00000270       _IID_IRegistrar            0045d270     GameServer.obj
 0002:00000280       _CLSID_Registrar           0045d280     GameServer.obj
 0002:00000290       _LIBID_ATLLib              0045d290     GameServer.obj
 0002:000002a0       _IID_IESClient             0045d2a0     KSOServer.obj
 0002:000002b0       _IID_IClientFactory        0045d2b0     KSOServer.obj
 0002:000002c0       _IID_IPropertyFrame        0045d2c0     KSOServer.obj
 0002:000002d0       _CLSID_CFontPropPage       0045d2d0     KSOServer.obj
 0002:000002e0       _CLSID_CColorPropPage      0045d2e0     KSOServer.obj
 0002:000002f0       _CLSID_CPicturePropPage    0045d2f0     KSOServer.obj
 0002:00000300       _CLSID_PersistPropset      0045d300     KSOServer.obj
 0002:00000310       _CLSID_ConvertVBX          0045d310     KSOServer.obj
 0002:00000320       _CLSID_StdFont             0045d320     KSOServer.obj
 0002:00000330       _CLSID_StdPicture          0045d330     KSOServer.obj
 0002:00000340       _GUID_HIMETRIC             0045d340     KSOServer.obj
 0002:00000350       _GUID_COLOR                0045d350     KSOServer.obj
 0002:00000360       _GUID_XPOSPIXEL            0045d360     KSOServer.obj
 0002:00000370       _GUID_YPOSPIXEL            0045d370     KSOServer.obj
 0002:00000380       _GUID_XSIZEPIXEL           0045d380     KSOServer.obj
 0002:00000390       _GUID_YSIZEPIXEL           0045d390     KSOServer.obj
 0002:000003a0       _GUID_XPOS                 0045d3a0     KSOServer.obj
 0002:000003b0       _GUID_YPOS                 0045d3b0     KSOServer.obj
 0002:000003c0       _GUID_XSIZE                0045d3c0     KSOServer.obj
 0002:000003d0       _GUID_YSIZE                0045d3d0     KSOServer.obj
 0002:000003e0       _GUID_OPTIONVALUEEXCLUSIVE 0045d3e0     KSOServer.obj
 0002:000003f0       _GUID_CHECKVALUEEXCLUSIVE  0045d3f0     KSOServer.obj
 0002:00000400       _GUID_FONTNAME             0045d400     KSOServer.obj
 0002:00000410       _GUID_FONTSIZE             0045d410     KSOServer.obj
 0002:00000420       _GUID_FONTBOLD             0045d420     KSOServer.obj
 0002:00000430       _GUID_FONTITALIC           0045d430     KSOServer.obj
 0002:00000440       _GUID_FONTUNDERSCORE       0045d440     KSOServer.obj
 0002:00000450       _GUID_FONTSTRIKETHROUGH    0045d450     KSOServer.obj
 0002:00000460       _GUID_HANDLE               0045d460     KSOServer.obj
 0002:00000470       _IID_IIOCPServer           0045d470     KSOServer.obj
 0002:00000480       _IID_IServerFactory        0045d480     KSOServer.obj
 0002:00000490       ?m_snMaxBuffer@KSwordOnLineSever@@0HB 0045d490     KSOServer.obj
 0002:00000494       ?m_snBufferSize@KSwordOnLineSever@@0HB 0045d494     KSOServer.obj
 0002:00000498       ??_7KTransferUnit@@6B@     0045d498     KTransferUnit.obj
 0002:0000049c       ??_7CLibrary@Win32@OnlineGameLib@@6B@ 0045d49c     Common:Library.obj
 0002:000004a0       ??_7CException@Win32@OnlineGameLib@@6B@ 0045d4a0     Common:UsesWinsock.obj
 0002:000004ac       ??_7CWin32Exception@Win32@OnlineGameLib@@6B@ 0045d4ac     Common:UsesWinsock.obj
 0002:000004b8       ??_7Allocator@CBuffer@Win32@OnlineGameLib@@6B@ 0045d4b8     Common:Buffer.obj
 0002:000004c8       ??_7CPackager@Win32@OnlineGameLib@@6B@ 0045d4c8     Common:Buffer.obj
 0002:000008cc       ??_8?$basic_fstream@DV?$char_traits@D@_STL@@@_STL@@7B?$basic_ostream@DV?$char_traits@D@_STL@@@1@@ 0045d8cc     Common:Utils.obj
 0002:000008d4       ??_8?$basic_fstream@DV?$char_traits@D@_STL@@@_STL@@7B?$basic_istream@DV?$char_traits@D@_STL@@@1@@ 0045d8d4     Common:Utils.obj
 0002:000008dc       ??_8?$basic_ostream@DV?$char_traits@D@_STL@@@_STL@@7B@ 0045d8dc     Common:Utils.obj
 0002:000008e8       ??_7_Locale_impl@_STL@@6B@ 0045d8e8     stlport_vc6_static:locale_impl.obj
 0002:000008f8       ??_7bad_cast@@6B@          0045d8f8     stlport_vc6_static:locale_impl.obj
 0002:00000904       ??_7?$money_put@GV?$ostreambuf_iterator@GV?$char_traits@G@_STL@@@_STL@@@_STL@@6B@ 0045d904     stlport_vc6_static:locale_impl.obj
 0002:00000914       ??_7?$money_get@GV?$istreambuf_iterator@GV?$char_traits@G@_STL@@@_STL@@@_STL@@6B@ 0045d914     stlport_vc6_static:locale_impl.obj
 0002:00000924       ??_7?$time_put@GV?$ostreambuf_iterator@GV?$char_traits@G@_STL@@@_STL@@@_STL@@6B@ 0045d924     stlport_vc6_static:locale_impl.obj
 0002:00000930       ??_7?$time_get@GV?$istreambuf_iterator@GV?$char_traits@G@_STL@@@_STL@@@_STL@@6B@ 0045d930     stlport_vc6_static:locale_impl.obj
 0002:00000950       ??_7?$num_put@GV?$ostreambuf_iterator@GV?$char_traits@G@_STL@@@_STL@@@_STL@@6B@ 0045d950     stlport_vc6_static:locale_impl.obj
 0002:00000978       ??_7?$num_get@GV?$istreambuf_iterator@GV?$char_traits@G@_STL@@@_STL@@@_STL@@6B@ 0045d978     stlport_vc6_static:locale_impl.obj
 0002:000009ac       ??_7?$numpunct@G@_STL@@6B@ 0045d9ac     stlport_vc6_static:locale_impl.obj
 0002:000009c8       ??_7?$codecvt@GDH@_STL@@6B@ 0045d9c8     stlport_vc6_static:locale_impl.obj
 0002:000009ec       ??_7?$collate@G@_STL@@6B@  0045d9ec     stlport_vc6_static:locale_impl.obj
 0002:00000a00       ??_7?$ctype@G@_STL@@6B@    0045da00     stlport_vc6_static:locale_impl.obj
 0002:00000a38       ??_7?$money_put@DV?$ostreambuf_iterator@DV?$char_traits@D@_STL@@@_STL@@@_STL@@6B@ 0045da38     stlport_vc6_static:locale_impl.obj
 0002:00000a48       ??_7?$money_get@DV?$istreambuf_iterator@DV?$char_traits@D@_STL@@@_STL@@@_STL@@6B@ 0045da48     stlport_vc6_static:locale_impl.obj
 0002:00000a58       ??_7?$time_put@DV?$ostreambuf_iterator@DV?$char_traits@D@_STL@@@_STL@@@_STL@@6B@ 0045da58     stlport_vc6_static:locale_impl.obj
 0002:00000a64       ??_7?$time_get@DV?$istreambuf_iterator@DV?$char_traits@D@_STL@@@_STL@@@_STL@@6B@ 0045da64     stlport_vc6_static:locale_impl.obj
 0002:00000a84       ??_7facet@locale@_STL@@6B@ 0045da84     stlport_vc6_static:locale_impl.obj
 0002:00000a8c       ??_7?$num_put@DV?$ostreambuf_iterator@DV?$char_traits@D@_STL@@@_STL@@@_STL@@6B@ 0045da8c     stlport_vc6_static:locale_impl.obj
 0002:00000ab4       ??_7?$num_get@DV?$istreambuf_iterator@DV?$char_traits@D@_STL@@@_STL@@@_STL@@6B@ 0045dab4     stlport_vc6_static:locale_impl.obj
 0002:00000ae8       ??_7?$numpunct@D@_STL@@6B@ 0045dae8     stlport_vc6_static:locale_impl.obj
 0002:00000b04       ??_7?$codecvt@DDH@_STL@@6B@ 0045db04     stlport_vc6_static:locale_impl.obj
 0002:00000b28       ??_7?$collate@D@_STL@@6B@  0045db28     stlport_vc6_static:locale_impl.obj
 0002:00000b3c       ??_7runtime_error@_STL@@6B@ 0045db3c     stlport_vc6_static:locale_impl.obj
 0002:00000b48       ??_7__Named_exception@_STL@@6B@ 0045db48     stlport_vc6_static:locale_impl.obj
 0002:00000b50       __real@8@43fefffffffffffff800 0045db50     stlport_vc6_static:locale_impl.obj
 0002:00000b58       __real@8@00000000000000000000 0045db58     stlport_vc6_static:locale_impl.obj
 0002:00000b64       ??_7?$basic_istream@DV?$char_traits@D@_STL@@@_STL@@6B@ 0045db64     stlport_vc6_static:iostream.obj
 0002:00000b6c       ??_7?$basic_ostream@DV?$char_traits@D@_STL@@@_STL@@6B@ 0045db6c     stlport_vc6_static:iostream.obj
 0002:00000b74       ??_7?$basic_istream@GV?$char_traits@G@_STL@@@_STL@@6B@ 0045db74     stlport_vc6_static:iostream.obj
 0002:00000b7c       ??_7?$basic_ostream@GV?$char_traits@G@_STL@@@_STL@@6B@ 0045db7c     stlport_vc6_static:iostream.obj
 0002:00000b84       ??_7?$basic_filebuf@DV?$char_traits@D@_STL@@@_STL@@6B@ 0045db84     stlport_vc6_static:iostream.obj
 0002:00000bc0       ??_7?$basic_streambuf@DV?$char_traits@D@_STL@@@_STL@@6B@ 0045dbc0     stlport_vc6_static:iostream.obj
 0002:00000bfc       ??_7?$basic_filebuf@GV?$char_traits@G@_STL@@@_STL@@6B@ 0045dbfc     stlport_vc6_static:iostream.obj
 0002:00000c38       ??_7?$basic_streambuf@GV?$char_traits@G@_STL@@@_STL@@6B@ 0045dc38     stlport_vc6_static:iostream.obj
 0002:00000c74       ??_7stdio_ostreambuf@_SgI@@6B@ 0045dc74     stlport_vc6_static:iostream.obj
 0002:00000cb0       ??_7stdio_istreambuf@_SgI@@6B@ 0045dcb0     stlport_vc6_static:iostream.obj
 0002:00000ce8       ??_8?$basic_istream@DV?$char_traits@D@_STL@@@_STL@@7B@ 0045dce8     stlport_vc6_static:iostream.obj
 0002:00000cf4       ??_7?$basic_ios@DV?$char_traits@D@_STL@@@_STL@@6B@ 0045dcf4     stlport_vc6_static:iostream.obj
 0002:00000cfc       ??_7?$basic_ios@GV?$char_traits@G@_STL@@@_STL@@6B@ 0045dcfc     stlport_vc6_static:iostream.obj
 0002:00000d00       ??_8?$basic_istream@GV?$char_traits@G@_STL@@@_STL@@7B@ 0045dd00     stlport_vc6_static:iostream.obj
 0002:00000d08       ??_8?$basic_ostream@GV?$char_traits@G@_STL@@@_STL@@7B@ 0045dd08     stlport_vc6_static:iostream.obj
 0002:00000d14       ??_7failure@ios_base@_STL@@6B@ 0045dd14     stlport_vc6_static:ios.obj
 0002:00000d20       ??_7ios_base@_STL@@6B@     0045dd20     stlport_vc6_static:ios.obj
 0002:00000d28       ??_7range_error@_STL@@6B@  0045dd28     stlport_vc6_static:dll_main.obj
 0002:00000d34       ??_7out_of_range@_STL@@6B@ 0045dd34     stlport_vc6_static:dll_main.obj
 0002:00000d40       ??_7logic_error@_STL@@6B@  0045dd40     stlport_vc6_static:dll_main.obj
 0002:00000d4c       ??_7length_error@_STL@@6B@ 0045dd4c     stlport_vc6_static:dll_main.obj
 0002:00000d58       ??_7invalid_argument@_STL@@6B@ 0045dd58     stlport_vc6_static:dll_main.obj
 0002:00000d64       ??_7overflow_error@_STL@@6B@ 0045dd64     stlport_vc6_static:dll_main.obj
 0002:00000d70       ??_7domain_error@_STL@@6B@ 0045dd70     stlport_vc6_static:dll_main.obj
 0002:00000d7c       ??_7underflow_error@_STL@@6B@ 0045dd7c     stlport_vc6_static:dll_main.obj
 0002:00000d88       ??_7bad_alloc@std@@6B@     0045dd88     stlport_vc6_static:dll_main.obj
 0002:00000d98       ??_7?$basic_ifstream@DV?$char_traits@D@_STL@@@_STL@@6B@ 0045dd98     stlport_vc6_static:fstream.obj
 0002:00000d9c       ??_8?$basic_ifstream@DV?$char_traits@D@_STL@@@_STL@@7B@ 0045dd9c     stlport_vc6_static:fstream.obj
 0002:00000da8       ??_7?$basic_ofstream@DV?$char_traits@D@_STL@@@_STL@@6B@ 0045dda8     stlport_vc6_static:fstream.obj
 0002:00000dac       ??_8?$basic_ofstream@DV?$char_traits@D@_STL@@@_STL@@7B@ 0045ddac     stlport_vc6_static:fstream.obj
 0002:00000db8       ??_7?$basic_fstream@DV?$char_traits@D@_STL@@@_STL@@6B@ 0045ddb8     stlport_vc6_static:fstream.obj
 0002:00000dc0       ??_7?$basic_iostream@DV?$char_traits@D@_STL@@@_STL@@6B@ 0045ddc0     stlport_vc6_static:fstream.obj
 0002:00000dc8       ??_7?$basic_ifstream@GV?$char_traits@G@_STL@@@_STL@@6B@ 0045ddc8     stlport_vc6_static:fstream.obj
 0002:00000dcc       ??_8?$basic_ifstream@GV?$char_traits@G@_STL@@@_STL@@7B@ 0045ddcc     stlport_vc6_static:fstream.obj
 0002:00000dd8       ??_7?$basic_ofstream@GV?$char_traits@G@_STL@@@_STL@@6B@ 0045ddd8     stlport_vc6_static:fstream.obj
 0002:00000ddc       ??_8?$basic_ofstream@GV?$char_traits@G@_STL@@@_STL@@7B@ 0045dddc     stlport_vc6_static:fstream.obj
 0002:00000de8       ??_7?$basic_fstream@GV?$char_traits@G@_STL@@@_STL@@6B@ 0045dde8     stlport_vc6_static:fstream.obj
 0002:00000df0       ??_7?$basic_iostream@GV?$char_traits@G@_STL@@@_STL@@6B@ 0045ddf0     stlport_vc6_static:fstream.obj
 0002:00000df4       ??_8?$basic_fstream@GV?$char_traits@G@_STL@@@_STL@@7B?$basic_ostream@GV?$char_traits@G@_STL@@@1@@ 0045ddf4     stlport_vc6_static:fstream.obj
 0002:00000dfc       ??_8?$basic_fstream@GV?$char_traits@G@_STL@@@_STL@@7B?$basic_istream@GV?$char_traits@G@_STL@@@1@@ 0045ddfc     stlport_vc6_static:fstream.obj
 0002:00000e08       ??_7?$messages@D@_STL@@6B@ 0045de08     stlport_vc6_static:messages.obj
 0002:00000e1c       ??_7_Messages@_STL@@6B@    0045de1c     stlport_vc6_static:messages.obj
 0002:00000e34       ??_7?$messages@G@_STL@@6B@ 0045de34     stlport_vc6_static:messages.obj
 0002:00000e44       ?_S_classic_table@?$ctype@D@_STL@@0QBW4mask@ctype_base@2@B 0045de44     stlport_vc6_static:ctype.obj
 0002:00001248       ?_S_upper@?$ctype@D@_STL@@0QBEB 0045e248     stlport_vc6_static:ctype.obj
 0002:00001348       ?_S_lower@?$ctype@D@_STL@@0QBEB 0045e348     stlport_vc6_static:ctype.obj
 0002:0000144c       ??_7?$ctype@D@_STL@@6B@    0045e44c     stlport_vc6_static:ctype.obj
 0002:00001474       ??_7?$moneypunct@D$00@_STL@@6B@ 0045e474     stlport_vc6_static:monetary.obj
 0002:000014a0       ??_7?$moneypunct@D$0A@@_STL@@6B@ 0045e4a0     stlport_vc6_static:monetary.obj
 0002:000014cc       ??_7?$moneypunct@G$00@_STL@@6B@ 0045e4cc     stlport_vc6_static:monetary.obj
 0002:000014f8       ??_7?$moneypunct@G$0A@@_STL@@6B@ 0045e4f8     stlport_vc6_static:monetary.obj
 0002:00001824       ?__digit_val_table@_STL@@3QBEB 0045e824     stlport_vc6_static:num_get.obj
 0002:000018a4       ?__narrow_atoms@_STL@@3QBDB 0045e8a4     stlport_vc6_static:num_get.obj
 0002:000018ac       ?__hex_char_table_lo@_STL@@3QBDB 0045e8ac     stlport_vc6_static:num_put.obj
 0002:000018c0       ?__hex_char_table_hi@_STL@@3QBDB 0045e8c0     stlport_vc6_static:num_put.obj
 0002:00001bf8       ?_D_inf@?$_LimG@_N@_STL@@2T_D_rep@2@B 0045ebf8     stlport_vc6_static:num_get_float.obj
 0002:00001c00       ?_L_inf@?$_LimG@_N@_STL@@2T_L_rep@2@B 0045ec00     stlport_vc6_static:num_get_float.obj
 0002:00001c14       ??_7stdio_streambuf_base@_SgI@@6B@ 0045ec14     stlport_vc6_static:stdio_streambuf.obj
 0002:00001c80       ??_7type_info@@6B@         0045ec80     LIBCMT:typinfo.obj
 0002:00001cbc       ??_7exception@@6B@         0045ecbc     LIBCMT:stdexcpt.obj
 0002:00001cc4       ??_C@_0BC@OIDF@Unknown?5exception?$AA@ 0045ecc4     LIBCMT:stdexcpt.obj
 0002:00001cd8       ??_C@_02BGDO@?$DN?$DL?$AA@ 0045ecd8     LIBCMT:setlocal.obj
 0002:00001cdc       ??_C@_01KPOD@?$DN?$AA@     0045ecdc     LIBCMT:setlocal.obj
 0002:00001d28       __real@8@3fff8000000000000000 0045ed28     LIBCMT:ieeemisc.obj
 0002:00001dc0       ___lookuptable             0045edc0     LIBCMT:output.obj
 0002:00001e1c       ??_C@_1O@POHA@?$AA?$CI?$AAn?$AAu?$AAl?$AAl?$AA?$CJ?$AA?$AA@ 0045ee1c     LIBCMT:output.obj
 0002:00001e2c       ??_C@_06ONKE@?$CInull?$CJ?$AA@ 0045ee2c     LIBCMT:output.obj
 0002:00001e34       ??_C@_0BH@PHHF@__GLOBAL_HEAP_SELECTED?$AA@ 0045ee34     LIBCMT:heapinit.obj
 0002:00001e4c       ??_C@_0BF@BBGL@__MSVCRT_HEAP_SELECT?$AA@ 0045ee4c     LIBCMT:heapinit.obj
 0002:00001e64       ??_C@_0P@GGKG@runtime?5error?5?$AA@ 0045ee64     LIBCMT:crt0msg.obj
 0002:00001e74       ??_C@_02PIMC@?$AN?6?$AA@   0045ee74     LIBCMT:crt0msg.obj
 0002:00001e78       ??_C@_0O@DELO@TLOSS?5error?$AN?6?$AA@ 0045ee78     LIBCMT:crt0msg.obj
 0002:00001e88       ??_C@_0N@OMLL@SING?5error?$AN?6?$AA@ 0045ee88     LIBCMT:crt0msg.obj
 0002:00001e98       ??_C@_0P@OJAK@DOMAIN?5error?$AN?6?$AA@ 0045ee98     LIBCMT:crt0msg.obj
 0002:00001ea8       ??_C@_0CF@EANP@R6028?$AN?6?9?5unable?5to?5initialize?5he@ 0045eea8     LIBCMT:crt0msg.obj
 0002:00001ed0       ??_C@_0DF@ECGN@R6027?$AN?6?9?5not?5enough?5space?5for?5lo@ 0045eed0     LIBCMT:crt0msg.obj
 0002:00001f08       ??_C@_0DF@FKAC@R6026?$AN?6?9?5not?5enough?5space?5for?5st@ 0045ef08     LIBCMT:crt0msg.obj
 0002:00001f40       ??_C@_0CG@DPMN@R6025?$AN?6?9?5pure?5virtual?5function?5c@ 0045ef40     LIBCMT:crt0msg.obj
 0002:00001f68       ??_C@_0DF@CKIP@R6024?$AN?6?9?5not?5enough?5space?5for?5_o@ 0045ef68     LIBCMT:crt0msg.obj
 0002:00001fa0       ??_C@_0CJ@GGOE@R6019?$AN?6?9?5unable?5to?5open?5console?5@ 0045efa0     LIBCMT:crt0msg.obj
 0002:00001fcc       ??_C@_0CB@LBOB@R6018?$AN?6?9?5unexpected?5heap?5error?$AN?6@ 0045efcc     LIBCMT:crt0msg.obj
 0002:00001ff0       ??_C@_0CN@FPEG@R6017?$AN?6?9?5unexpected?5multithread?5@ 0045eff0     LIBCMT:crt0msg.obj
 0002:00002020       ??_C@_0CM@OBIC@R6016?$AN?6?9?5not?5enough?5space?5for?5th@ 0045f020     LIBCMT:crt0msg.obj
 0002:0000204c       ??_C@_0CB@HPAL@?$AN?6abnormal?5program?5termination?$AN?6@ 0045f04c     LIBCMT:crt0msg.obj
 0002:00002070       ??_C@_0CM@JOOB@R6009?$AN?6?9?5not?5enough?5space?5for?5en@ 0045f070     LIBCMT:crt0msg.obj
 0002:0000209c       ??_C@_0CK@OIBL@R6008?$AN?6?9?5not?5enough?5space?5for?5ar@ 0045f09c     LIBCMT:crt0msg.obj
 0002:000020c8       ??_C@_0CF@LKPB@R6002?$AN?6?9?5floating?5point?5not?5load@ 0045f0c8     LIBCMT:crt0msg.obj
 0002:000020f0       ??_C@_0CF@JPDF@Microsoft?5Visual?5C?$CL?$CL?5Runtime?5Lib@ 0045f0f0     LIBCMT:crt0msg.obj
 0002:00002118       ??_C@_02JJJH@?6?6?$AA@     0045f118     LIBCMT:crt0msg.obj
 0002:0000211c       ??_C@_0BK@DEOK@Runtime?5Error?$CB?6?6Program?3?5?$AA@ 0045f11c     LIBCMT:crt0msg.obj
 0002:00002138       ??_C@_03NAME@?4?4?4?$AA@   0045f138     LIBCMT:crt0msg.obj
 0002:0000213c       ??_C@_0BH@NNCD@?$DMprogram?5name?5unknown?$DO?$AA@ 0045f13c     LIBCMT:crt0msg.obj
 0002:00002154       ??_C@_01A@?$AA?$AA@        0045f154     LIBCMT:a_map.obj
 0002:00002158       ??_C@_13A@?$AA?$AA?$AA?$AA@ 0045f158     LIBCMT:a_map.obj
 0002:00002178       ??_C@_08OBJD@Paraguay?$AA@ 0045f178     LIBCMT:getqloc.obj
 0002:00002184       ??_C@_07GLKH@Uruguay?$AA@  0045f184     LIBCMT:getqloc.obj
 0002:0000218c       ??_C@_05FPFC@Chile?$AA@    0045f18c     LIBCMT:getqloc.obj
 0002:00002194       ??_C@_07IIGF@Ecuador?$AA@  0045f194     LIBCMT:getqloc.obj
 0002:0000219c       ??_C@_09PKAL@Argentina?$AA@ 0045f19c     LIBCMT:getqloc.obj
 0002:000021a8       ??_C@_04LKAH@Peru?$AA@     0045f1a8     LIBCMT:getqloc.obj
 0002:000021b0       ??_C@_08NEEM@Colombia?$AA@ 0045f1b0     LIBCMT:getqloc.obj
 0002:000021bc       ??_C@_09ODEB@Venezuela?$AA@ 0045f1bc     LIBCMT:getqloc.obj
 0002:000021c8       ??_C@_0BD@CLEL@Dominican?5Republic?$AA@ 0045f1c8     LIBCMT:getqloc.obj
 0002:000021dc       ??_C@_0N@MDGL@South?5Africa?$AA@ 0045f1dc     LIBCMT:getqloc.obj
 0002:000021ec       ??_C@_06NKBG@Panama?$AA@   0045f1ec     LIBCMT:getqloc.obj
 0002:000021f4       ??_C@_0L@BMHO@Luxembourg?$AA@ 0045f1f4     LIBCMT:getqloc.obj
 0002:00002200       ??_C@_0L@IMDK@Costa?5Rica?$AA@ 0045f200     LIBCMT:getqloc.obj
 0002:0000220c       ??_C@_0M@BLJF@Switzerland?$AA@ 0045f20c     LIBCMT:getqloc.obj
 0002:00002218       ??_C@_09KBOL@Guatemala?$AA@ 0045f218     LIBCMT:getqloc.obj
 0002:00002224       ??_C@_06JNAK@Canada?$AA@   0045f224     LIBCMT:getqloc.obj
 0002:0000222c       ??_C@_0BG@OLLP@Spanish?5?9?5Modern?5Sort?$AA@ 0045f22c     LIBCMT:getqloc.obj
 0002:00002244       ??_C@_09IDKE@Australia?$AA@ 0045f244     LIBCMT:getqloc.obj
 0002:00002250       ??_C@_07JJJJ@English?$AA@  0045f250     LIBCMT:getqloc.obj
 0002:00002258       ??_C@_07NMDO@Austria?$AA@  0045f258     LIBCMT:getqloc.obj
 0002:00002260       ??_C@_06DEFE@German?$AA@   0045f260     LIBCMT:getqloc.obj
 0002:00002268       ??_C@_07JAIH@Belgium?$AA@  0045f268     LIBCMT:getqloc.obj
 0002:00002270       ??_C@_06BNLJ@Mexico?$AA@   0045f270     LIBCMT:getqloc.obj
 0002:00002278       ??_C@_07JHAG@Spanish?$AA@  0045f278     LIBCMT:getqloc.obj
 0002:00002280       ??_C@_06DADE@Basque?$AA@   0045f280     LIBCMT:getqloc.obj
 0002:00002288       ??_C@_06ENFP@Sweden?$AA@   0045f288     LIBCMT:getqloc.obj
 0002:00002290       ??_C@_07JPMH@Swedish?$AA@  0045f290     LIBCMT:getqloc.obj
 0002:00002298       ??_C@_07IEKF@Iceland?$AA@  0045f298     LIBCMT:getqloc.obj
 0002:000022a0       ??_C@_09KNEA@Icelandic?$AA@ 0045f2a0     LIBCMT:getqloc.obj
 0002:000022ac       ??_C@_06IJOD@France?$AA@   0045f2ac     LIBCMT:getqloc.obj
 0002:000022b4       ??_C@_06EINI@French?$AA@   0045f2b4     LIBCMT:getqloc.obj
 0002:000022bc       ??_C@_07FOOE@Finland?$AA@  0045f2bc     LIBCMT:getqloc.obj
 0002:000022c4       ??_C@_07OJOM@Finnish?$AA@  0045f2c4     LIBCMT:getqloc.obj
 0002:000022cc       ??_C@_05FFAC@Spain?$AA@    0045f2cc     LIBCMT:getqloc.obj
 0002:000022d4       ??_C@_0BL@BIHM@Spanish?5?9?5Traditional?5Sort?$AA@ 0045f2d4     LIBCMT:getqloc.obj
 0002:000022f0       __real@8@4015800bf60000000000 0045f2f0     LIBCMT:testfdiv.obj
 0002:000022f8       __real@8@4014bffffc0000000000 0045f2f8     LIBCMT:testfdiv.obj
 0002:00002300       ??_C@_0BK@JEGK@IsProcessorFeaturePresent?$AA@ 0045f300     LIBCMT:testfdiv.obj
 0002:0000231c       ??_C@_08OBID@KERNEL32?$AA@ 0045f31c     LIBCMT:testfdiv.obj
 0002:00002328       ??_C@_05OFLO@e?$CL000?$AA@ 0045f328     LIBCMT:cvt.obj
 0002:00002348       ??_C@_03GAFO@_yn?$AA@      0045f348     LIBCMT:fpexcept.obj
 0002:0000234c       ??_C@_03GNLD@_y1?$AA@      0045f34c     LIBCMT:fpexcept.obj
 0002:00002350       ??_C@_03MHCE@_y0?$AA@      0045f350     LIBCMT:fpexcept.obj
 0002:00002354       ??_C@_05PAK@frexp?$AA@     0045f354     LIBCMT:fpexcept.obj
 0002:0000235c       ??_C@_04JKCH@fmod?$AA@     0045f35c     LIBCMT:fpexcept.obj
 0002:00002364       ??_C@_06GGHF@_hypot?$AA@   0045f364     LIBCMT:fpexcept.obj
 0002:0000236c       ??_C@_05JNMC@_cabs?$AA@    0045f36c     LIBCMT:fpexcept.obj
 0002:00002374       ??_C@_05MEKH@ldexp?$AA@    0045f374     LIBCMT:fpexcept.obj
 0002:0000237c       ??_C@_04KAOJ@modf?$AA@     0045f37c     LIBCMT:fpexcept.obj
 0002:00002384       ??_C@_04EHAJ@fabs?$AA@     0045f384     LIBCMT:fpexcept.obj
 0002:0000238c       ??_C@_05MFBN@floor?$AA@    0045f38c     LIBCMT:fpexcept.obj
 0002:00002394       ??_C@_04JJMP@ceil?$AA@     0045f394     LIBCMT:fpexcept.obj
 0002:0000239c       ??_C@_03JLPI@tan?$AA@      0045f39c     LIBCMT:fpexcept.obj
 0002:000023a0       ??_C@_03DLFL@cos?$AA@      0045f3a0     LIBCMT:fpexcept.obj
 0002:000023a4       ??_C@_03JAMN@sin?$AA@      0045f3a4     LIBCMT:fpexcept.obj
 0002:000023a8       ??_C@_04LMBE@sqrt?$AA@     0045f3a8     LIBCMT:fpexcept.obj
 0002:000023b0       ??_C@_05BFPO@atan2?$AA@    0045f3b0     LIBCMT:fpexcept.obj
 0002:000023b8       ??_C@_04EAGN@atan?$AA@     0045f3b8     LIBCMT:fpexcept.obj
 0002:000023c0       ??_C@_04OAMO@acos?$AA@     0045f3c0     LIBCMT:fpexcept.obj
 0002:000023c8       ??_C@_04ELFI@asin?$AA@     0045f3c8     LIBCMT:fpexcept.obj
 0002:000023d0       ??_C@_04LFAD@tanh?$AA@     0045f3d0     LIBCMT:fpexcept.obj
 0002:000023d8       ??_C@_04PFKD@cosh?$AA@     0045f3d8     LIBCMT:fpexcept.obj
 0002:000023e0       ??_C@_04NPAI@sinh?$AA@     0045f3e0     LIBCMT:fpexcept.obj
 0002:000023e8       ??_C@_05IJHH@log10?$AA@    0045f3e8     LIBCMT:fpexcept.obj
 0002:000023f0       ??_C@_03BGKD@log?$AA@      0045f3f0     LIBCMT:fpexcept.obj
 0002:000023f4       ??_C@_03EGFG@pow?$AA@      0045f3f4     LIBCMT:fpexcept.obj
 0002:000023f8       ??_C@_03CDGJ@exp?$AA@      0045f3f8     LIBCMT:fpexcept.obj
 0002:0000240c       ??_C@_0BD@NJFP@GetLastActivePopup?$AA@ 0045f40c     LIBCMT:crtmbox.obj
 0002:00002420       ??_C@_0BA@GILI@GetActiveWindow?$AA@ 0045f420     LIBCMT:crtmbox.obj
 0002:00002430       ??_C@_0M@PKCK@MessageBoxA?$AA@ 0045f430     LIBCMT:crtmbox.obj
 0002:0000243c       ??_C@_0L@HKL@user32?4dll?$AA@ 0045f43c     LIBCMT:crtmbox.obj
 0002:00002448       ??_C@_07CJME@H?3mm?3ss?$AA@ 0045f448     LIBCMT:strftime.obj
 0002:00002450       ??_C@_0BE@MHI@dddd?0?5MMMM?5dd?0?5yyyy?$AA@ 0045f450     LIBCMT:strftime.obj
 0002:00002464       ??_C@_06HCAD@M?1d?1yy?$AA@ 0045f464     LIBCMT:strftime.obj
 0002:0000246c       ??_C@_08LIDF@December?$AA@ 0045f46c     LIBCMT:strftime.obj
 0002:00002478       ??_C@_08NJLI@November?$AA@ 0045f478     LIBCMT:strftime.obj
 0002:00002484       ??_C@_07IAMM@October?$AA@  0045f484     LIBCMT:strftime.obj
 0002:0000248c       ??_C@_09MKGD@September?$AA@ 0045f48c     LIBCMT:strftime.obj
 0002:00002498       ??_C@_06PADP@August?$AA@   0045f498     LIBCMT:strftime.obj
 0002:000024a0       ??_C@_04PIJO@July?$AA@     0045f4a0     LIBCMT:strftime.obj
 0002:000024a8       ??_C@_04ICFP@June?$AA@     0045f4a8     LIBCMT:strftime.obj
 0002:000024b0       ??_C@_05JFGC@April?$AA@    0045f4b0     LIBCMT:strftime.obj
 0002:000024b8       ??_C@_05FGPD@March?$AA@    0045f4b8     LIBCMT:strftime.obj
 0002:000024c0       ??_C@_08PGBA@February?$AA@ 0045f4c0     LIBCMT:strftime.obj
 0002:000024cc       ??_C@_07BPKJ@January?$AA@  0045f4cc     LIBCMT:strftime.obj
 0002:000024d4       ??_C@_03PGJO@Dec?$AA@      0045f4d4     LIBCMT:strftime.obj
 0002:000024d8       ??_C@_03PDLM@Nov?$AA@      0045f4d8     LIBCMT:strftime.obj
 0002:000024dc       ??_C@_03BLHK@Oct?$AA@      0045f4dc     LIBCMT:strftime.obj
 0002:000024e0       ??_C@_03DPFM@Sep?$AA@      0045f4e0     LIBCMT:strftime.obj
 0002:000024e4       ??_C@_03CMCH@Aug?$AA@      0045f4e4     LIBCMT:strftime.obj
 0002:000024e8       ??_C@_03OBKI@Jul?$AA@      0045f4e8     LIBCMT:strftime.obj
 0002:000024ec       ??_C@_03LEIG@Jun?$AA@      0045f4ec     LIBCMT:strftime.obj
 0002:000024f0       ??_C@_03MGHB@May?$AA@      0045f4f0     LIBCMT:strftime.obj
 0002:000024f4       ??_C@_03MJJM@Apr?$AA@      0045f4f4     LIBCMT:strftime.obj
 0002:000024f8       ??_C@_03GNHA@Mar?$AA@      0045f4f8     LIBCMT:strftime.obj
 0002:000024fc       ??_C@_03PICE@Feb?$AA@      0045f4fc     LIBCMT:strftime.obj
 0002:00002500       ??_C@_03IEIF@Jan?$AA@      0045f500     LIBCMT:strftime.obj
 0002:00002504       ??_C@_08FAKH@Saturday?$AA@ 0045f504     LIBCMT:strftime.obj
 0002:00002510       ??_C@_06ONCK@Friday?$AA@   0045f510     LIBCMT:strftime.obj
 0002:00002518       ??_C@_08CCFO@Thursday?$AA@ 0045f518     LIBCMT:strftime.obj
 0002:00002524       ??_C@_09PBIN@Wednesday?$AA@ 0045f524     LIBCMT:strftime.obj
 0002:00002530       ??_C@_07BMBC@Tuesday?$AA@  0045f530     LIBCMT:strftime.obj
 0002:00002538       ??_C@_06CHLK@Monday?$AA@   0045f538     LIBCMT:strftime.obj
 0002:00002540       ??_C@_06OOEM@Sunday?$AA@   0045f540     LIBCMT:strftime.obj
 0002:00002548       ??_C@_03MPKK@Sat?$AA@      0045f548     LIBCMT:strftime.obj
 0002:0000254c       ??_C@_03FINJ@Fri?$AA@      0045f54c     LIBCMT:strftime.obj
 0002:00002550       ??_C@_03HIKC@Thu?$AA@      0045f550     LIBCMT:strftime.obj
 0002:00002554       ??_C@_03HECK@Wed?$AA@      0045f554     LIBCMT:strftime.obj
 0002:00002558       ??_C@_03ECCP@Tue?$AA@      0045f558     LIBCMT:strftime.obj
 0002:0000255c       ??_C@_03PIEP@Mon?$AA@      0045f55c     LIBCMT:strftime.obj
 0002:00002560       ??_C@_03FHEP@Sun?$AA@      0045f560     LIBCMT:strftime.obj
 0002:00002564       ??_C@_03MKGK@a?1p?$AA@     0045f564     LIBCMT:strftime.obj
 0002:00002568       ??_C@_05BDJK@am?1pm?$AA@   0045f568     LIBCMT:strftime.obj
 0002:00002588       ??_C@_06PAPI@1?$CDQNAN?$AA@ 0045f588     LIBCMT:x10fout.obj
 0002:00002590       ??_C@_05BGNL@1?$CDINF?$AA@ 0045f590     LIBCMT:x10fout.obj
 0002:00002598       ??_C@_05EDPF@1?$CDIND?$AA@ 0045f598     LIBCMT:x10fout.obj
 0002:000025a0       ??_C@_06LKFM@1?$CDSNAN?$AA@ 0045f5a0     LIBCMT:x10fout.obj
 0002:000025a8       ___dnames                  0045f5a8     LIBCMT:timeset.obj
 0002:000025c0       ___mnames                  0045f5c0     LIBCMT:timeset.obj
 0002:000025e8       ??_C@_02JHIA@TZ?$AA@       0045f5e8     LIBCMT:tzset.obj
 0002:00002628       ??_R1A@?0A@A@_Locale_impl@_STL@@8 0045f628     stlport_vc6_static:locale_impl.obj
 0002:00002640       ??_R2_Locale_impl@_STL@@8  0045f640     stlport_vc6_static:locale_impl.obj
 0002:00002648       ??_R3_Locale_impl@_STL@@8  0045f648     stlport_vc6_static:locale_impl.obj
 0002:00002658       ??_R4_Locale_impl@_STL@@6B@ 0045f658     stlport_vc6_static:locale_impl.obj
 0002:00002670       ??_R1A@?0A@A@exception@@8  0045f670     stlport_vc6_static:locale_impl.obj
 0002:00002688       ??_R1A@?0A@A@bad_cast@@8   0045f688     stlport_vc6_static:locale_impl.obj
 0002:000026a0       ??_R2bad_cast@@8           0045f6a0     stlport_vc6_static:locale_impl.obj
 0002:000026b0       ??_R3bad_cast@@8           0045f6b0     stlport_vc6_static:locale_impl.obj
 0002:000026c0       ??_R4bad_cast@@6B@         0045f6c0     stlport_vc6_static:locale_impl.obj
 0002:000026d8       ??_R1A@?0A@A@?$time_put@DV?$ostreambuf_iterator@DV?$char_traits@D@_STL@@@_STL@@@_STL@@8 0045f6d8     stlport_vc6_static:locale_impl.obj
 0002:000026f0       ??_R2?$time_put@DV?$ostreambuf_iterator@DV?$char_traits@D@_STL@@@_STL@@@_STL@@8 0045f6f0     stlport_vc6_static:locale_impl.obj
 0002:00002708       ??_R3?$time_put@DV?$ostreambuf_iterator@DV?$char_traits@D@_STL@@@_STL@@@_STL@@8 0045f708     stlport_vc6_static:locale_impl.obj
 0002:00002718       ??_R4?$time_put@DV?$ostreambuf_iterator@DV?$char_traits@D@_STL@@@_STL@@@_STL@@6B@ 0045f718     stlport_vc6_static:locale_impl.obj
 0002:00002730       ??_R1A@?0A@A@?$num_put@DV?$ostreambuf_iterator@DV?$char_traits@D@_STL@@@_STL@@@_STL@@8 0045f730     stlport_vc6_static:locale_impl.obj
 0002:00002748       ??_R2?$num_put@DV?$ostreambuf_iterator@DV?$char_traits@D@_STL@@@_STL@@@_STL@@8 0045f748     stlport_vc6_static:locale_impl.obj
 0002:00002758       ??_R3?$num_put@DV?$ostreambuf_iterator@DV?$char_traits@D@_STL@@@_STL@@@_STL@@8 0045f758     stlport_vc6_static:locale_impl.obj
 0002:00002768       ??_R4?$num_put@DV?$ostreambuf_iterator@DV?$char_traits@D@_STL@@@_STL@@@_STL@@6B@ 0045f768     stlport_vc6_static:locale_impl.obj
 0002:00002780       ??_R1A@?0A@A@?$num_get@GV?$istreambuf_iterator@GV?$char_traits@G@_STL@@@_STL@@@_STL@@8 0045f780     stlport_vc6_static:locale_impl.obj
 0002:00002798       ??_R2?$num_get@GV?$istreambuf_iterator@GV?$char_traits@G@_STL@@@_STL@@@_STL@@8 0045f798     stlport_vc6_static:locale_impl.obj
 0002:000027a8       ??_R3?$num_get@GV?$istreambuf_iterator@GV?$char_traits@G@_STL@@@_STL@@@_STL@@8 0045f7a8     stlport_vc6_static:locale_impl.obj
 0002:000027b8       ??_R4?$num_get@GV?$istreambuf_iterator@GV?$char_traits@G@_STL@@@_STL@@@_STL@@6B@ 0045f7b8     stlport_vc6_static:locale_impl.obj
 0002:000027d0       ??_R1A@?0A@A@?$codecvt@GDH@_STL@@8 0045f7d0     stlport_vc6_static:locale_impl.obj
 0002:000027e8       ??_R2?$codecvt@GDH@_STL@@8 0045f7e8     stlport_vc6_static:locale_impl.obj
 0002:00002800       ??_R3?$codecvt@GDH@_STL@@8 0045f800     stlport_vc6_static:locale_impl.obj
 0002:00002810       ??_R4?$codecvt@GDH@_STL@@6B@ 0045f810     stlport_vc6_static:locale_impl.obj
 0002:00002828       ??_R1A@?0A@A@?$time_get@GV?$istreambuf_iterator@GV?$char_traits@G@_STL@@@_STL@@@_STL@@8 0045f828     stlport_vc6_static:locale_impl.obj
 0002:00002840       ??_R2?$time_get@GV?$istreambuf_iterator@GV?$char_traits@G@_STL@@@_STL@@@_STL@@8 0045f840     stlport_vc6_static:locale_impl.obj
 0002:00002858       ??_R3?$time_get@GV?$istreambuf_iterator@GV?$char_traits@G@_STL@@@_STL@@@_STL@@8 0045f858     stlport_vc6_static:locale_impl.obj
 0002:00002868       ??_R4?$time_get@GV?$istreambuf_iterator@GV?$char_traits@G@_STL@@@_STL@@@_STL@@6B@ 0045f868     stlport_vc6_static:locale_impl.obj
 0002:00002880       ??_R1A@?0A@A@?$time_put@GV?$ostreambuf_iterator@GV?$char_traits@G@_STL@@@_STL@@@_STL@@8 0045f880     stlport_vc6_static:locale_impl.obj
 0002:00002898       ??_R2?$time_put@GV?$ostreambuf_iterator@GV?$char_traits@G@_STL@@@_STL@@@_STL@@8 0045f898     stlport_vc6_static:locale_impl.obj
 0002:000028b0       ??_R3?$time_put@GV?$ostreambuf_iterator@GV?$char_traits@G@_STL@@@_STL@@@_STL@@8 0045f8b0     stlport_vc6_static:locale_impl.obj
 0002:000028c0       ??_R4?$time_put@GV?$ostreambuf_iterator@GV?$char_traits@G@_STL@@@_STL@@@_STL@@6B@ 0045f8c0     stlport_vc6_static:locale_impl.obj
 0002:000028d8       ??_R1A@?0A@A@?$num_get@DV?$istreambuf_iterator@DV?$char_traits@D@_STL@@@_STL@@@_STL@@8 0045f8d8     stlport_vc6_static:locale_impl.obj
 0002:000028f0       ??_R2?$num_get@DV?$istreambuf_iterator@DV?$char_traits@D@_STL@@@_STL@@@_STL@@8 0045f8f0     stlport_vc6_static:locale_impl.obj
 0002:00002900       ??_R3?$num_get@DV?$istreambuf_iterator@DV?$char_traits@D@_STL@@@_STL@@@_STL@@8 0045f900     stlport_vc6_static:locale_impl.obj
 0002:00002910       ??_R4?$num_get@DV?$istreambuf_iterator@DV?$char_traits@D@_STL@@@_STL@@@_STL@@6B@ 0045f910     stlport_vc6_static:locale_impl.obj
 0002:00002928       ??_R1A@?0A@A@?$money_get@GV?$istreambuf_iterator@GV?$char_traits@G@_STL@@@_STL@@@_STL@@8 0045f928     stlport_vc6_static:locale_impl.obj
 0002:00002940       ??_R2?$money_get@GV?$istreambuf_iterator@GV?$char_traits@G@_STL@@@_STL@@@_STL@@8 0045f940     stlport_vc6_static:locale_impl.obj
 0002:00002950       ??_R3?$money_get@GV?$istreambuf_iterator@GV?$char_traits@G@_STL@@@_STL@@@_STL@@8 0045f950     stlport_vc6_static:locale_impl.obj
 0002:00002960       ??_R4?$money_get@GV?$istreambuf_iterator@GV?$char_traits@G@_STL@@@_STL@@@_STL@@6B@ 0045f960     stlport_vc6_static:locale_impl.obj
 0002:00002978       ??_R1A@?0A@A@?$money_put@GV?$ostreambuf_iterator@GV?$char_traits@G@_STL@@@_STL@@@_STL@@8 0045f978     stlport_vc6_static:locale_impl.obj
 0002:00002990       ??_R2?$money_put@GV?$ostreambuf_iterator@GV?$char_traits@G@_STL@@@_STL@@@_STL@@8 0045f990     stlport_vc6_static:locale_impl.obj
 0002:000029a0       ??_R3?$money_put@GV?$ostreambuf_iterator@GV?$char_traits@G@_STL@@@_STL@@@_STL@@8 0045f9a0     stlport_vc6_static:locale_impl.obj
 0002:000029b0       ??_R4?$money_put@GV?$ostreambuf_iterator@GV?$char_traits@G@_STL@@@_STL@@@_STL@@6B@ 0045f9b0     stlport_vc6_static:locale_impl.obj
 0002:000029c8       ??_R1M@?0A@A@time_base@_STL@@8 0045f9c8     stlport_vc6_static:locale_impl.obj
 0002:000029e0       ??_R1A@?0A@A@?$time_get@DV?$istreambuf_iterator@DV?$char_traits@D@_STL@@@_STL@@@_STL@@8 0045f9e0     stlport_vc6_static:locale_impl.obj
 0002:000029f8       ??_R2?$time_get@DV?$istreambuf_iterator@DV?$char_traits@D@_STL@@@_STL@@@_STL@@8 0045f9f8     stlport_vc6_static:locale_impl.obj
 0002:00002a10       ??_R3?$time_get@DV?$istreambuf_iterator@DV?$char_traits@D@_STL@@@_STL@@@_STL@@8 0045fa10     stlport_vc6_static:locale_impl.obj
 0002:00002a20       ??_R4?$time_get@DV?$istreambuf_iterator@DV?$char_traits@D@_STL@@@_STL@@@_STL@@6B@ 0045fa20     stlport_vc6_static:locale_impl.obj
 0002:00002a38       ??_R1A@?0A@A@?$money_put@DV?$ostreambuf_iterator@DV?$char_traits@D@_STL@@@_STL@@@_STL@@8 0045fa38     stlport_vc6_static:locale_impl.obj
 0002:00002a50       ??_R2?$money_put@DV?$ostreambuf_iterator@DV?$char_traits@D@_STL@@@_STL@@@_STL@@8 0045fa50     stlport_vc6_static:locale_impl.obj
 0002:00002a60       ??_R3?$money_put@DV?$ostreambuf_iterator@DV?$char_traits@D@_STL@@@_STL@@@_STL@@8 0045fa60     stlport_vc6_static:locale_impl.obj
 0002:00002a70       ??_R4?$money_put@DV?$ostreambuf_iterator@DV?$char_traits@D@_STL@@@_STL@@@_STL@@6B@ 0045fa70     stlport_vc6_static:locale_impl.obj
 0002:00002a88       ??_R1A@?0A@A@?$money_get@DV?$istreambuf_iterator@DV?$char_traits@D@_STL@@@_STL@@@_STL@@8 0045fa88     stlport_vc6_static:locale_impl.obj
 0002:00002aa0       ??_R2?$money_get@DV?$istreambuf_iterator@DV?$char_traits@D@_STL@@@_STL@@@_STL@@8 0045faa0     stlport_vc6_static:locale_impl.obj
 0002:00002ab0       ??_R3?$money_get@DV?$istreambuf_iterator@DV?$char_traits@D@_STL@@@_STL@@@_STL@@8 0045fab0     stlport_vc6_static:locale_impl.obj
 0002:00002ac0       ??_R4?$money_get@DV?$istreambuf_iterator@DV?$char_traits@D@_STL@@@_STL@@@_STL@@6B@ 0045fac0     stlport_vc6_static:locale_impl.obj
 0002:00002ad8       ??_R1A@?0A@A@?$num_put@GV?$ostreambuf_iterator@GV?$char_traits@G@_STL@@@_STL@@@_STL@@8 0045fad8     stlport_vc6_static:locale_impl.obj
 0002:00002af0       ??_R2?$num_put@GV?$ostreambuf_iterator@GV?$char_traits@G@_STL@@@_STL@@@_STL@@8 0045faf0     stlport_vc6_static:locale_impl.obj
 0002:00002b00       ??_R3?$num_put@GV?$ostreambuf_iterator@GV?$char_traits@G@_STL@@@_STL@@@_STL@@8 0045fb00     stlport_vc6_static:locale_impl.obj
 0002:00002b10       ??_R4?$num_put@GV?$ostreambuf_iterator@GV?$char_traits@G@_STL@@@_STL@@@_STL@@6B@ 0045fb10     stlport_vc6_static:locale_impl.obj
 0002:00002b28       ??_R1M@?0A@A@codecvt_base@_STL@@8 0045fb28     stlport_vc6_static:locale_impl.obj
 0002:00002b40       ??_R1A@?0A@A@?$codecvt@DDH@_STL@@8 0045fb40     stlport_vc6_static:locale_impl.obj
 0002:00002b58       ??_R2?$codecvt@DDH@_STL@@8 0045fb58     stlport_vc6_static:locale_impl.obj
 0002:00002b70       ??_R3?$codecvt@DDH@_STL@@8 0045fb70     stlport_vc6_static:locale_impl.obj
 0002:00002b80       ??_R4?$codecvt@DDH@_STL@@6B@ 0045fb80     stlport_vc6_static:locale_impl.obj
 0002:00002b98       ??_R1A@?0A@A@?$collate@G@_STL@@8 0045fb98     stlport_vc6_static:locale_impl.obj
 0002:00002bb0       ??_R2?$collate@G@_STL@@8   0045fbb0     stlport_vc6_static:locale_impl.obj
 0002:00002bc0       ??_R3?$collate@G@_STL@@8   0045fbc0     stlport_vc6_static:locale_impl.obj
 0002:00002bd0       ??_R4?$collate@G@_STL@@6B@ 0045fbd0     stlport_vc6_static:locale_impl.obj
 0002:00002be8       ??_R1A@?0A@A@?$collate@D@_STL@@8 0045fbe8     stlport_vc6_static:locale_impl.obj
 0002:00002c00       ??_R2?$collate@D@_STL@@8   0045fc00     stlport_vc6_static:locale_impl.obj
 0002:00002c10       ??_R3?$collate@D@_STL@@8   0045fc10     stlport_vc6_static:locale_impl.obj
 0002:00002c20       ??_R4?$collate@D@_STL@@6B@ 0045fc20     stlport_vc6_static:locale_impl.obj
 0002:00002c38       ??_R1A@?0A@A@?$numpunct@G@_STL@@8 0045fc38     stlport_vc6_static:locale_impl.obj
 0002:00002c50       ??_R2?$numpunct@G@_STL@@8  0045fc50     stlport_vc6_static:locale_impl.obj
 0002:00002c60       ??_R3?$numpunct@G@_STL@@8  0045fc60     stlport_vc6_static:locale_impl.obj
 0002:00002c70       ??_R4?$numpunct@G@_STL@@6B@ 0045fc70     stlport_vc6_static:locale_impl.obj
 0002:00002c88       ??_R2facet@locale@_STL@@8  0045fc88     stlport_vc6_static:locale_impl.obj
 0002:00002c98       ??_R3facet@locale@_STL@@8  0045fc98     stlport_vc6_static:locale_impl.obj
 0002:00002ca8       ??_R4facet@locale@_STL@@6B@ 0045fca8     stlport_vc6_static:locale_impl.obj
 0002:00002cc0       ??_R1A@?0A@A@?$numpunct@D@_STL@@8 0045fcc0     stlport_vc6_static:locale_impl.obj
 0002:00002cd8       ??_R2?$numpunct@D@_STL@@8  0045fcd8     stlport_vc6_static:locale_impl.obj
 0002:00002ce8       ??_R3?$numpunct@D@_STL@@8  0045fce8     stlport_vc6_static:locale_impl.obj
 0002:00002cf8       ??_R4?$numpunct@D@_STL@@6B@ 0045fcf8     stlport_vc6_static:locale_impl.obj
 0002:00002d10       ??_R1M@?0A@A@ctype_base@_STL@@8 0045fd10     stlport_vc6_static:locale_impl.obj
 0002:00002d28       ??_R13?0A@8_Refcount_Base@_STL@@8 0045fd28     stlport_vc6_static:locale_impl.obj
 0002:00002d40       ??_R1A@?0A@A@facet@locale@_STL@@8 0045fd40     stlport_vc6_static:locale_impl.obj
 0002:00002d58       ??_R1A@?0A@A@?$ctype@G@_STL@@8 0045fd58     stlport_vc6_static:locale_impl.obj
 0002:00002d70       ??_R2?$ctype@G@_STL@@8     0045fd70     stlport_vc6_static:locale_impl.obj
 0002:00002d88       ??_R3?$ctype@G@_STL@@8     0045fd88     stlport_vc6_static:locale_impl.obj
 0002:00002d98       ??_R4?$ctype@G@_STL@@6B@   0045fd98     stlport_vc6_static:locale_impl.obj
 0002:00002db0       ??_R1A@?0A@A@__Named_exception@_STL@@8 0045fdb0     stlport_vc6_static:locale_impl.obj
 0002:00002dc8       ??_R1A@?0A@A@runtime_error@_STL@@8 0045fdc8     stlport_vc6_static:locale_impl.obj
 0002:00002de0       ??_R2runtime_error@_STL@@8 0045fde0     stlport_vc6_static:locale_impl.obj
 0002:00002df0       ??_R3runtime_error@_STL@@8 0045fdf0     stlport_vc6_static:locale_impl.obj
 0002:00002e00       ??_R4runtime_error@_STL@@6B@ 0045fe00     stlport_vc6_static:locale_impl.obj
 0002:00002e18       ??_R2__Named_exception@_STL@@8 0045fe18     stlport_vc6_static:locale_impl.obj
 0002:00002e28       ??_R3__Named_exception@_STL@@8 0045fe28     stlport_vc6_static:locale_impl.obj
 0002:00002e38       ??_R4__Named_exception@_STL@@6B@ 0045fe38     stlport_vc6_static:locale_impl.obj
 0002:00002e50       ??_R1A@A@3A@ios_base@_STL@@8 0045fe50     stlport_vc6_static:iostream.obj
 0002:00002e68       ??_R1A@A@3BA@?$basic_ios@DV?$char_traits@D@_STL@@@_STL@@8 0045fe68     stlport_vc6_static:iostream.obj
 0002:00002e80       ??_R1A@?0A@A@?$basic_istream@DV?$char_traits@D@_STL@@@_STL@@8 0045fe80     stlport_vc6_static:iostream.obj
 0002:00002e98       ??_R2?$basic_istream@DV?$char_traits@D@_STL@@@_STL@@8 0045fe98     stlport_vc6_static:iostream.obj
 0002:00002ea8       ??_R3?$basic_istream@DV?$char_traits@D@_STL@@@_STL@@8 0045fea8     stlport_vc6_static:iostream.obj
 0002:00002eb8       ??_R4?$basic_istream@DV?$char_traits@D@_STL@@@_STL@@6B@ 0045feb8     stlport_vc6_static:iostream.obj
 0002:00002ed0       ??_R1A@?0A@A@?$basic_ostream@DV?$char_traits@D@_STL@@@_STL@@8 0045fed0     stlport_vc6_static:iostream.obj
 0002:00002ee8       ??_R2?$basic_ostream@DV?$char_traits@D@_STL@@@_STL@@8 0045fee8     stlport_vc6_static:iostream.obj
 0002:00002ef8       ??_R3?$basic_ostream@DV?$char_traits@D@_STL@@@_STL@@8 0045fef8     stlport_vc6_static:iostream.obj
 0002:00002f08       ??_R4?$basic_ostream@DV?$char_traits@D@_STL@@@_STL@@6B@ 0045ff08     stlport_vc6_static:iostream.obj
 0002:00002f20       ??_R1A@A@3BA@?$basic_ios@GV?$char_traits@G@_STL@@@_STL@@8 0045ff20     stlport_vc6_static:iostream.obj
 0002:00002f38       ??_R1A@?0A@A@?$basic_istream@GV?$char_traits@G@_STL@@@_STL@@8 0045ff38     stlport_vc6_static:iostream.obj
 0002:00002f50       ??_R2?$basic_istream@GV?$char_traits@G@_STL@@@_STL@@8 0045ff50     stlport_vc6_static:iostream.obj
 0002:00002f60       ??_R3?$basic_istream@GV?$char_traits@G@_STL@@@_STL@@8 0045ff60     stlport_vc6_static:iostream.obj
 0002:00002f70       ??_R4?$basic_istream@GV?$char_traits@G@_STL@@@_STL@@6B@ 0045ff70     stlport_vc6_static:iostream.obj
 0002:00002f88       ??_R1A@?0A@A@?$basic_ostream@GV?$char_traits@G@_STL@@@_STL@@8 0045ff88     stlport_vc6_static:iostream.obj
 0002:00002fa0       ??_R2?$basic_ostream@GV?$char_traits@G@_STL@@@_STL@@8 0045ffa0     stlport_vc6_static:iostream.obj
 0002:00002fb0       ??_R3?$basic_ostream@GV?$char_traits@G@_STL@@@_STL@@8 0045ffb0     stlport_vc6_static:iostream.obj
 0002:00002fc0       ??_R4?$basic_ostream@GV?$char_traits@G@_STL@@@_STL@@6B@ 0045ffc0     stlport_vc6_static:iostream.obj
 0002:00002fd8       ??_R1A@?0A@A@?$basic_filebuf@DV?$char_traits@D@_STL@@@_STL@@8 0045ffd8     stlport_vc6_static:iostream.obj
 0002:00002ff0       ??_R2?$basic_filebuf@DV?$char_traits@D@_STL@@@_STL@@8 0045fff0     stlport_vc6_static:iostream.obj
 0002:00003000       ??_R3?$basic_filebuf@DV?$char_traits@D@_STL@@@_STL@@8 00460000     stlport_vc6_static:iostream.obj
 0002:00003010       ??_R4?$basic_filebuf@DV?$char_traits@D@_STL@@@_STL@@6B@ 00460010     stlport_vc6_static:iostream.obj
 0002:00003028       ??_R1A@?0A@A@?$basic_streambuf@DV?$char_traits@D@_STL@@@_STL@@8 00460028     stlport_vc6_static:iostream.obj
 0002:00003040       ??_R2?$basic_streambuf@DV?$char_traits@D@_STL@@@_STL@@8 00460040     stlport_vc6_static:iostream.obj
 0002:00003048       ??_R3?$basic_streambuf@DV?$char_traits@D@_STL@@@_STL@@8 00460048     stlport_vc6_static:iostream.obj
 0002:00003058       ??_R4?$basic_streambuf@DV?$char_traits@D@_STL@@@_STL@@6B@ 00460058     stlport_vc6_static:iostream.obj
 0002:00003070       ??_R1A@?0A@A@?$basic_filebuf@GV?$char_traits@G@_STL@@@_STL@@8 00460070     stlport_vc6_static:iostream.obj
 0002:00003088       ??_R2?$basic_filebuf@GV?$char_traits@G@_STL@@@_STL@@8 00460088     stlport_vc6_static:iostream.obj
 0002:00003098       ??_R3?$basic_filebuf@GV?$char_traits@G@_STL@@@_STL@@8 00460098     stlport_vc6_static:iostream.obj
 0002:000030a8       ??_R4?$basic_filebuf@GV?$char_traits@G@_STL@@@_STL@@6B@ 004600a8     stlport_vc6_static:iostream.obj
 0002:000030c0       ??_R1A@?0A@A@?$basic_streambuf@GV?$char_traits@G@_STL@@@_STL@@8 004600c0     stlport_vc6_static:iostream.obj
 0002:000030d8       ??_R2?$basic_streambuf@GV?$char_traits@G@_STL@@@_STL@@8 004600d8     stlport_vc6_static:iostream.obj
 0002:000030e0       ??_R3?$basic_streambuf@GV?$char_traits@G@_STL@@@_STL@@8 004600e0     stlport_vc6_static:iostream.obj
 0002:000030f0       ??_R4?$basic_streambuf@GV?$char_traits@G@_STL@@@_STL@@6B@ 004600f0     stlport_vc6_static:iostream.obj
 0002:00003108       ??_R1A@?0A@A@stdio_ostreambuf@_SgI@@8 00460108     stlport_vc6_static:iostream.obj
 0002:00003120       ??_R2stdio_ostreambuf@_SgI@@8 00460120     stlport_vc6_static:iostream.obj
 0002:00003130       ??_R3stdio_ostreambuf@_SgI@@8 00460130     stlport_vc6_static:iostream.obj
 0002:00003140       ??_R4stdio_ostreambuf@_SgI@@6B@ 00460140     stlport_vc6_static:iostream.obj
 0002:00003158       ??_R1A@?0A@A@stdio_streambuf_base@_SgI@@8 00460158     stlport_vc6_static:iostream.obj
 0002:00003170       ??_R1A@?0A@A@stdio_istreambuf@_SgI@@8 00460170     stlport_vc6_static:iostream.obj
 0002:00003188       ??_R2stdio_istreambuf@_SgI@@8 00460188     stlport_vc6_static:iostream.obj
 0002:00003198       ??_R3stdio_istreambuf@_SgI@@8 00460198     stlport_vc6_static:iostream.obj
 0002:000031a8       ??_R4stdio_istreambuf@_SgI@@6B@ 004601a8     stlport_vc6_static:iostream.obj
 0002:000031c0       ??_R1A@?0A@A@ios_base@_STL@@8 004601c0     stlport_vc6_static:iostream.obj
 0002:000031d8       ??_R1A@?0A@A@?$basic_ios@DV?$char_traits@D@_STL@@@_STL@@8 004601d8     stlport_vc6_static:iostream.obj
 0002:000031f0       ??_R2?$basic_ios@DV?$char_traits@D@_STL@@@_STL@@8 004601f0     stlport_vc6_static:iostream.obj
 0002:00003200       ??_R3?$basic_ios@DV?$char_traits@D@_STL@@@_STL@@8 00460200     stlport_vc6_static:iostream.obj
 0002:00003210       ??_R4?$basic_ios@DV?$char_traits@D@_STL@@@_STL@@6B@ 00460210     stlport_vc6_static:iostream.obj
 0002:00003228       ??_R1A@?0A@A@?$basic_ios@GV?$char_traits@G@_STL@@@_STL@@8 00460228     stlport_vc6_static:iostream.obj
 0002:00003240       ??_R2?$basic_ios@GV?$char_traits@G@_STL@@@_STL@@8 00460240     stlport_vc6_static:iostream.obj
 0002:00003250       ??_R3?$basic_ios@GV?$char_traits@G@_STL@@@_STL@@8 00460250     stlport_vc6_static:iostream.obj
 0002:00003260       ??_R4?$basic_ios@GV?$char_traits@G@_STL@@@_STL@@6B@ 00460260     stlport_vc6_static:iostream.obj
 0002:00003278       ??_R1A@?0A@A@failure@ios_base@_STL@@8 00460278     stlport_vc6_static:ios.obj
 0002:00003290       ??_R2failure@ios_base@_STL@@8 00460290     stlport_vc6_static:ios.obj
 0002:000032a0       ??_R3failure@ios_base@_STL@@8 004602a0     stlport_vc6_static:ios.obj
 0002:000032b0       ??_R4failure@ios_base@_STL@@6B@ 004602b0     stlport_vc6_static:ios.obj
 0002:000032c4       ??_R2ios_base@_STL@@8      004602c4     stlport_vc6_static:ios.obj
 0002:000032d0       ??_R3ios_base@_STL@@8      004602d0     stlport_vc6_static:ios.obj
 0002:000032e0       ??_R4ios_base@_STL@@6B@    004602e0     stlport_vc6_static:ios.obj
 0002:000032f8       ??_R1A@?0A@A@range_error@_STL@@8 004602f8     stlport_vc6_static:dll_main.obj
 0002:00003310       ??_R2range_error@_STL@@8   00460310     stlport_vc6_static:dll_main.obj
 0002:00003328       ??_R3range_error@_STL@@8   00460328     stlport_vc6_static:dll_main.obj
 0002:00003338       ??_R4range_error@_STL@@6B@ 00460338     stlport_vc6_static:dll_main.obj
 0002:00003350       ??_R1A@?0A@A@out_of_range@_STL@@8 00460350     stlport_vc6_static:dll_main.obj
 0002:00003368       ??_R2out_of_range@_STL@@8  00460368     stlport_vc6_static:dll_main.obj
 0002:00003380       ??_R3out_of_range@_STL@@8  00460380     stlport_vc6_static:dll_main.obj
 0002:00003390       ??_R4out_of_range@_STL@@6B@ 00460390     stlport_vc6_static:dll_main.obj
 0002:000033a8       ??_R1A@?0A@A@logic_error@_STL@@8 004603a8     stlport_vc6_static:dll_main.obj
 0002:000033c0       ??_R2logic_error@_STL@@8   004603c0     stlport_vc6_static:dll_main.obj
 0002:000033d0       ??_R3logic_error@_STL@@8   004603d0     stlport_vc6_static:dll_main.obj
 0002:000033e0       ??_R4logic_error@_STL@@6B@ 004603e0     stlport_vc6_static:dll_main.obj
 0002:000033f8       ??_R1A@?0A@A@length_error@_STL@@8 004603f8     stlport_vc6_static:dll_main.obj
 0002:00003410       ??_R2length_error@_STL@@8  00460410     stlport_vc6_static:dll_main.obj
 0002:00003428       ??_R3length_error@_STL@@8  00460428     stlport_vc6_static:dll_main.obj
 0002:00003438       ??_R4length_error@_STL@@6B@ 00460438     stlport_vc6_static:dll_main.obj
 0002:00003450       ??_R1A@?0A@A@invalid_argument@_STL@@8 00460450     stlport_vc6_static:dll_main.obj
 0002:00003468       ??_R2invalid_argument@_STL@@8 00460468     stlport_vc6_static:dll_main.obj
 0002:00003480       ??_R3invalid_argument@_STL@@8 00460480     stlport_vc6_static:dll_main.obj
 0002:00003490       ??_R4invalid_argument@_STL@@6B@ 00460490     stlport_vc6_static:dll_main.obj
 0002:000034a8       ??_R1A@?0A@A@overflow_error@_STL@@8 004604a8     stlport_vc6_static:dll_main.obj
 0002:000034c0       ??_R2overflow_error@_STL@@8 004604c0     stlport_vc6_static:dll_main.obj
 0002:000034d8       ??_R3overflow_error@_STL@@8 004604d8     stlport_vc6_static:dll_main.obj
 0002:000034e8       ??_R4overflow_error@_STL@@6B@ 004604e8     stlport_vc6_static:dll_main.obj
 0002:00003500       ??_R1A@?0A@A@domain_error@_STL@@8 00460500     stlport_vc6_static:dll_main.obj
 0002:00003518       ??_R2domain_error@_STL@@8  00460518     stlport_vc6_static:dll_main.obj
 0002:00003530       ??_R3domain_error@_STL@@8  00460530     stlport_vc6_static:dll_main.obj
 0002:00003540       ??_R4domain_error@_STL@@6B@ 00460540     stlport_vc6_static:dll_main.obj
 0002:00003558       ??_R1A@?0A@A@underflow_error@_STL@@8 00460558     stlport_vc6_static:dll_main.obj
 0002:00003570       ??_R2underflow_error@_STL@@8 00460570     stlport_vc6_static:dll_main.obj
 0002:00003588       ??_R3underflow_error@_STL@@8 00460588     stlport_vc6_static:dll_main.obj
 0002:00003598       ??_R4underflow_error@_STL@@6B@ 00460598     stlport_vc6_static:dll_main.obj
 0002:000035b0       ??_R1A@?0A@A@bad_alloc@std@@8 004605b0     stlport_vc6_static:dll_main.obj
 0002:000035c8       ??_R2bad_alloc@std@@8      004605c8     stlport_vc6_static:dll_main.obj
 0002:000035d8       ??_R3bad_alloc@std@@8      004605d8     stlport_vc6_static:dll_main.obj
 0002:000035e8       ??_R4bad_alloc@std@@6B@    004605e8     stlport_vc6_static:dll_main.obj
 0002:00003600       ??_R1A@?0A@A@?$basic_ifstream@DV?$char_traits@D@_STL@@@_STL@@8 00460600     stlport_vc6_static:fstream.obj
 0002:00003618       ??_R2?$basic_ifstream@DV?$char_traits@D@_STL@@@_STL@@8 00460618     stlport_vc6_static:fstream.obj
 0002:00003630       ??_R3?$basic_ifstream@DV?$char_traits@D@_STL@@@_STL@@8 00460630     stlport_vc6_static:fstream.obj
 0002:00003640       ??_R4?$basic_ifstream@DV?$char_traits@D@_STL@@@_STL@@6B@ 00460640     stlport_vc6_static:fstream.obj
 0002:00003658       ??_R1A@?0A@A@?$basic_ofstream@DV?$char_traits@D@_STL@@@_STL@@8 00460658     stlport_vc6_static:fstream.obj
 0002:00003670       ??_R2?$basic_ofstream@DV?$char_traits@D@_STL@@@_STL@@8 00460670     stlport_vc6_static:fstream.obj
 0002:00003688       ??_R3?$basic_ofstream@DV?$char_traits@D@_STL@@@_STL@@8 00460688     stlport_vc6_static:fstream.obj
 0002:00003698       ??_R4?$basic_ofstream@DV?$char_traits@D@_STL@@@_STL@@6B@ 00460698     stlport_vc6_static:fstream.obj
 0002:000036b0       ??_R1A@?0A@A@?$basic_fstream@DV?$char_traits@D@_STL@@@_STL@@8 004606b0     stlport_vc6_static:fstream.obj
 0002:000036c8       ??_R2?$basic_fstream@DV?$char_traits@D@_STL@@@_STL@@8 004606c8     stlport_vc6_static:fstream.obj
 0002:000036f0       ??_R3?$basic_fstream@DV?$char_traits@D@_STL@@@_STL@@8 004606f0     stlport_vc6_static:fstream.obj
 0002:00003700       ??_R4?$basic_fstream@DV?$char_traits@D@_STL@@@_STL@@6B@ 00460700     stlport_vc6_static:fstream.obj
 0002:00003718       ??_R17?0A@A@?$basic_ostream@DV?$char_traits@D@_STL@@@_STL@@8 00460718     stlport_vc6_static:fstream.obj
 0002:00003730       ??_R1A@?0A@A@?$basic_iostream@DV?$char_traits@D@_STL@@@_STL@@8 00460730     stlport_vc6_static:fstream.obj
 0002:00003748       ??_R2?$basic_iostream@DV?$char_traits@D@_STL@@@_STL@@8 00460748     stlport_vc6_static:fstream.obj
 0002:00003768       ??_R3?$basic_iostream@DV?$char_traits@D@_STL@@@_STL@@8 00460768     stlport_vc6_static:fstream.obj
 0002:00003778       ??_R4?$basic_iostream@DV?$char_traits@D@_STL@@@_STL@@6B@ 00460778     stlport_vc6_static:fstream.obj
 0002:00003790       ??_R1A@?0A@A@?$basic_ifstream@GV?$char_traits@G@_STL@@@_STL@@8 00460790     stlport_vc6_static:fstream.obj
 0002:000037a8       ??_R2?$basic_ifstream@GV?$char_traits@G@_STL@@@_STL@@8 004607a8     stlport_vc6_static:fstream.obj
 0002:000037c0       ??_R3?$basic_ifstream@GV?$char_traits@G@_STL@@@_STL@@8 004607c0     stlport_vc6_static:fstream.obj
 0002:000037d0       ??_R4?$basic_ifstream@GV?$char_traits@G@_STL@@@_STL@@6B@ 004607d0     stlport_vc6_static:fstream.obj
 0002:000037e8       ??_R1A@?0A@A@?$basic_ofstream@GV?$char_traits@G@_STL@@@_STL@@8 004607e8     stlport_vc6_static:fstream.obj
 0002:00003800       ??_R2?$basic_ofstream@GV?$char_traits@G@_STL@@@_STL@@8 00460800     stlport_vc6_static:fstream.obj
 0002:00003818       ??_R3?$basic_ofstream@GV?$char_traits@G@_STL@@@_STL@@8 00460818     stlport_vc6_static:fstream.obj
 0002:00003828       ??_R4?$basic_ofstream@GV?$char_traits@G@_STL@@@_STL@@6B@ 00460828     stlport_vc6_static:fstream.obj
 0002:00003840       ??_R1A@?0A@A@?$basic_fstream@GV?$char_traits@G@_STL@@@_STL@@8 00460840     stlport_vc6_static:fstream.obj
 0002:00003858       ??_R2?$basic_fstream@GV?$char_traits@G@_STL@@@_STL@@8 00460858     stlport_vc6_static:fstream.obj
 0002:00003880       ??_R3?$basic_fstream@GV?$char_traits@G@_STL@@@_STL@@8 00460880     stlport_vc6_static:fstream.obj
 0002:00003890       ??_R4?$basic_fstream@GV?$char_traits@G@_STL@@@_STL@@6B@ 00460890     stlport_vc6_static:fstream.obj
 0002:000038a8       ??_R17?0A@A@?$basic_ostream@GV?$char_traits@G@_STL@@@_STL@@8 004608a8     stlport_vc6_static:fstream.obj
 0002:000038c0       ??_R1A@?0A@A@?$basic_iostream@GV?$char_traits@G@_STL@@@_STL@@8 004608c0     stlport_vc6_static:fstream.obj
 0002:000038d8       ??_R2?$basic_iostream@GV?$char_traits@G@_STL@@@_STL@@8 004608d8     stlport_vc6_static:fstream.obj
 0002:000038f8       ??_R3?$basic_iostream@GV?$char_traits@G@_STL@@@_STL@@8 004608f8     stlport_vc6_static:fstream.obj
 0002:00003908       ??_R4?$basic_iostream@GV?$char_traits@G@_STL@@@_STL@@6B@ 00460908     stlport_vc6_static:fstream.obj
 0002:00003920       ??_R1M@?0A@A@messages_base@_STL@@8 00460920     stlport_vc6_static:messages.obj
 0002:00003938       ??_R1A@?0A@A@?$messages@D@_STL@@8 00460938     stlport_vc6_static:messages.obj
 0002:00003950       ??_R2?$messages@D@_STL@@8  00460950     stlport_vc6_static:messages.obj
 0002:00003968       ??_R3?$messages@D@_STL@@8  00460968     stlport_vc6_static:messages.obj
 0002:00003978       ??_R4?$messages@D@_STL@@6B@ 00460978     stlport_vc6_static:messages.obj
 0002:00003990       ??_R1A@?0A@A@_Messages@_STL@@8 00460990     stlport_vc6_static:messages.obj
 0002:000039a8       ??_R2_Messages@_STL@@8     004609a8     stlport_vc6_static:messages.obj
 0002:000039b0       ??_R3_Messages@_STL@@8     004609b0     stlport_vc6_static:messages.obj
 0002:000039c0       ??_R4_Messages@_STL@@6B@   004609c0     stlport_vc6_static:messages.obj
 0002:000039d8       ??_R1A@?0A@A@?$messages@G@_STL@@8 004609d8     stlport_vc6_static:messages.obj
 0002:000039f0       ??_R2?$messages@G@_STL@@8  004609f0     stlport_vc6_static:messages.obj
 0002:00003a08       ??_R3?$messages@G@_STL@@8  00460a08     stlport_vc6_static:messages.obj
 0002:00003a18       ??_R4?$messages@G@_STL@@6B@ 00460a18     stlport_vc6_static:messages.obj
 0002:00003a30       ??_R1A@?0A@A@?$ctype@D@_STL@@8 00460a30     stlport_vc6_static:ctype.obj
 0002:00003a48       ??_R2?$ctype@D@_STL@@8     00460a48     stlport_vc6_static:ctype.obj
 0002:00003a60       ??_R3?$ctype@D@_STL@@8     00460a60     stlport_vc6_static:ctype.obj
 0002:00003a70       ??_R4?$ctype@D@_STL@@6B@   00460a70     stlport_vc6_static:ctype.obj
 0002:00003a88       ??_R1M@?0A@A@money_base@_STL@@8 00460a88     stlport_vc6_static:monetary.obj
 0002:00003aa0       ??_R1A@?0A@A@?$moneypunct@D$00@_STL@@8 00460aa0     stlport_vc6_static:monetary.obj
 0002:00003ab8       ??_R2?$moneypunct@D$00@_STL@@8 00460ab8     stlport_vc6_static:monetary.obj
 0002:00003ad0       ??_R3?$moneypunct@D$00@_STL@@8 00460ad0     stlport_vc6_static:monetary.obj
 0002:00003ae0       ??_R4?$moneypunct@D$00@_STL@@6B@ 00460ae0     stlport_vc6_static:monetary.obj
 0002:00003af8       ??_R1A@?0A@A@?$moneypunct@D$0A@@_STL@@8 00460af8     stlport_vc6_static:monetary.obj
 0002:00003b10       ??_R2?$moneypunct@D$0A@@_STL@@8 00460b10     stlport_vc6_static:monetary.obj
 0002:00003b28       ??_R3?$moneypunct@D$0A@@_STL@@8 00460b28     stlport_vc6_static:monetary.obj
 0002:00003b38       ??_R4?$moneypunct@D$0A@@_STL@@6B@ 00460b38     stlport_vc6_static:monetary.obj
 0002:00003b50       ??_R1A@?0A@A@?$moneypunct@G$00@_STL@@8 00460b50     stlport_vc6_static:monetary.obj
 0002:00003b68       ??_R2?$moneypunct@G$00@_STL@@8 00460b68     stlport_vc6_static:monetary.obj
 0002:00003b80       ??_R3?$moneypunct@G$00@_STL@@8 00460b80     stlport_vc6_static:monetary.obj
 0002:00003b90       ??_R4?$moneypunct@G$00@_STL@@6B@ 00460b90     stlport_vc6_static:monetary.obj
 0002:00003ba8       ??_R1A@?0A@A@?$moneypunct@G$0A@@_STL@@8 00460ba8     stlport_vc6_static:monetary.obj
 0002:00003bc0       ??_R2?$moneypunct@G$0A@@_STL@@8 00460bc0     stlport_vc6_static:monetary.obj
 0002:00003bd8       ??_R3?$moneypunct@G$0A@@_STL@@8 00460bd8     stlport_vc6_static:monetary.obj
 0002:00003be8       ??_R4?$moneypunct@G$0A@@_STL@@6B@ 00460be8     stlport_vc6_static:monetary.obj
 0002:00003c00       ??_R2stdio_streambuf_base@_SgI@@8 00460c00     stlport_vc6_static:stdio_streambuf.obj
 0002:00003c10       ??_R3stdio_streambuf_base@_SgI@@8 00460c10     stlport_vc6_static:stdio_streambuf.obj
 0002:00003c20       ??_R4stdio_streambuf_base@_SgI@@6B@ 00460c20     stlport_vc6_static:stdio_streambuf.obj
 0002:00003c38       ??_R1A@?0A@A@type_info@@8  00460c38     LIBCMT:typinfo.obj
 0002:00003c50       ??_R2type_info@@8          00460c50     LIBCMT:typinfo.obj
 0002:00003c58       ??_R3type_info@@8          00460c58     LIBCMT:typinfo.obj
 0002:00003c68       ??_R4type_info@@6B@        00460c68     LIBCMT:typinfo.obj
 0002:00003c7c       ??_R2exception@@8          00460c7c     LIBCMT:stdexcpt.obj
 0002:00003c88       ??_R3exception@@8          00460c88     LIBCMT:stdexcpt.obj
 0002:00003c98       ??_R4exception@@6B@        00460c98     LIBCMT:stdexcpt.obj
 0002:000042d0       __CT??_R0?AVCException@Win32@OnlineGameLib@@@8??0CException@Win32@OnlineGameLib@@QAE@ABV012@@Z28 004612d0     Common:UsesWinsock.obj
 0002:000042f0       __CT??_R0?AVCWin32Exception@Win32@OnlineGameLib@@@8??0CWin32Exception@Win32@OnlineGameLib@@QAE@ABV012@@Z32 004612f0     Common:UsesWinsock.obj
 0002:00004310       __CTA2?AVCWin32Exception@Win32@OnlineGameLib@@ 00461310     Common:UsesWinsock.obj
 0002:00004320       __TI2?AVCWin32Exception@Win32@OnlineGameLib@@ 00461320     Common:UsesWinsock.obj
 0002:000044c0       __CTA1?AVCException@Win32@OnlineGameLib@@ 004614c0     Common:Buffer.obj
 0002:000044c8       __TI1?AVCException@Win32@OnlineGameLib@@ 004614c8     Common:Buffer.obj
 0002:000053b0       __CT??_R0?AVexception@@@8??0exception@@QAE@ABV0@@Z12 004623b0     stlport_vc6_static:locale_impl.obj
 0002:000053d0       __CT??_R0?AVbad_cast@@@8??0bad_cast@@QAE@ABV0@@Z12 004623d0     stlport_vc6_static:locale_impl.obj
 0002:000053f0       __CTA2?AVbad_cast@@        004623f0     stlport_vc6_static:locale_impl.obj
 0002:00005400       __TI2?AVbad_cast@@         00462400     stlport_vc6_static:locale_impl.obj
 0002:000054d0       __CT??_R0?AV__Named_exception@_STL@@@8??0__Named_exception@_STL@@QAE@ABV01@@Z268 004624d0     stlport_vc6_static:locale_impl.obj
 0002:000054f0       __CT??_R0?AVruntime_error@_STL@@@8??0runtime_error@_STL@@QAE@ABV01@@Z268 004624f0     stlport_vc6_static:locale_impl.obj
 0002:00005510       __CTA3?AVruntime_error@_STL@@ 00462510     stlport_vc6_static:locale_impl.obj
 0002:00005520       __TI3?AVruntime_error@_STL@@ 00462520     stlport_vc6_static:locale_impl.obj
 0002:00006ab8       __CT??_R0?AVfailure@ios_base@_STL@@@8??0failure@ios_base@_STL@@QAE@ABV012@@Z268 00463ab8     stlport_vc6_static:ios.obj
 0002:00006ad8       __CTA3?AVfailure@ios_base@_STL@@ 00463ad8     stlport_vc6_static:ios.obj
 0002:00006ae8       __TI3?AVfailure@ios_base@_STL@@ 00463ae8     stlport_vc6_static:ios.obj
 0002:00006c08       __CT??_R0?AVrange_error@_STL@@@8??0range_error@_STL@@QAE@ABV01@@Z268 00463c08     stlport_vc6_static:dll_main.obj
 0002:00006c28       __CTA4?AVrange_error@_STL@@ 00463c28     stlport_vc6_static:dll_main.obj
 0002:00006c40       __TI4?AVrange_error@_STL@@ 00463c40     stlport_vc6_static:dll_main.obj
 0002:00006c90       __CT??_R0?AVlogic_error@_STL@@@8??0logic_error@_STL@@QAE@ABV01@@Z268 00463c90     stlport_vc6_static:dll_main.obj
 0002:00006cb0       __CT??_R0?AVout_of_range@_STL@@@8??0out_of_range@_STL@@QAE@ABV01@@Z268 00463cb0     stlport_vc6_static:dll_main.obj
 0002:00006cd0       __CTA4?AVout_of_range@_STL@@ 00463cd0     stlport_vc6_static:dll_main.obj
 0002:00006ce8       __TI4?AVout_of_range@_STL@@ 00463ce8     stlport_vc6_static:dll_main.obj
 0002:00006d38       __CT??_R0?AVlength_error@_STL@@@8??0length_error@_STL@@QAE@ABV01@@Z268 00463d38     stlport_vc6_static:dll_main.obj
 0002:00006d58       __CTA4?AVlength_error@_STL@@ 00463d58     stlport_vc6_static:dll_main.obj
 0002:00006d70       __TI4?AVlength_error@_STL@@ 00463d70     stlport_vc6_static:dll_main.obj
 0002:00006dc0       __CT??_R0?AVinvalid_argument@_STL@@@8??0invalid_argument@_STL@@QAE@ABV01@@Z268 00463dc0     stlport_vc6_static:dll_main.obj
 0002:00006de0       __CTA4?AVinvalid_argument@_STL@@ 00463de0     stlport_vc6_static:dll_main.obj
 0002:00006df8       __TI4?AVinvalid_argument@_STL@@ 00463df8     stlport_vc6_static:dll_main.obj
 0002:00006e48       __CT??_R0?AVoverflow_error@_STL@@@8??0overflow_error@_STL@@QAE@ABV01@@Z268 00463e48     stlport_vc6_static:dll_main.obj
 0002:00006e68       __CTA4?AVoverflow_error@_STL@@ 00463e68     stlport_vc6_static:dll_main.obj
 0002:00006e80       __TI4?AVoverflow_error@_STL@@ 00463e80     stlport_vc6_static:dll_main.obj
 0002:00007068       __CT??_R0?AVbad_alloc@std@@@8??0bad_alloc@std@@QAE@ABV01@@Z12 00464068     stlport_vc6_static:dll_main.obj
 0002:00007088       __CTA2?AVbad_alloc@std@@   00464088     stlport_vc6_static:dll_main.obj
 0002:00007098       __TI2?AVbad_alloc@std@@    00464098     stlport_vc6_static:dll_main.obj
 0002:00008c80       __IMPORT_DESCRIPTOR_KERNEL32 00465c80     kernel32:KERNEL32.dll
 0002:00008c94       __IMPORT_DESCRIPTOR_USER32 00465c94     user32:USER32.dll
 0002:00008ca8       __IMPORT_DESCRIPTOR_ADVAPI32 00465ca8     advapi32:ADVAPI32.dll
 0002:00008cbc       __IMPORT_DESCRIPTOR_Engine 00465cbc     engine:Engine.dll
 0002:00008cd0       __IMPORT_DESCRIPTOR_CoreServer 00465cd0     CoreServer:CoreServer.dll
 0002:00008ce4       __IMPORT_DESCRIPTOR_WS2_32 00465ce4     ws2_32:WS2_32.dll
 0002:00008cf8       __IMPORT_DESCRIPTOR_VERSION 00465cf8     Version:VERSION.dll
 0002:00008d0c       __NULL_IMPORT_DESCRIPTOR   00465d0c     kernel32:KERNEL32.dll
 0003:00000000       ___xc_a                    00467000     LIBCMT:crt0init.obj
 0003:00000070       ___xc_z                    00467070     LIBCMT:crt0init.obj
 0003:00000074       ___xi_a                    00467074     LIBCMT:crt0init.obj
 0003:00000088       ___xi_z                    00467088     LIBCMT:crt0init.obj
 0003:0000008c       ___xp_a                    0046708c     LIBCMT:crt0init.obj
 0003:00000094       ___xp_z                    00467094     LIBCMT:crt0init.obj
 0003:00000098       ___xt_a                    00467098     LIBCMT:crt0init.obj
 0003:000000a0       ___xt_z                    004670a0     LIBCMT:crt0init.obj
 0003:000000b0       ?GUID_ATLVer30@ATL@@3U_GUID@@A 004670b0     GameServer.obj
 0003:000000c0       ?g_nTongPCSize@@3PAHA      004670c0     KSOServer.obj
 0003:000004bc       ??_C@_0L@MDPN@heaven?4dll?$AA@ 004674bc     KSOServer.obj
 0003:000004c8       ??_C@_0M@GJAN@rainbow?4dll?$AA@ 004674c8     KSOServer.obj
 0003:000004d4       ??_C@_0O@DMMO@GateWay?5lost?6?$AA@ 004674d4     KSOServer.obj
 0003:000004e4       ??_C@_0BB@CIOC@Chat?5disconnect?6?$AA@ 004674e4     KSOServer.obj
 0003:000004f8       ??_C@_0BB@BKLB@Tong?5disconnect?6?$AA@ 004674f8     KSOServer.obj
 0003:0000050c       ??_C@_0P@NIB@DataBase?5lost?6?$AA@ 0046750c     KSOServer.obj
 0003:0000051c       ??_C@_0BM@NMEJ@Connect?5gateway?5successful?$CB?$AA@ 0046751c     KSOServer.obj
 0003:00000538       ??_C@_0BO@IGBG@Connect?5to?5gateway?5is?5failed?$CB?$AA@ 00467538     KSOServer.obj
 0003:00000558       ??_C@_0O@BHBP@Gateway?5IP?5?3?5?$AA@ 00467558     KSOServer.obj
 0003:00000568       ??_C@_0CK@PIJJ@Can?8t?5not?5startup?5gateway?5client@ 00467568     KSOServer.obj
 0003:00000594       ??_C@_0BJ@MLBF@Connect?5tong?5successful?$CB?$AA@ 00467594     KSOServer.obj
 0003:000005b0       ??_C@_0BL@JOJG@Connect?5to?5tong?5is?5failed?$CB?$AA@ 004675b0     KSOServer.obj
 0003:000005cc       ??_C@_0L@NOOM@Tong?5IP?5?3?5?$AA@ 004675cc     KSOServer.obj
 0003:000005d8       ??_C@_0CH@DLGH@Can?8t?5not?5startup?5tong?5client?5se@ 004675d8     KSOServer.obj
 0003:00000600       ??_C@_0BJ@PJEG@Connect?5chat?5successful?$CB?$AA@ 00467600     KSOServer.obj
 0003:0000061c       ??_C@_0BL@MNLN@Connect?5to?5chat?5is?5failed?$CB?$AA@ 0046761c     KSOServer.obj
 0003:00000638       ??_C@_0L@OBCG@Chat?5IP?5?3?5?$AA@ 00467638     KSOServer.obj
 0003:00000644       ??_C@_0CH@KNAG@Can?8t?5not?5startup?5chat?5client?5se@ 00467644     KSOServer.obj
 0003:0000066c       ??_C@_0BN@EOJI@Connect?5transfer?5successful?$CB?$AA@ 0046766c     KSOServer.obj
 0003:0000068c       ??_C@_0BP@BEEB@Connect?5to?5transfer?5is?5failed?$CB?$AA@ 0046768c     KSOServer.obj
 0003:000006ac       ??_C@_0P@JMPJ@Transfer?5IP?5?3?5?$AA@ 004676ac     KSOServer.obj
 0003:000006bc       ??_C@_0CL@MIHO@Can?8t?5not?5startup?5transfer?5clien@ 004676bc     KSOServer.obj
 0003:000006e8       ??_C@_0BN@PGDC@Connect?5database?5successful?$CB?$AA@ 004676e8     KSOServer.obj
 0003:00000708       ??_C@_0BP@LODO@Connect?5to?5database?5is?5failed?$CB?$AA@ 00467708     KSOServer.obj
 0003:00000728       ??_C@_0L@POGJ@?5?9?5Port?5?3?5?$AA@ 00467728     KSOServer.obj
 0003:00000734       ??_C@_0P@JHBM@Database?5IP?5?3?5?$AA@ 00467734     KSOServer.obj
 0003:00000744       ??_C@_0CL@LOHB@Can?8t?5not?5startup?5database?5clien@ 00467744     KSOServer.obj
 0003:00000770       ??_C@_0DI@HPMI@Initialization?5failed?$CB?5Don?8t?5fin@ 00467770     KSOServer.obj
 0003:000007a8       ??_C@_0BM@HCOB@Failed?5to?5Create?5CoreShell?4?$AA@ 004677a8     KSOServer.obj
 0003:000007c4       ??_C@_03DHMP@?5?3?5?$AA@   004677c4     KSOServer.obj
 0003:000007c8       ??_C@_0BE@HBLE@Can?8t?5get?5server?5ip?$AA@ 004677c8     KSOServer.obj
 0003:000007dc       ??_C@_0DH@GKG@Initialization?5failed?$CB?5Don?8t?5fin@ 004677dc     KSOServer.obj
 0003:00000814       ??_C@_0BA@PKLD@CreateInterface?$AA@ 00467814     KSOServer.obj
 0003:00000824       ??_C@_0BM@GDEK@Maximal?5player?5number?5?$DM?$DN?50?$CB?$AA@ 00467824     KSOServer.obj
 0003:00000840       ??_C@_09LBJJ@Precision?$AA@ 00467840     KSOServer.obj
 0003:0000084c       ??_C@_08HLK@Overload?$AA@  0046784c     KSOServer.obj
 0003:00000858       ??_C@_09JOLA@MaxPlayer?$AA@ 00467858     KSOServer.obj
 0003:00000864       ??_C@_04GCNO@Tong?$AA@     00467864     KSOServer.obj
 0003:0000086c       ??_C@_04PBOI@Chat?$AA@     0046786c     KSOServer.obj
 0003:00000874       ??_C@_08DIGM@Transfer?$AA@ 00467874     KSOServer.obj
 0003:00000880       ??_C@_08PHEC@Database?$AA@ 00467880     KSOServer.obj
 0003:0000088c       ??_C@_07HFJI@Gateway?$AA@  0046788c     KSOServer.obj
 0003:00000894       ??_C@_02FHAL@Ip?$AA@       00467894     KSOServer.obj
 0003:00000898       ??_C@_0BA@IKHB@222?4189?4237?4112?$AA@ 00467898     KSOServer.obj
 0003:000008a8       ??_C@_0L@PABP@GameServer?$AA@ 004678a8     KSOServer.obj
 0003:000008b4       ??_C@_04CEAI@Port?$AA@     004678b4     KSOServer.obj
 0003:000008bc       ??_C@_0O@DC@ServerCfg?4ini?$AA@ 004678bc     KSOServer.obj
 0003:000008cc       ??_C@_01PCFE@?2?$AA@       004678cc     KSOServer.obj
 0003:000008d0       ??_C@_0BC@JAAP@main?5thread?5exit?6?$AA@ 004678d0     KSOServer.obj
 0003:000008e4       ??_C@_0CC@OMGL@?5?5Save?5Player?5Data?5finished?$CI?$CFd?$CJ?$CB@ 004678e4     KSOServer.obj
 0003:00000908       ??_C@_0CA@LOCE@Protocol?3?$CI?$CFd?$CJ?5?9?9?5database?5error?$AA@ 00467908     KSOServer.obj
 0003:00000928       ??_C@_0P@JDAA@?9?9?9?9?$AN?6?$CFs?$AN?$AI?$CFs?$AN?6?$AA@ 00467928     KSOServer.obj
 0003:00000938       ??_C@_0BD@MOHI@crc_transfer_error?$AA@ 00467938     KSOServer.obj
 0003:0000094c       ??_C@_03GMJO@a?$CLb?$AA@   0046794c     KSOServer.obj
 0003:00000950       ??_C@_08LOMC@break?51?6?$AA@ 00467950     KSOServer.obj
 0003:0000095c       ??_C@_08JDJH@break?53?6?$AA@ 0046795c     KSOServer.obj
 0003:00000968       ??_C@_08OEGI@break?55?6?$AA@ 00467968     KSOServer.obj
 0003:00000974       ??_C@_08PCMC@break?54?6?$AA@ 00467974     KSOServer.obj
 0003:00000980       ??_C@_08IFDN@break?52?6?$AA@ 00467980     KSOServer.obj
 0003:0000098c       ??_C@_0N@NAGH@crc_db_error?$AA@ 0046798c     KSOServer.obj
 0003:0000099c       ??_C@_0BB@CCCJ@ALL_PLAYER_QUIT?6?$AA@ 0046799c     KSOServer.obj
 0003:000009b0       ??_C@_0BD@CDKH@Safe?5close?5server?6?$AA@ 004679b0     KSOServer.obj
 0003:000009c4       ??_C@_0CN@JEMC@no?5response?5from?5client?$CI?$CFd?0?5?$CFd?$CJ?0@ 004679c4     KSOServer.obj
 0003:000009f4       ??_C@_0CM@KCAE@wrong?5time?5in?5ping?5cmd?5content?0?5@ 004679f4     KSOServer.obj
 0003:00000a20       ??_C@_0DJ@PHHP@ping?5cmd?5size?5not?5correct?0?5may?5b@ 00467a20     KSOServer.obj
 0003:00000a5c       ??_C@_0BC@GPGJ@?$FLTRACE?$FNSyncEnd?3?$CFd?$AA@ 00467a5c     KSOServer.obj
 0003:00000a70       ??_C@_0BM@LLLH@Packing?5failed?4?5?$CFd?0?5?$CFd?0?5?$CFd?6?$AA@ 00467a70     KSOServer.obj
 0003:00000a8c       ??_C@_0BJ@KHI@PlayerDbLoading?5failed?4?6?$AA@ 00467a8c     KSOServer.obj
 0003:00000aa8       ??_C@_0BA@NLGN@GetAdaptersInfo?$AA@ 00467aa8     KSOServer.obj
 0003:00000ab8       ??_C@_0N@JPOB@iphlpapi?4dll?$AA@ 00467ab8     KSOServer.obj
 0003:00000ac8       ??_C@_0N@LL@basic_string?$AA@ 00467ac8     Common:Library.obj
 0003:00000ad8       ??_R0?AVCException@Win32@OnlineGameLib@@@8 00467ad8     Common:UsesWinsock.obj
 0003:00000b08       ??_R0?AVCWin32Exception@Win32@OnlineGameLib@@@8 00467b08     Common:UsesWinsock.obj
 0003:00000b3c       ??_C@_0BN@CJDO@CUsesWinsock?3?3CUsesWinsock?$CI?$CJ?$AA@ 00467b3c     Common:UsesWinsock.obj
 0003:00000b5c       ??_C@_0BB@BJC@CBuffer?3?3AddData?$AA@ 00467b5c     Common:Buffer.obj
 0003:00000b70       ??_C@_0BL@HPMM@Not?5enough?5space?5in?5buffer?$AA@ 00467b70     Common:Buffer.obj
 0003:00000b8c       ??_C@_0BD@MKLK@CBuffer?3?3Release?$CI?$CJ?$AA@ 00467b8c     Common:Buffer.obj
 0003:00000ba0       ??_C@_0BG@EBOE@m_ref?5is?5already?5zero?$AA@ 00467ba0     Common:Buffer.obj
 0003:00000bb8       ??_C@_0BP@ONCE@CBuffer?3?3Allocator?3?3Allocate?$CI?$CJ?$AA@ 00467bb8     Common:Buffer.obj
 0003:00000bd8       ??_C@_0O@MNOP@Out?5of?5memory?$AA@ 00467bd8     Common:Buffer.obj
 0003:00000be8       ??_C@_0BO@NDNG@CBuffer?3?3Allocator?3?3Release?$CI?$CJ?$AA@ 00467be8     Common:Buffer.obj
 0003:00000c08       ??_C@_0BA@GJNE@pBuffer?5is?5null?$AA@ 00467c08     Common:Buffer.obj
 0003:00000c1c       ??_C@_0M@EHLI@?2common?4log?$AA@ 00467c1c     Common:Utils.obj
 0003:00000c28       ??_C@_04BOIP@Info?$AA@     00467c28     Common:Utils.obj
 0003:00000c30       ??_C@_0M@EGHG@?$CFu?4?$CFu?4?$CFu?4?$CFu?$AA@ 00467c30     Common:Utils.obj
 0003:00000c3c       ??_C@_0BG@EJMD@GetCurrentDirectory?$CI?$CJ?$AA@ 00467c3c     Common:Utils.obj
 0003:00000c54       ??_C@_0CA@OFN@Failed?5to?5get?5current?5directory?$AA@ 00467c54     Common:Utils.obj
 0003:00000c74       ??_C@_0N@PPGC@?$CF02d?$CF02d?$CF02d?$AA@ 00467c74     Common:Utils.obj
 0003:00000c84       ??_C@_0P@INAO@?$CF02d?3?$CF02d?3?$CF02d?$AA@ 00467c84     Common:Utils.obj
 0003:00000c94       ??_C@_04LDEB@?$CF02X?$AA@  00467c94     Common:Utils.obj
 0003:00000c9c       ??_C@_01BJG@?6?$AA@        00467c9c     Common:Utils.obj
 0003:00000ca0       ??_C@_03DMDD@?5?9?5?$AA@   00467ca0     Common:Utils.obj
 0003:00000ca4       ??_C@_03MFGH@?5?5?5?$AA@   00467ca4     Common:Utils.obj
 0003:00000ca8       ??_C@_01FCOA@?5?$AA@       00467ca8     Common:Utils.obj
 0003:00000cac       ??_C@_0M@GPOH@UNAVAILABLE?$AA@ 00467cac     Common:Utils.obj
 0003:00000cb8       ??_C@_0CF@HLGK@?2StringFileInfo?2?$CF04x?$CF04x?2FileVer@ 00467cb8     Common:Utils.obj
 0003:00000ce0       ??_C@_0BJ@KCFH@?2VarFileInfo?2Translation?$AA@ 00467ce0     Common:Utils.obj
 0003:00000d9c       ?_S_max@id@locale@_STL@@2IA 00467d9c     stlport_vc6_static:locale_impl.obj
 0003:00000da0       ?id@?$collate@D@_STL@@2V0locale@2@A 00467da0     stlport_vc6_static:locale_impl.obj
 0003:00000da4       ?id@?$ctype@D@_STL@@2V0locale@2@A 00467da4     stlport_vc6_static:locale_impl.obj
 0003:00000da8       ?id@?$codecvt@DDH@_STL@@2V0locale@2@A 00467da8     stlport_vc6_static:locale_impl.obj
 0003:00000dac       ?id@?$codecvt@GDH@_STL@@2V0locale@2@A 00467dac     stlport_vc6_static:locale_impl.obj
 0003:00000db0       ?id@?$moneypunct@D$00@_STL@@2V0locale@2@A 00467db0     stlport_vc6_static:locale_impl.obj
 0003:00000db4       ?id@?$moneypunct@D$0A@@_STL@@2V0locale@2@A 00467db4     stlport_vc6_static:locale_impl.obj
 0003:00000db8       ?id@?$numpunct@D@_STL@@2V0locale@2@A 00467db8     stlport_vc6_static:locale_impl.obj
 0003:00000dbc       ?id@?$messages@D@_STL@@2V0locale@2@A 00467dbc     stlport_vc6_static:locale_impl.obj
 0003:00000dc0       ?id@?$collate@G@_STL@@2V0locale@2@A 00467dc0     stlport_vc6_static:locale_impl.obj
 0003:00000dc4       ?id@?$ctype@G@_STL@@2V0locale@2@A 00467dc4     stlport_vc6_static:locale_impl.obj
 0003:00000dc8       ?id@?$moneypunct@G$00@_STL@@2V0locale@2@A 00467dc8     stlport_vc6_static:locale_impl.obj
 0003:00000dcc       ?id@?$moneypunct@G$0A@@_STL@@2V0locale@2@A 00467dcc     stlport_vc6_static:locale_impl.obj
 0003:00000dd0       ?id@?$numpunct@G@_STL@@2V0locale@2@A 00467dd0     stlport_vc6_static:locale_impl.obj
 0003:00000dd4       ?id@?$messages@G@_STL@@2V0locale@2@A 00467dd4     stlport_vc6_static:locale_impl.obj
 0003:00000dd8       ??_R0?AV_Locale_impl@_STL@@@8 00467dd8     stlport_vc6_static:locale_impl.obj
 0003:00000df8       ?__max@?$_STLP_mutex_spin@$0A@@_STL@@2IA 00467df8     stlport_vc6_static:locale_impl.obj
 0003:00000e00       ??_R0?AVexception@@@8      00467e00     stlport_vc6_static:locale_impl.obj
 0003:00000e18       ??_R0?AVbad_cast@@@8       00467e18     stlport_vc6_static:locale_impl.obj
 0003:00000e30       ??_C@_08PJMK@bad_cast?$AA@ 00467e30     stlport_vc6_static:locale_impl.obj
 0003:00000e40       ??_R0?AV?$time_put@DV?$ostreambuf_iterator@DV?$char_traits@D@_STL@@@_STL@@@_STL@@@8 00467e40     stlport_vc6_static:locale_impl.obj
 0003:00000e98       ??_R0?AV?$num_put@DV?$ostreambuf_iterator@DV?$char_traits@D@_STL@@@_STL@@@_STL@@@8 00467e98     stlport_vc6_static:locale_impl.obj
 0003:00000ef0       ??_R0?AV?$num_get@GV?$istreambuf_iterator@GV?$char_traits@G@_STL@@@_STL@@@_STL@@@8 00467ef0     stlport_vc6_static:locale_impl.obj
 0003:00000f48       ??_R0?AV?$codecvt@GDH@_STL@@@8 00467f48     stlport_vc6_static:locale_impl.obj
 0003:00000f70       ??_R0?AV?$time_get@GV?$istreambuf_iterator@GV?$char_traits@G@_STL@@@_STL@@@_STL@@@8 00467f70     stlport_vc6_static:locale_impl.obj
 0003:00000fc8       ??_R0?AV?$time_put@GV?$ostreambuf_iterator@GV?$char_traits@G@_STL@@@_STL@@@_STL@@@8 00467fc8     stlport_vc6_static:locale_impl.obj
 0003:00001020       ??_R0?AV?$num_get@DV?$istreambuf_iterator@DV?$char_traits@D@_STL@@@_STL@@@_STL@@@8 00468020     stlport_vc6_static:locale_impl.obj
 0003:00001078       ??_R0?AV?$money_get@GV?$istreambuf_iterator@GV?$char_traits@G@_STL@@@_STL@@@_STL@@@8 00468078     stlport_vc6_static:locale_impl.obj
 0003:000010d0       ??_R0?AV?$money_put@GV?$ostreambuf_iterator@GV?$char_traits@G@_STL@@@_STL@@@_STL@@@8 004680d0     stlport_vc6_static:locale_impl.obj
 0003:00001128       ??_R0?AVtime_base@_STL@@@8 00468128     stlport_vc6_static:locale_impl.obj
 0003:00001148       ??_R0?AV?$time_get@DV?$istreambuf_iterator@DV?$char_traits@D@_STL@@@_STL@@@_STL@@@8 00468148     stlport_vc6_static:locale_impl.obj
 0003:000011a0       ??_R0?AV?$money_put@DV?$ostreambuf_iterator@DV?$char_traits@D@_STL@@@_STL@@@_STL@@@8 004681a0     stlport_vc6_static:locale_impl.obj
 0003:000011f8       ??_R0?AV?$money_get@DV?$istreambuf_iterator@DV?$char_traits@D@_STL@@@_STL@@@_STL@@@8 004681f8     stlport_vc6_static:locale_impl.obj
 0003:00001250       ??_R0?AV?$num_put@GV?$ostreambuf_iterator@GV?$char_traits@G@_STL@@@_STL@@@_STL@@@8 00468250     stlport_vc6_static:locale_impl.obj
 0003:000012a8       ??_R0?AVcodecvt_base@_STL@@@8 004682a8     stlport_vc6_static:locale_impl.obj
 0003:000012c8       ??_R0?AV?$codecvt@DDH@_STL@@@8 004682c8     stlport_vc6_static:locale_impl.obj
 0003:000012f0       ??_R0?AV?$collate@G@_STL@@@8 004682f0     stlport_vc6_static:locale_impl.obj
 0003:00001310       ??_R0?AV?$collate@D@_STL@@@8 00468310     stlport_vc6_static:locale_impl.obj
 0003:00001330       ??_R0?AV?$numpunct@G@_STL@@@8 00468330     stlport_vc6_static:locale_impl.obj
 0003:00001350       ??_R0?AV?$numpunct@D@_STL@@@8 00468350     stlport_vc6_static:locale_impl.obj
 0003:00001370       ??_R0?AVctype_base@_STL@@@8 00468370     stlport_vc6_static:locale_impl.obj
 0003:00001390       ??_R0?AU_Refcount_Base@_STL@@@8 00468390     stlport_vc6_static:locale_impl.obj
 0003:000013b8       ??_R0?AVfacet@locale@_STL@@@8 004683b8     stlport_vc6_static:locale_impl.obj
 0003:000013d8       ??_R0?AV?$ctype@G@_STL@@@8 004683d8     stlport_vc6_static:locale_impl.obj
 0003:000013f8       ??_C@_01FKHJ@C?$AA@        004683f8     stlport_vc6_static:locale_impl.obj
 0003:00001400       ??_R0?AV__Named_exception@_STL@@@8 00468400     stlport_vc6_static:locale_impl.obj
 0003:00001428       ??_R0?AVruntime_error@_STL@@@8 00468428     stlport_vc6_static:locale_impl.obj
 0003:0000144c       ??_C@_0N@LLBA@locale?5error?$AA@ 0046844c     stlport_vc6_static:locale_impl.obj
 0003:0000145c       ??_C@_0BC@LDGB@bad?5locale?5name?3?5?$AA@ 0046845c     stlport_vc6_static:locale_impl.obj
 0003:00001470       ??_C@_01FDHG@?$CK?$AA@     00468470     stlport_vc6_static:locale_impl.obj
 0003:00001474       ?_S_was_synced@ios_base@_STL@@1_NA 00468474     stlport_vc6_static:iostream.obj
 0003:00001478       ??_R0?AVios_base@_STL@@@8  00468478     stlport_vc6_static:iostream.obj
 0003:00001498       ??_R0?AV?$basic_ios@DV?$char_traits@D@_STL@@@_STL@@@8 00468498     stlport_vc6_static:iostream.obj
 0003:000014d0       ??_R0?AV?$basic_istream@DV?$char_traits@D@_STL@@@_STL@@@8 004684d0     stlport_vc6_static:iostream.obj
 0003:00001510       ??_R0?AV?$basic_ostream@DV?$char_traits@D@_STL@@@_STL@@@8 00468510     stlport_vc6_static:iostream.obj
 0003:00001550       ??_R0?AV?$basic_ios@GV?$char_traits@G@_STL@@@_STL@@@8 00468550     stlport_vc6_static:iostream.obj
 0003:00001588       ??_R0?AV?$basic_istream@GV?$char_traits@G@_STL@@@_STL@@@8 00468588     stlport_vc6_static:iostream.obj
 0003:000015c8       ??_R0?AV?$basic_ostream@GV?$char_traits@G@_STL@@@_STL@@@8 004685c8     stlport_vc6_static:iostream.obj
 0003:00001608       ??_R0?AV?$basic_filebuf@DV?$char_traits@D@_STL@@@_STL@@@8 00468608     stlport_vc6_static:iostream.obj
 0003:00001648       ??_R0?AV?$basic_streambuf@DV?$char_traits@D@_STL@@@_STL@@@8 00468648     stlport_vc6_static:iostream.obj
 0003:00001688       ??_R0?AV?$basic_filebuf@GV?$char_traits@G@_STL@@@_STL@@@8 00468688     stlport_vc6_static:iostream.obj
 0003:000016c8       ??_R0?AV?$basic_streambuf@GV?$char_traits@G@_STL@@@_STL@@@8 004686c8     stlport_vc6_static:iostream.obj
 0003:00001708       ??_R0?AVstdio_ostreambuf@_SgI@@@8 00468708     stlport_vc6_static:iostream.obj
 0003:00001730       ??_R0?AVstdio_streambuf_base@_SgI@@@8 00468730     stlport_vc6_static:iostream.obj
 0003:00001758       ??_R0?AVstdio_istreambuf@_SgI@@@8 00468758     stlport_vc6_static:iostream.obj
 0003:00001780       ??_R0?AVfailure@ios_base@_STL@@@8 00468780     stlport_vc6_static:ios.obj
 0003:000017a4       ??_C@_0M@COKC@ios?5failure?$AA@ 004687a4     stlport_vc6_static:ios.obj
 0003:000017b0       ?_Message_table@?$__stl_debug_engine@_N@_STL@@2PAPBDA 004687b0     stlport_vc6_static:dll_main.obj
 0003:0000181c       ??_C@_0BA@BABJ@Unknown?5problem?$AA@ 0046881c     stlport_vc6_static:dll_main.obj
 0003:0000182c       ??_C@_0EA@IBLM@Attempt?5to?5dereference?5null?5poin@ 0046882c     stlport_vc6_static:dll_main.obj
 0003:0000186c       ??_C@_0EF@PEMF@Pointer?5overrrun?5?9?5safety?5margin@ 0046886c     stlport_vc6_static:dll_main.obj
 0003:000018b4       ??_C@_0EG@FMKN@Pointer?5underrun?5?9?5safety?5margin@ 004688b4     stlport_vc6_static:dll_main.obj
 0003:000018fc       ??_C@_0DO@PKEM@Size?5of?5block?5passed?5to?5dealloca@ 004688fc     stlport_vc6_static:dll_main.obj
 0003:0000193c       ??_C@_0DH@BDIA@Deallocating?5a?5memory?5block?5allo@ 0046893c     stlport_vc6_static:dll_main.obj
 0003:00001974       ??_C@_0CO@KLLE@Deallocating?5a?5block?5that?5was?5ne@ 00468974     stlport_vc6_static:dll_main.obj
 0003:000019a4       ??_C@_0BP@GDAO@Memory?5block?5deallocated?5twice?$AA@ 004689a4     stlport_vc6_static:dll_main.obj
 0003:000019c4       ??_C@_0DE@HLBD@Iterator?5is?5singular?5?$CIadvanced?5b@ 004689c4     stlport_vc6_static:dll_main.obj
 0003:000019f8       ??_C@_0CL@NCEB@The?5advance?5would?5produce?5invali@ 004689f8     stlport_vc6_static:dll_main.obj
 0003:00001a24       ??_C@_0DC@OBNO@Range?5?$FLfirst?0last?$CJ?5is?5not?5in?5ran@ 00468a24     stlport_vc6_static:dll_main.obj
 0003:00001a58       ??_C@_0CG@HOOA@Iterator?5is?5not?5in?5range?5?$FLfirst?0@ 00468a58     stlport_vc6_static:dll_main.obj
 0003:00001a80       ??_C@_0BO@GKPA@Range?5?$FLfirst?0last?$CJ?5is?5invalid?$AA@ 00468a80     stlport_vc6_static:dll_main.obj
 0003:00001aa0       ??_C@_0DE@CGHP@Iterator?5could?5not?5be?5dereferenc@ 00468aa0     stlport_vc6_static:dll_main.obj
 0003:00001ad4       ??_C@_0DH@HODG@Iterators?5used?5in?5expression?5are@ 00468ad4     stlport_vc6_static:dll_main.obj
 0003:00001b0c       ??_C@_0FG@ODCB@Uninitialized?5or?5invalidated?5?$CIby@ 00468b0c     stlport_vc6_static:dll_main.obj
 0003:00001b64       ??_C@_0FF@HHHM@Uninitialized?5or?5invalidated?5?$CIby@ 00468b64     stlport_vc6_static:dll_main.obj
 0003:00001bbc       ??_C@_0ED@HION@Uninitialized?5or?5invalidated?5?$CIby@ 00468bbc     stlport_vc6_static:dll_main.obj
 0003:00001c00       ??_C@_0CD@OMCN@Container?5doesn?8t?5own?5the?5iterat@ 00468c00     stlport_vc6_static:dll_main.obj
 0003:00001c24       ??_C@_0BE@DFCJ@Index?5out?5of?5bounds?$AA@ 00468c24     stlport_vc6_static:dll_main.obj
 0003:00001c38       ??_C@_0CK@CAO@Past?9the?9end?5iterator?5could?5not?5@ 00468c38     stlport_vc6_static:dll_main.obj
 0003:00001c64       ??_C@_0DF@DMFN@Trying?5to?5extract?5an?5object?5out?5@ 00468c64     stlport_vc6_static:dll_main.obj
 0003:00001c9c       ??_C@_0EH@JNGD@Taking?5an?5iterator?5out?5of?5destro@ 00468c9c     stlport_vc6_static:dll_main.obj
 0003:00001ce4       ??_C@_0DM@COIK@Invalid?5argument?5to?5operation?5?$CIs@ 00468ce4     stlport_vc6_static:dll_main.obj
 0003:00001d20       ??_C@_0EA@MFLA@?6?$CFs?$CI?$CFd?$CJ?3?5STL?5error?5?3?5?$CFs?6?$CFs?$CI?$CFd?$CJ?3?5@ 00468d20     stlport_vc6_static:dll_main.obj
 0003:00001d60       ??_C@_0CE@LOFJ@?$CFs?$CI?$CFd?$CJ?3?5STL?5assertion?5failure?5?3?5@ 00468d60     stlport_vc6_static:dll_main.obj
 0003:00001d84       ??_C@_0BI@GDMA@?6?$CFs?$CI?$CFd?$CJ?3?5STL?5error?3?5?$CFs?6?$AA@ 00468d84     stlport_vc6_static:dll_main.obj
 0003:00001da0       ??_R0?AVrange_error@_STL@@@8 00468da0     stlport_vc6_static:dll_main.obj
 0003:00001dc0       ??_R0?AVout_of_range@_STL@@@8 00468dc0     stlport_vc6_static:dll_main.obj
 0003:00001de0       ??_R0?AVlogic_error@_STL@@@8 00468de0     stlport_vc6_static:dll_main.obj
 0003:00001e00       ??_R0?AVlength_error@_STL@@@8 00468e00     stlport_vc6_static:dll_main.obj
 0003:00001e20       ??_R0?AVinvalid_argument@_STL@@@8 00468e20     stlport_vc6_static:dll_main.obj
 0003:00001e48       ??_R0?AVoverflow_error@_STL@@@8 00468e48     stlport_vc6_static:dll_main.obj
 0003:00001e70       ??_R0?AVdomain_error@_STL@@@8 00468e70     stlport_vc6_static:dll_main.obj
 0003:00001e90       ??_R0?AVunderflow_error@_STL@@@8 00468e90     stlport_vc6_static:dll_main.obj
 0003:00001eb8       ??_R0?AVbad_alloc@std@@@8  00468eb8     stlport_vc6_static:dll_main.obj
 0003:00001ed4       ??_C@_0P@LJNA@bad?5allocation?$AA@ 00468ed4     stlport_vc6_static:dll_main.obj
 0003:00001ee4       ??_C@_06EJHH@vector?$AA@   00468ee4     stlport_vc6_static:dll_main.obj
 0003:00001eec       ?_M_page_size@_Filebuf_base@_STL@@1IA 00468eec     stlport_vc6_static:fstream.obj
 0003:00001ef0       ??_R0?AV?$basic_ifstream@DV?$char_traits@D@_STL@@@_STL@@@8 00468ef0     stlport_vc6_static:fstream.obj
 0003:00001f30       ??_R0?AV?$basic_ofstream@DV?$char_traits@D@_STL@@@_STL@@@8 00468f30     stlport_vc6_static:fstream.obj
 0003:00001f70       ??_R0?AV?$basic_fstream@DV?$char_traits@D@_STL@@@_STL@@@8 00468f70     stlport_vc6_static:fstream.obj
 0003:00001fb0       ??_R0?AV?$basic_iostream@DV?$char_traits@D@_STL@@@_STL@@@8 00468fb0     stlport_vc6_static:fstream.obj
 0003:00001ff0       ??_R0?AV?$basic_ifstream@GV?$char_traits@G@_STL@@@_STL@@@8 00468ff0     stlport_vc6_static:fstream.obj
 0003:00002030       ??_R0?AV?$basic_ofstream@GV?$char_traits@G@_STL@@@_STL@@@8 00469030     stlport_vc6_static:fstream.obj
 0003:00002070       ??_R0?AV?$basic_fstream@GV?$char_traits@G@_STL@@@_STL@@@8 00469070     stlport_vc6_static:fstream.obj
 0003:000020b0       ??_R0?AV?$basic_iostream@GV?$char_traits@G@_STL@@@_STL@@@8 004690b0     stlport_vc6_static:fstream.obj
 0003:000020f0       ??_R0?AVmessages_base@_STL@@@8 004690f0     stlport_vc6_static:messages.obj
 0003:00002118       ??_R0?AV?$messages@D@_STL@@@8 00469118     stlport_vc6_static:messages.obj
 0003:00002138       ??_R0?AV_Messages@_STL@@@8 00469138     stlport_vc6_static:messages.obj
 0003:00002158       ??_R0?AV?$messages@G@_STL@@@8 00469158     stlport_vc6_static:messages.obj
 0003:00002178       ??_C@_04NCCD@true?$AA@     00469178     stlport_vc6_static:numpunct.obj
 0003:00002180       ??_C@_05NAGO@false?$AA@    00469180     stlport_vc6_static:numpunct.obj
 0003:00002188       ??_C@_19MHCJ@?$AAt?$AAr?$AAu?$AAe?$AA?$AA@ 00469188     stlport_vc6_static:numpunct.obj
 0003:00002194       ??_C@_1M@BPLO@?$AAf?$AAa?$AAl?$AAs?$AAe?$AA?$AA@ 00469194     stlport_vc6_static:numpunct.obj
 0003:000021a0       ??_R0?AV?$ctype@D@_STL@@@8 004691a0     stlport_vc6_static:ctype.obj
 0003:000021c0       ??_R0?AVmoney_base@_STL@@@8 004691c0     stlport_vc6_static:monetary.obj
 0003:000021e0       ??_R0?AV?$moneypunct@D$00@_STL@@@8 004691e0     stlport_vc6_static:monetary.obj
 0003:00002208       ??_R0?AV?$moneypunct@D$0A@@_STL@@@8 00469208     stlport_vc6_static:monetary.obj
 0003:00002230       ??_R0?AV?$moneypunct@G$00@_STL@@@8 00469230     stlport_vc6_static:monetary.obj
 0003:00002258       ??_R0?AV?$moneypunct@G$0A@@_STL@@@8 00469258     stlport_vc6_static:monetary.obj
 0003:00002280       ??_C@_0BF@HIMH@?$CFa?5?$CFb?5?$CFe?5?$CFH?3?$CFM?3?$CFS?5?$CFY?$AA@ 00469280     stlport_vc6_static:time_facets.obj
 0003:00002298       ??_C@_08BBCI@?$CFm?1?$CFd?1?$CFy?$AA@ 00469298     stlport_vc6_static:time_facets.obj
 0003:000022a4       ??_C@_08DKN@?$CFH?3?$CFM?3?$CFS?$AA@ 004692a4     stlport_vc6_static:time_facets.obj
 0003:000022b0       ??_C@_02DBLP@PM?$AA@       004692b0     stlport_vc6_static:time_facets.obj
 0003:000022b4       ??_C@_02ENLM@AM?$AA@       004692b4     stlport_vc6_static:time_facets.obj
 0003:000022b8       ??_C@_04BALP@?$CF2ld?$AA@  004692b8     stlport_vc6_static:time_facets.obj
 0003:000022c0       ??_C@_03JFOM@?$CFld?$AA@   004692c0     stlport_vc6_static:time_facets.obj
 0003:000022c4       ??_C@_05HBMD@?$CF?42ld?$AA@ 004692c4     stlport_vc6_static:time_facets.obj
 0003:000022e8       ??_C@_0L@JIBM@0123456789?$AA@ 004692e8     stlport_vc6_static:num_get_float.obj
 0003:00002304       ??_C@_03JODP@NaN?$AA@      00469304     stlport_vc6_static:num_put_float.obj
 0003:00002308       ??_C@_03IOAK@nan?$AA@      00469308     stlport_vc6_static:num_put_float.obj
 0003:0000230c       ??_C@_03PCAH@Inf?$AA@      0046930c     stlport_vc6_static:num_put_float.obj
 0003:00002310       ??_C@_03LANC@inf?$AA@      00469310     stlport_vc6_static:num_put_float.obj
 0003:000025f8       ??_C@_07PCLE@LC_TIME?$AA@  004695f8     stlport_vc6_static:c_locale.obj
 0003:00002600       ??_C@_0L@NKG@LC_NUMERIC?$AA@ 00469600     stlport_vc6_static:c_locale.obj
 0003:0000260c       ??_C@_0M@CBIH@LC_MONETARY?$AA@ 0046960c     stlport_vc6_static:c_locale.obj
 0003:00002618       ??_C@_08LFGE@LC_CTYPE?$AA@ 00469618     stlport_vc6_static:c_locale.obj
 0003:00002624       ??_C@_0L@CFLC@LC_COLLATE?$AA@ 00469624     stlport_vc6_static:c_locale.obj
 0003:00002630       ??_C@_06GCPK@LC_ALL?$AA@   00469630     stlport_vc6_static:c_locale.obj
 0003:00002638       ??_C@_0O@GLHB@united?9states?$AA@ 00469638     stlport_vc6_static:c_locale.obj
 0003:00002648       ??_C@_0P@IIKK@united?9kingdom?$AA@ 00469648     stlport_vc6_static:c_locale.obj
 0003:00002658       ??_C@_03NCKB@TTO?$AA@      00469658     stlport_vc6_static:c_locale.obj
 0003:0000265c       ??_C@_0BC@FHBO@trinidad?5?$CG?5tobago?$AA@ 0046965c     stlport_vc6_static:c_locale.obj
 0003:00002670       ??_C@_0M@BDFM@south?9korea?$AA@ 00469670     stlport_vc6_static:c_locale.obj
 0003:0000267c       ??_C@_0N@CKFA@south?9africa?$AA@ 0046967c     stlport_vc6_static:c_locale.obj
 0003:0000268c       ??_C@_03MEBO@KOR?$AA@      0046968c     stlport_vc6_static:c_locale.obj
 0003:00002690       ??_C@_0M@HNHN@south?5korea?$AA@ 00469690     stlport_vc6_static:c_locale.obj
 0003:0000269c       ??_C@_03HGOF@ZAF?$AA@      0046969c     stlport_vc6_static:c_locale.obj
 0003:000026a0       ??_C@_0N@MKDO@south?5africa?$AA@ 004696a0     stlport_vc6_static:c_locale.obj
 0003:000026b0       ??_C@_03OLMJ@SVK?$AA@      004696b0     stlport_vc6_static:c_locale.obj
 0003:000026b4       ??_C@_06KFFJ@slovak?$AA@   004696b4     stlport_vc6_static:c_locale.obj
 0003:000026bc       ??_C@_03BCHG@PRI?$AA@      004696bc     stlport_vc6_static:c_locale.obj
 0003:000026c0       ??_C@_0M@NMAC@puerto?9rico?$AA@ 004696c0     stlport_vc6_static:c_locale.obj
 0003:000026cc       ??_C@_08EJOH@pr?9china?$AA@ 004696cc     stlport_vc6_static:c_locale.obj
 0003:000026d8       ??_C@_08CHMG@pr?5china?$AA@ 004696d8     stlport_vc6_static:c_locale.obj
 0003:000026e4       ??_C@_02OCJK@nz?$AA@       004696e4     stlport_vc6_static:c_locale.obj
 0003:000026e8       ??_C@_03PKEB@NZL?$AA@      004696e8     stlport_vc6_static:c_locale.obj
 0003:000026ec       ??_C@_0M@MMKA@new?9zealand?$AA@ 004696ec     stlport_vc6_static:c_locale.obj
 0003:000026f8       ??_C@_03MBDE@HKG?$AA@      004696f8     stlport_vc6_static:c_locale.obj
 0003:000026fc       ??_C@_09MGEH@hong?9kong?$AA@ 004696fc     stlport_vc6_static:c_locale.obj
 0003:00002708       ??_C@_03LDKP@NLD?$AA@      00469708     stlport_vc6_static:c_locale.obj
 0003:0000270c       ??_C@_07CCAK@holland?$AA@  0046970c     stlport_vc6_static:c_locale.obj
 0003:00002714       ??_C@_0O@MEPL@great?5britain?$AA@ 00469714     stlport_vc6_static:c_locale.obj
 0003:00002724       ??_C@_07LGIB@england?$AA@  00469724     stlport_vc6_static:c_locale.obj
 0003:0000272c       ??_C@_03IOJH@CZE?$AA@      0046972c     stlport_vc6_static:c_locale.obj
 0003:00002730       ??_C@_05BMOA@czech?$AA@    00469730     stlport_vc6_static:c_locale.obj
 0003:00002738       ??_C@_03GCGK@CHN?$AA@      00469738     stlport_vc6_static:c_locale.obj
 0003:0000273c       ??_C@_05NMPB@china?$AA@    0046973c     stlport_vc6_static:c_locale.obj
 0003:00002744       ??_C@_03OFKF@GBR?$AA@      00469744     stlport_vc6_static:c_locale.obj
 0003:00002748       ??_C@_07GN@britain?$AA@    00469748     stlport_vc6_static:c_locale.obj
 0003:00002750       ??_C@_03EKCI@USA?$AA@      00469750     stlport_vc6_static:c_locale.obj
 0003:00002754       ??_C@_07DLAK@america?$AA@  00469754     stlport_vc6_static:c_locale.obj
 0003:0000275c       ??_C@_03IPEP@usa?$AA@      0046975c     stlport_vc6_static:c_locale.obj
 0003:00002760       ??_C@_02PILH@us?$AA@       00469760     stlport_vc6_static:c_locale.obj
 0003:00002764       ??_C@_02FHP@uk?$AA@        00469764     stlport_vc6_static:c_locale.obj
 0003:00002768       ??_C@_05DEAI@swiss?$AA@    00469768     stlport_vc6_static:c_locale.obj
 0003:00002770       ??_C@_03LPLK@SVF?$AA@      00469770     stlport_vc6_static:c_locale.obj
 0003:00002774       ??_C@_0BA@LIAF@swedish?9finland?$AA@ 00469774     stlport_vc6_static:c_locale.obj
 0003:00002784       ??_C@_03JHNH@ESV?$AA@      00469784     stlport_vc6_static:c_locale.obj
 0003:00002788       ??_C@_0BC@FMEG@spanish?9venezuela?$AA@ 00469788     stlport_vc6_static:c_locale.obj
 0003:0000279c       ??_C@_03JGIK@ESY?$AA@      0046979c     stlport_vc6_static:c_locale.obj
 0003:000027a0       ??_C@_0BA@BNMG@spanish?9uruguay?$AA@ 004697a0     stlport_vc6_static:c_locale.obj
 0003:000027b0       ??_C@_03GIGO@ESU?$AA@      004697b0     stlport_vc6_static:c_locale.obj
 0003:000027b4       ??_C@_0BE@BKDJ@spanish?9puerto?5rico?$AA@ 004697b4     stlport_vc6_static:c_locale.obj
 0003:000027c8       ??_C@_03DNIL@ESR?$AA@      004697c8     stlport_vc6_static:c_locale.obj
 0003:000027cc       ??_C@_0N@JIBL@spanish?9peru?$AA@ 004697cc     stlport_vc6_static:c_locale.obj
 0003:000027dc       ??_C@_03GJDD@ESZ?$AA@      004697dc     stlport_vc6_static:c_locale.obj
 0003:000027e0       ??_C@_0BB@OGOF@spanish?9paraguay?$AA@ 004697e0     stlport_vc6_static:c_locale.obj
 0003:000027f4       ??_C@_03GLEC@ESA?$AA@      004697f4     stlport_vc6_static:c_locale.obj
 0003:000027f8       ??_C@_0P@LLFA@spanish?9panama?$AA@ 004697f8     stlport_vc6_static:c_locale.obj
 0003:00002808       ??_C@_03DPPK@ESI?$AA@      00469808     stlport_vc6_static:c_locale.obj
 0003:0000280c       ??_C@_0BC@BBJM@spanish?9nicaragua?$AA@ 0046980c     stlport_vc6_static:c_locale.obj
 0003:00002820       ??_C@_03GKBP@ESN?$AA@      00469820     stlport_vc6_static:c_locale.obj
 0003:00002824       ??_C@_0P@NJBN@spanish?9modern?$AA@ 00469824     stlport_vc6_static:c_locale.obj
 0003:00002834       ??_C@_03JFKG@ESM?$AA@      00469834     stlport_vc6_static:c_locale.obj
 0003:00002838       ??_C@_0BA@NHDN@spanish?9mexican?$AA@ 00469838     stlport_vc6_static:c_locale.obj
 0003:00002848       ??_C@_03JFGN@ESH?$AA@      00469848     stlport_vc6_static:c_locale.obj
 0003:0000284c       ??_C@_0BB@JHOJ@spanish?9honduras?$AA@ 0046984c     stlport_vc6_static:c_locale.obj
 0003:00002860       ??_C@_03JEDA@ESG?$AA@      00469860     stlport_vc6_static:c_locale.obj
 0003:00002864       ??_C@_0BC@BOOM@spanish?9guatemala?$AA@ 00469864     stlport_vc6_static:c_locale.obj
 0003:00002878       ??_C@_03MBBO@ESE?$AA@      00469878     stlport_vc6_static:c_locale.obj
 0003:0000287c       ??_C@_0BE@EELI@spanish?9el?5salvador?$AA@ 0046987c     stlport_vc6_static:c_locale.obj
 0003:00002890       ??_C@_03DOKH@ESF?$AA@      00469890     stlport_vc6_static:c_locale.obj
 0003:00002894       ??_C@_0BA@POAE@spanish?9ecuador?$AA@ 00469894     stlport_vc6_static:c_locale.obj
 0003:000028a4       ??_C@_03GLIJ@ESD?$AA@      004698a4     stlport_vc6_static:c_locale.obj
 0003:000028a8       ??_C@_0BL@LDKN@spanish?9dominican?5republic?$AA@ 004698a8     stlport_vc6_static:c_locale.obj
 0003:000028c4       ??_C@_03DOGM@ESC?$AA@      004698c4     stlport_vc6_static:c_locale.obj
 0003:000028c8       ??_C@_0BD@HPMH@spanish?9costa?5rica?$AA@ 004698c8     stlport_vc6_static:c_locale.obj
 0003:000028dc       ??_C@_03MAII@ESO?$AA@      004698dc     stlport_vc6_static:c_locale.obj
 0003:000028e0       ??_C@_0BB@NDDK@spanish?9colombia?$AA@ 004698e0     stlport_vc6_static:c_locale.obj
 0003:000028f4       ??_C@_03DPDB@ESL?$AA@      004698f4     stlport_vc6_static:c_locale.obj
 0003:000028f8       ??_C@_0O@BJHA@spanish?9chile?$AA@ 004698f8     stlport_vc6_static:c_locale.obj
 0003:00002908       ??_C@_03JEPL@ESB?$AA@      00469908     stlport_vc6_static:c_locale.obj
 0003:0000290c       ??_C@_0BA@OBNG@spanish?9bolivia?$AA@ 0046990c     stlport_vc6_static:c_locale.obj
 0003:0000291c       ??_C@_03JHBM@ESS?$AA@      0046991c     stlport_vc6_static:c_locale.obj
 0003:00002920       ??_C@_0BC@EFAM@spanish?9argentina?$AA@ 00469920     stlport_vc6_static:c_locale.obj
 0003:00002934       ??_C@_03MOII@PTB?$AA@      00469934     stlport_vc6_static:c_locale.obj
 0003:00002938       ??_C@_0BF@KMMM@portuguese?9brazilian?$AA@ 00469938     stlport_vc6_static:c_locale.obj
 0003:00002950       ??_C@_03IJMG@NON?$AA@      00469950     stlport_vc6_static:c_locale.obj
 0003:00002954       ??_C@_0BC@BAAE@norwegian?9nynorsk?$AA@ 00469954     stlport_vc6_static:c_locale.obj
 0003:00002968       ??_C@_0BB@PBHK@norwegian?9bokmal?$AA@ 00469968     stlport_vc6_static:c_locale.obj
 0003:0000297c       ??_C@_03NOFC@NOR?$AA@      0046997c     stlport_vc6_static:c_locale.obj
 0003:00002980       ??_C@_09EHKL@norwegian?$AA@ 00469980     stlport_vc6_static:c_locale.obj
 0003:0000298c       ??_C@_03COKG@ITS?$AA@      0046998c     stlport_vc6_static:c_locale.obj
 0003:00002990       ??_C@_0O@BEAN@italian?9swiss?$AA@ 00469990     stlport_vc6_static:c_locale.obj
 0003:000029a0       ??_C@_0O@OIFK@irish?9english?$AA@ 004699a0     stlport_vc6_static:c_locale.obj
 0003:000029b0       ??_C@_03NIFM@DES?$AA@      004699b0     stlport_vc6_static:c_locale.obj
 0003:000029b4       ??_C@_0N@NBPL@german?9swiss?$AA@ 004699b4     stlport_vc6_static:c_locale.obj
 0003:000029c4       ??_C@_03HAHB@DEL?$AA@      004699c4     stlport_vc6_static:c_locale.obj
 0003:000029c8       ??_C@_0BC@ICFJ@german?9luxembourg?$AA@ 004699c8     stlport_vc6_static:c_locale.obj
 0003:000029dc       ??_C@_03HBCM@DEC?$AA@      004699dc     stlport_vc6_static:c_locale.obj
 0003:000029e0       ??_C@_0BE@GGPC@german?9lichtenstein?$AA@ 004699e0     stlport_vc6_static:c_locale.obj
 0003:000029f4       ??_C@_03CEAC@DEA?$AA@      004699f4     stlport_vc6_static:c_locale.obj
 0003:000029f8       ??_C@_0BA@MKDC@german?9austrian?$AA@ 004699f8     stlport_vc6_static:c_locale.obj
 0003:00002a08       ??_C@_03HHIN@FRS?$AA@      00469a08     stlport_vc6_static:c_locale.obj
 0003:00002a0c       ??_C@_0N@ODNB@french?9swiss?$AA@ 00469a0c     stlport_vc6_static:c_locale.obj
 0003:00002a1c       ??_C@_03NPKA@FRL?$AA@      00469a1c     stlport_vc6_static:c_locale.obj
 0003:00002a20       ??_C@_0BC@MGCM@french?9luxembourg?$AA@ 00469a20     stlport_vc6_static:c_locale.obj
 0003:00002a34       ??_C@_03NOPN@FRC?$AA@      00469a34     stlport_vc6_static:c_locale.obj
 0003:00002a38       ??_C@_0BA@NABK@french?9canadian?$AA@ 00469a38     stlport_vc6_static:c_locale.obj
 0003:00002a48       ??_C@_03HEGK@FRB?$AA@      00469a48     stlport_vc6_static:c_locale.obj
 0003:00002a4c       ??_C@_0P@CJNO@french?9belgian?$AA@ 00469a4c     stlport_vc6_static:c_locale.obj
 0003:00002a5c       ??_C@_0M@LJOL@english?9usa?$AA@ 00469a5c     stlport_vc6_static:c_locale.obj
 0003:00002a68       ??_C@_0L@FMNC@english?9us?$AA@ 00469a68     stlport_vc6_static:c_locale.obj
 0003:00002a74       ??_C@_03HMN@ENG?$AA@       00469a74     stlport_vc6_static:c_locale.obj
 0003:00002a78       ??_C@_0L@KBBK@english?9uk?$AA@ 00469a78     stlport_vc6_static:c_locale.obj
 0003:00002a84       ??_C@_03FBAE@ENT?$AA@      00469a84     stlport_vc6_static:c_locale.obj
 0003:00002a88       ??_C@_0BK@NDDE@english?9trinidad?5y?5tobago?$AA@ 00469a88     stlport_vc6_static:c_locale.obj
 0003:00002aa4       ??_C@_03EOB@ENS?$AA@       00469aa4     stlport_vc6_static:c_locale.obj
 0003:00002aa8       ??_C@_0BF@LKML@english?9south?5africa?$AA@ 00469aa8     stlport_vc6_static:c_locale.obj
 0003:00002ac0       ??_C@_03PKMO@ENZ?$AA@      00469ac0     stlport_vc6_static:c_locale.obj
 0003:00002ac4       ??_C@_0L@EGPP@english?9nz?$AA@ 00469ac4     stlport_vc6_static:c_locale.obj
 0003:00002ad0       ??_C@_03FDLO@ENJ?$AA@      00469ad0     stlport_vc6_static:c_locale.obj
 0003:00002ad4       ??_C@_0BA@HLH@english?9jamaica?$AA@ 00469ad4     stlport_vc6_static:c_locale.obj
 0003:00002ae4       ??_C@_03KMAH@ENI?$AA@      00469ae4     stlport_vc6_static:c_locale.obj
 0003:00002ae8       ??_C@_0M@PMJI@english?9ire?$AA@ 00469ae8     stlport_vc6_static:c_locale.obj
 0003:00002af4       ??_C@_03HAG@ENB?$AA@       00469af4     stlport_vc6_static:c_locale.obj
 0003:00002af8       ??_C@_0BC@HINE@english?9caribbean?$AA@ 00469af8     stlport_vc6_static:c_locale.obj
 0003:00002b0c       ??_C@_0M@DCFH@english?9can?$AA@ 00469b0c     stlport_vc6_static:c_locale.obj
 0003:00002b18       ??_C@_03KMMM@ENL?$AA@      00469b18     stlport_vc6_static:c_locale.obj
 0003:00002b1c       ??_C@_0P@DGHK@english?9belize?$AA@ 00469b1c     stlport_vc6_static:c_locale.obj
 0003:00002b2c       ??_C@_0M@FLHK@english?9aus?$AA@ 00469b2c     stlport_vc6_static:c_locale.obj
 0003:00002b38       ??_C@_0BB@HNCK@english?9american?$AA@ 00469b38     stlport_vc6_static:c_locale.obj
 0003:00002b4c       ??_C@_0O@PAMI@dutch?9belgian?$AA@ 00469b4c     stlport_vc6_static:c_locale.obj
 0003:00002b5c       ??_C@_03MKIM@CHT?$AA@      00469b5c     stlport_vc6_static:c_locale.obj
 0003:00002b60       ??_C@_0BE@FPEJ@chinese?9traditional?$AA@ 00469b60     stlport_vc6_static:c_locale.obj
 0003:00002b74       ??_C@_0BC@CHFL@chinese?9singapore?$AA@ 00469b74     stlport_vc6_static:c_locale.obj
 0003:00002b88       ??_C@_0BD@DCMH@chinese?9simplified?$AA@ 00469b88     stlport_vc6_static:c_locale.obj
 0003:00002b9c       ??_C@_0BB@JMOE@chinese?9hongkong?$AA@ 00469b9c     stlport_vc6_static:c_locale.obj
 0003:00002bb0       ??_C@_03JPGJ@CHS?$AA@      00469bb0     stlport_vc6_static:c_locale.obj
 0003:00002bb4       ??_C@_07NGFN@chinese?$AA@  00469bb4     stlport_vc6_static:c_locale.obj
 0003:00002bbc       ??_C@_03NEEG@ZHI?$AA@      00469bbc     stlport_vc6_static:c_locale.obj
 0003:00002bc0       ??_C@_03PCOI@chi?$AA@      00469bc0     stlport_vc6_static:c_locale.obj
 0003:00002bc4       ??_C@_03HONB@ZHH?$AA@      00469bc4     stlport_vc6_static:c_locale.obj
 0003:00002bc8       ??_C@_03FIHP@chh?$AA@      00469bc8     stlport_vc6_static:c_locale.obj
 0003:00002bcc       ??_C@_03KNJB@ENC?$AA@      00469bcc     stlport_vc6_static:c_locale.obj
 0003:00002bd0       ??_C@_08HFLO@canadian?$AA@ 00469bd0     stlport_vc6_static:c_locale.obj
 0003:00002bdc       ??_C@_03EMNN@NLB?$AA@      00469bdc     stlport_vc6_static:c_locale.obj
 0003:00002be0       ??_C@_07INIJ@belgian?$AA@  00469be0     stlport_vc6_static:c_locale.obj
 0003:00002be8       ??_C@_03PILP@ENA?$AA@      00469be8     stlport_vc6_static:c_locale.obj
 0003:00002bec       ??_C@_0L@LCCA@australian?$AA@ 00469bec     stlport_vc6_static:c_locale.obj
 0003:00002bf8       ??_C@_0BB@BJIO@american?9english?$AA@ 00469bf8     stlport_vc6_static:c_locale.obj
 0003:00002c0c       ??_C@_0BB@DAGO@american?5english?$AA@ 00469c0c     stlport_vc6_static:c_locale.obj
 0003:00002c20       ??_C@_03PLJD@ENU?$AA@      00469c20     stlport_vc6_static:c_locale.obj
 0003:00002c24       ??_C@_08HENB@american?$AA@ 00469c24     stlport_vc6_static:c_locale.obj
 0003:00002c30       ??_C@_0N@LEBO@LC_MESSAGES?$DN?$AA@ 00469c30     stlport_vc6_static:c_locale.obj
 0003:00002c40       ??_C@_0N@LBMC@LC_MONETARY?$DN?$AA@ 00469c40     stlport_vc6_static:c_locale.obj
 0003:00002c50       ??_C@_0M@NCMG@LC_COLLATE?$DN?$AA@ 00469c50     stlport_vc6_static:c_locale.obj
 0003:00002c5c       ??_C@_0M@OJOO@LC_NUMERIC?$DN?$AA@ 00469c5c     stlport_vc6_static:c_locale.obj
 0003:00002c68       ??_C@_08FNBB@LC_TIME?$DN?$AA@ 00469c68     stlport_vc6_static:c_locale.obj
 0003:00002c74       ??_C@_01FAJB@?$DL?$AA@     00469c74     stlport_vc6_static:c_locale.obj
 0003:00002c78       ??_C@_09BFFG@LC_CTYPE?$DN?$AA@ 00469c78     stlport_vc6_static:c_locale.obj
 0003:00002c84       ??_C@_05MPJP@?$CFS?5?$CFp?$AA@ 00469c84     stlport_vc6_static:c_locale.obj
 0003:00002c8c       ??_C@_02GIOB@?$CFM?$AA@    00469c8c     stlport_vc6_static:c_locale.obj
 0003:00002c90       ??_C@_02GICK@?$CFH?$AA@    00469c90     stlport_vc6_static:c_locale.obj
 0003:00002c94       ??_C@_03DGJE@OCP?$AA@      00469c94     stlport_vc6_static:c_locale.obj
 0003:00002c98       ??_C@_03EKFG@ACP?$AA@      00469c98     stlport_vc6_static:c_locale.obj
 0003:00002c9c       ??_C@_03DBOJ@_?4?0?$AA@    00469c9c     stlport_vc6_static:c_locale.obj
 0003:00002ca0       ??_C@_01PJCK@?4?$AA@       00469ca0     stlport_vc6_static:c_locale.obj
 0003:00002ca4       ??_C@_01NON@_?$AA@         00469ca4     stlport_vc6_static:c_locale.obj
 0003:00002ca8       __NLG_Destination          00469ca8     LIBCMT:exsup.obj
 0003:00002cc0       ?__pMyUnhandledExceptionFilter@@3PAXA 00469cc0     LIBCMT:throw.obj
 0003:00002cc4       __aexit_rtn                00469cc4     LIBCMT:crt0.obj
 0003:00002cc8       ___app_type                00469cc8     LIBCMT:crt0.obj
 0003:00002cd0       ??_R0?AVtype_info@@@8      00469cd0     LIBCMT:typinfo.obj
 0003:00002e00       ___lc_category             00469e00     LIBCMT:setlocal.obj
 0003:00002e50       __fltused                  00469e50     LIBCMT:fpinit.obj
 0003:00002e54       __ldused                   00469e54     LIBCMT:fpinit.obj
 0003:00002e58       __FPinit                   00469e58     LIBCMT:fpinit.obj
 0003:00002e5c       __FPmtinit                 00469e5c     LIBCMT:fpinit.obj
 0003:00002e60       __FPmtterm                 00469e60     LIBCMT:fpinit.obj
 0003:00002e70       __iob                      00469e70     LIBCMT:_file.obj
 0003:000030f0       ___badioinfo               0046a0f0     LIBCMT:ioinit.obj
 0003:00003120       __pctype                   0046a120     LIBCMT:ctype.obj
 0003:00003124       __pwctype                  0046a124     LIBCMT:ctype.obj
 0003:00003128       __ctype                    0046a128     LIBCMT:ctype.obj
 0003:0000332c       ___mb_cur_max              0046a32c     LIBCMT:nlsdata1.obj
 0003:00003330       ___decimal_point           0046a330     LIBCMT:nlsdata1.obj
 0003:00003334       ___decimal_point_length    0046a334     LIBCMT:nlsdata1.obj
 0003:00003340       ___tlsindex                0046a340     LIBCMT:tidtable.obj
 0003:00003344       ?__pInconsistency@@3P6AXXZA 0046a344     LIBCMT:hooks.obj
 0003:00003348       ___nullstring              0046a348     LIBCMT:output.obj
 0003:0000334c       ___wnullstring             0046a34c     LIBCMT:output.obj
 0003:00003350       __XcptActTab               0046a350     LIBCMT:winxfltr.obj
 0003:000033c8       __First_FPE_Indx           0046a3c8     LIBCMT:winxfltr.obj
 0003:000033cc       __Num_FPE                  0046a3cc     LIBCMT:winxfltr.obj
 0003:000033d0       __XcptActTabSize           0046a3d0     LIBCMT:winxfltr.obj
 0003:000033d4       __XcptActTabCount          0046a3d4     LIBCMT:winxfltr.obj
 0003:000033d8       __amblksiz                 0046a3d8     LIBCMT:heapinit.obj
 0003:00003470       __locktable                0046a470     LIBCMT:mlock.obj
 0003:00003530       ___old_small_block_heap    0046a530     LIBCMT:sbheap.obj
 0003:00005554       ___old_sbh_threshold       0046c554     LIBCMT:sbheap.obj
 0003:00005560       ___rgLocInfo               0046c560     LIBCMT:getqloc.obj
 0003:00005a04       ___rglangidNotDefault      0046ca04     LIBCMT:getqloc.obj
 0003:00005a18       ___rg_country              0046ca18     LIBCMT:getqloc.obj
 0003:00005ad0       ___rg_language             0046cad0     LIBCMT:getqloc.obj
 0003:00005ce0       __cfltcvt_tab              0046cce0     LIBCMT:cmiscdat.obj
 0003:00005e60       __d_inf                    0046ce60     LIBCMT:util.obj
 0003:00005e68       __d_ind                    0046ce68     LIBCMT:util.obj
 0003:00005e70       __d_max                    0046ce70     LIBCMT:util.obj
 0003:00005e78       __d_min                    0046ce78     LIBCMT:util.obj
 0003:00005e80       __d_mzero                  0046ce80     LIBCMT:util.obj
 0003:00006070       ___lc_time_curr            0046d070     LIBCMT:strftime.obj
 0003:00006078       ___lc_time_c               0046d078     LIBCMT:strftime.obj
 0003:00006128       ___lconv_static_decimal    0046d128     LIBCMT:lconv.obj
 0003:00006130       ___lconv_c                 0046d130     LIBCMT:lconv.obj
 0003:00006160       ___lconv                   0046d160     LIBCMT:lconv.obj
 0003:000061a0       __matherr_flag             0046d1a0     LIBCMT:matherr.obj
 0003:000061a4       __timezone                 0046d1a4     LIBCMT:timeset.obj
 0003:000061a8       __daylight                 0046d1a8     LIBCMT:timeset.obj
 0003:000061ac       __dstbias                  0046d1ac     LIBCMT:timeset.obj
 0003:00006230       __tzname                   0046d230     LIBCMT:timeset.obj
 0003:00006254       __lpdays                   0046d254     LIBCMT:days.obj
 0003:00006288       __days                     0046d288     LIBCMT:days.obj
 0003:000062c0       __pow10pos                 0046d2c0     LIBCMT:constpow.obj
 0003:00006420       __pow10neg                 0046d420     LIBCMT:constpow.obj
 0003:00006580       ?g_nPort@@3HA              0046d580     GameServer.obj
 0003:00006584       ?ATL_CREATE_OBJECT@CComApartment@ATL@@2IA 0046d584     GameServer.obj
 0003:00006588       ?m_libid@CComModule@ATL@@2U_GUID@@A 0046d588     GameServer.obj
 0003:00006598       ?_pModule@ATL@@3PAVCComModule@1@A 0046d598     GameServer.obj
 0003:000065a0       ?g_SOServer@@3VKSwordOnLineSever@@A 0046d5a0     KSOServer.obj
 0003:00006678       ?m_theSend@@3VCPackager@Win32@OnlineGameLib@@A 0046d678     KSOServer.obj
 0003:000066f8       ?m_theRecv@@3VCPackager@Win32@OnlineGameLib@@A 0046d6f8     KSOServer.obj
 0003:00006778       ?g_csFlow@@3VCCriticalSection@Win32@OnlineGameLib@@A 0046d778     KSOServer.obj
 0003:00006790       ?g_SocketInit@@3VCUsesWinsock@Win32@OnlineGameLib@@A 0046d790     KSOServer.obj
 0003:00006920       ?g_theRainbowLibrary@@3VCLibrary@Win32@OnlineGameLib@@A 0046d920     KSOServer.obj
 0003:00006938       ?g_theHeavenLibrary@@3VCLibrary@Win32@OnlineGameLib@@A 0046d938     KSOServer.obj
 0003:00006b08       ?s_criticalSection@Win32@OnlineGameLib@@3VCCriticalSection@12@A 0046db08     Common:Utils.obj
 0003:00006b28       ??_C@_00A@?$AA@            0046db28     Common:Utils.obj
 0003:000070c0       ?_Stl_loc_classic_locale@_STL@@3Vlocale@1@A 0046e0c0     stlport_vc6_static:locale_impl.obj
 0003:00007598       ?_Stl_loc_global_impl@_STL@@3PAV_Locale_impl@1@A 0046e598     stlport_vc6_static:locale_impl.obj
 0003:0000759c       ?_Stl_loc_global_locale_lock@_STL@@3U_STLP_mutex_base@1@A 0046e59c     stlport_vc6_static:locale_impl.obj
 0003:000075a0       ?_S_count@_Loc_init@ios_base@_STL@@0JA 0046e5a0     stlport_vc6_static:locale_impl.obj
 0003:000075a4       ?_S_free_list@?$__node_alloc@$00$0A@@_STL@@0RCRAV_Node_alloc_obj@2@C 0046e5a4     stlport_vc6_static:locale_impl.obj
 0003:000075e4       ?_S_lock@?$_Node_Alloc_Lock@$00$0A@@_STL@@2U_STLP_mutex_base@2@A 0046e5e4     stlport_vc6_static:locale_impl.obj
 0003:000075e8       ?__last@?$_STLP_mutex_spin@$0A@@_STL@@2IA 0046e5e8     stlport_vc6_static:locale_impl.obj
 0003:000075ec       ?_S_heap_size@?$__node_alloc@$00$0A@@_STL@@0IA 0046e5ec     stlport_vc6_static:locale_impl.obj
 0003:000075f0       ?_S_end_free@?$__node_alloc@$00$0A@@_STL@@0PADA 0046e5f0     stlport_vc6_static:locale_impl.obj
 0003:000075f4       ?_S_start_free@?$__node_alloc@$00$0A@@_STL@@0PADA 0046e5f4     stlport_vc6_static:locale_impl.obj
 0003:000075f8       ?clog@_STL@@3V?$basic_ostream@DV?$char_traits@D@_STL@@@1@A 0046e5f8     stlport_vc6_static:iostream.obj
 0003:00007660       ?wcerr@_STL@@3V?$basic_ostream@GV?$char_traits@G@_STL@@@1@A 0046e660     stlport_vc6_static:iostream.obj
 0003:000076c8       ?cout@_STL@@3V?$basic_ostream@DV?$char_traits@D@_STL@@@1@A 0046e6c8     stlport_vc6_static:iostream.obj
 0003:00007730       ?cin@_STL@@3V?$basic_istream@DV?$char_traits@D@_STL@@@1@A 0046e730     stlport_vc6_static:iostream.obj
 0003:00007798       ?wclog@_STL@@3V?$basic_ostream@GV?$char_traits@G@_STL@@@1@A 0046e798     stlport_vc6_static:iostream.obj
 0003:00007800       ?wcin@_STL@@3V?$basic_istream@GV?$char_traits@G@_STL@@@1@A 0046e800     stlport_vc6_static:iostream.obj
 0003:00007868       ?cerr@_STL@@3V?$basic_ostream@DV?$char_traits@D@_STL@@@1@A 0046e868     stlport_vc6_static:iostream.obj
 0003:000078d0       ?wcout@_STL@@3V?$basic_ostream@GV?$char_traits@G@_STL@@@1@A 0046e8d0     stlport_vc6_static:iostream.obj
 0003:00007934       ?_S_count@Init@ios_base@_STL@@0JA 0046e934     stlport_vc6_static:iostream.obj
 0003:00007938       ?_S_index@ios_base@_STL@@0HA 0046e938     stlport_vc6_static:ios.obj
 0003:00007948       ?__oom_handler@?$__malloc_alloc@$0A@@_STL@@0P6AXXZA 0046e948     stlport_vc6_static:dll_main.obj
 0003:0000794c       ?_S_heap_size@?$__node_alloc@$0A@$0A@@_STL@@0IA 0046e94c     stlport_vc6_static:dll_main.obj
 0003:00007950       ?_S_end_free@?$__node_alloc@$0A@$0A@@_STL@@0PADA 0046e950     stlport_vc6_static:dll_main.obj
 0003:00007954       ?_S_start_free@?$__node_alloc@$0A@$0A@@_STL@@0PADA 0046e954     stlport_vc6_static:dll_main.obj
 0003:00007958       ?_S_free_list@?$__node_alloc@$0A@$0A@@_STL@@0RCRAV_Node_alloc_obj@2@C 0046e958     stlport_vc6_static:dll_main.obj
 0003:00007998       ?_S_lock@?$_Node_Alloc_Lock@$0A@$0A@@_STL@@2U_STLP_mutex_base@2@A 0046e998     stlport_vc6_static:dll_main.obj
 0003:000079a0       ?_M_truename@?$numpunct@G@_STL@@1V?$basic_string@GV?$char_traits@G@_STL@@V?$allocator@G@2@@2@A 0046e9a0     stlport_vc6_static:numpunct.obj
 0003:000079b0       ?_M_grouping@?$numpunct@G@_STL@@1V?$basic_string@DV?$char_traits@D@_STL@@V?$allocator@D@2@@2@A 0046e9b0     stlport_vc6_static:numpunct.obj
 0003:000079c0       ?_M_truename@?$numpunct@D@_STL@@2V?$basic_string@DV?$char_traits@D@_STL@@V?$allocator@D@2@@2@A 0046e9c0     stlport_vc6_static:numpunct.obj
 0003:000079d0       ?_M_falsename@?$numpunct@D@_STL@@2V?$basic_string@DV?$char_traits@D@_STL@@V?$allocator@D@2@@2@A 0046e9d0     stlport_vc6_static:numpunct.obj
 0003:000079e0       ?_M_falsename@?$numpunct@G@_STL@@1V?$basic_string@GV?$char_traits@G@_STL@@V?$allocator@G@2@@2@A 0046e9e0     stlport_vc6_static:numpunct.obj
 0003:000079f0       ?_M_grouping@?$numpunct@D@_STL@@2V?$basic_string@DV?$char_traits@D@_STL@@V?$allocator@D@2@@2@A 0046e9f0     stlport_vc6_static:numpunct.obj
 0003:00007a00       ?_S_empty_string@_STL@@3V?$basic_string@DV?$char_traits@D@_STL@@V?$allocator@D@2@@1@A 0046ea00     stlport_vc6_static:monetary.obj
 0003:00007a10       ?_S_empty_wstring@_STL@@3V?$basic_string@GV?$char_traits@G@_STL@@V?$allocator@G@2@@1@A 0046ea10     stlport_vc6_static:monetary.obj
 0003:00007a1c       ??_C@_11A@?$AA?$AA@        0046ea1c     stlport_vc6_static:monetary.obj
 0003:00007f8c       __aenvptr                  0046ef8c     LIBCMT:crt0.obj
 0003:00007f90       __wenvptr                  0046ef90     LIBCMT:crt0.obj
 0003:00007f94       ___error_mode              0046ef94     LIBCMT:crt0.obj
 0003:00007fa4       ___fastflag                0046efa4     LIBCMT:fpinit.obj
 0003:00007fa8       __adjust_fdiv              0046efa8     LIBCMT:fpinit.obj
 0003:00007fac       __cflush                   0046efac     LIBCMT:_file.obj
 0003:00007fb0       __umaskval                 0046efb0     LIBCMT:crt0dat.obj
 0003:00007fb4       __osver                    0046efb4     LIBCMT:crt0dat.obj
 0003:00007fb8       __winver                   0046efb8     LIBCMT:crt0dat.obj
 0003:00007fbc       __winmajor                 0046efbc     LIBCMT:crt0dat.obj
 0003:00007fc0       __winminor                 0046efc0     LIBCMT:crt0dat.obj
 0003:00007fc4       ___argc                    0046efc4     LIBCMT:crt0dat.obj
 0003:00007fc8       ___argv                    0046efc8     LIBCMT:crt0dat.obj
 0003:00007fcc       ___wargv                   0046efcc     LIBCMT:crt0dat.obj
 0003:00007fd0       __environ                  0046efd0     LIBCMT:crt0dat.obj
 0003:00007fd4       ___initenv                 0046efd4     LIBCMT:crt0dat.obj
 0003:00007fd8       __wenviron                 0046efd8     LIBCMT:crt0dat.obj
 0003:00007fdc       ___winitenv                0046efdc     LIBCMT:crt0dat.obj
 0003:00007fe0       __pgmptr                   0046efe0     LIBCMT:crt0dat.obj
 0003:00007fe4       __wpgmptr                  0046efe4     LIBCMT:crt0dat.obj
 0003:00007fe8       __exitflag                 0046efe8     LIBCMT:crt0dat.obj
 0003:00007fec       __C_Termination_Done       0046efec     LIBCMT:crt0dat.obj
 0003:00007ff0       __C_Exit_Done              0046eff0     LIBCMT:crt0dat.obj
 0003:00007ff4       __stdbuf                   0046eff4     LIBCMT:_sftbuf.obj
 0003:00008108       __adbgmsg                  0046f108     LIBCMT:crt0msg.obj
 0003:00008170       ___lc_handle               0046f170     LIBCMT:nlsdata2.obj
 0003:00008188       ___lc_codepage             0046f188     LIBCMT:nlsdata2.obj
 0003:0000818c       ___lc_collate_cp           0046f18c     LIBCMT:nlsdata2.obj
 0003:00008198       __newmode                  0046f198     LIBCMT:_newmode.obj
 0003:0000819c       ?_pnhHeap@@3P6AHI@ZA       0046f19c     LIBCMT:handler.obj
 0003:000081a0       ___lc_time_intl            0046f1a0     LIBCMT:inittime.obj
 0003:000081bc       ___lc_id                   0046f1bc     LIBCMT:nlsdata3.obj
 0003:0000821c       __commode                  0046f21c     LIBCMT:ncommode.obj
 0003:00008238       ___lconv_static_null       0046f238     LIBCMT:lconv.obj
 0003:00008240       __fmode                    0046f240     LIBCMT:txtmode.obj
 0003:00008310       ?id@?$num_put@DV?$ostreambuf_iterator@DV?$char_traits@D@_STL@@@_STL@@@_STL@@2V0locale@2@A 0046f310     <common>
 0003:00008314       ?id@?$money_get@DV?$istreambuf_iterator@DV?$char_traits@D@_STL@@@_STL@@@_STL@@2V0locale@2@A 0046f314     <common>
 0003:00008318       ?id@?$money_get@DPBD@_STL@@2V0locale@2@A 0046f318     <common>
 0003:0000831c       ?id@?$money_put@DV?$ostreambuf_iterator@DV?$char_traits@D@_STL@@@_STL@@@_STL@@2V0locale@2@A 0046f31c     <common>
 0003:00008320       ?id@?$money_put@DPAD@_STL@@2V0locale@2@A 0046f320     <common>
 0003:00008324       ?id@?$num_get@DV?$istreambuf_iterator@DV?$char_traits@D@_STL@@@_STL@@@_STL@@2V0locale@2@A 0046f324     <common>
 0003:00008328       ?id@?$num_get@DPBD@_STL@@2V0locale@2@A 0046f328     <common>
 0003:0000832c       ?id@?$num_put@DPAD@_STL@@2V0locale@2@A 0046f32c     <common>
 0003:00008330       ?id@?$time_get@DV?$istreambuf_iterator@DV?$char_traits@D@_STL@@@_STL@@@_STL@@2V0locale@2@A 0046f330     <common>
 0003:00008334       ?id@?$time_get@DPBD@_STL@@2V0locale@2@A 0046f334     <common>
 0003:00008338       ?id@?$time_put@DV?$ostreambuf_iterator@DV?$char_traits@D@_STL@@@_STL@@@_STL@@2V0locale@2@A 0046f338     <common>
 0003:0000833c       ?id@?$time_put@DPAD@_STL@@2V0locale@2@A 0046f33c     <common>
 0003:00008340       ?id@?$money_get@GV?$istreambuf_iterator@GV?$char_traits@G@_STL@@@_STL@@@_STL@@2V0locale@2@A 0046f340     <common>
 0003:00008344       ?id@?$money_get@GPBG@_STL@@2V0locale@2@A 0046f344     <common>
 0003:00008348       ?id@?$money_put@GV?$ostreambuf_iterator@GV?$char_traits@G@_STL@@@_STL@@@_STL@@2V0locale@2@A 0046f348     <common>
 0003:0000834c       ?id@?$money_put@GPAG@_STL@@2V0locale@2@A 0046f34c     <common>
 0003:00008350       ?id@?$num_get@GV?$istreambuf_iterator@GV?$char_traits@G@_STL@@@_STL@@@_STL@@2V0locale@2@A 0046f350     <common>
 0003:00008354       ?id@?$num_get@GPBG@_STL@@2V0locale@2@A 0046f354     <common>
 0003:00008358       ?id@?$num_put@GV?$ostreambuf_iterator@GV?$char_traits@G@_STL@@@_STL@@@_STL@@2V0locale@2@A 0046f358     <common>
 0003:0000835c       ?id@?$num_put@GPAG@_STL@@2V0locale@2@A 0046f35c     <common>
 0003:00008360       ?id@?$time_get@GV?$istreambuf_iterator@GV?$char_traits@G@_STL@@@_STL@@@_STL@@2V0locale@2@A 0046f360     <common>
 0003:00008364       ?id@?$time_get@GPBG@_STL@@2V0locale@2@A 0046f364     <common>
 0003:00008368       ?id@?$time_put@GV?$ostreambuf_iterator@GV?$char_traits@G@_STL@@@_STL@@@_STL@@2V0locale@2@A 0046f368     <common>
 0003:0000836c       ?id@?$time_put@GPAG@_STL@@2V0locale@2@A 0046f36c     <common>
 0003:00008370       ___alternate_form          0046f370     <common>
 0003:00008374       ___no_lead_zeros           0046f374     <common>
 0003:00008378       ___mbcodepage              0046f378     <common>
 0003:00008380       ___mbulinfo                0046f380     <common>
 0003:0000838c       ___ismbcodepage            0046f38c     <common>
 0003:000083a0       __mbcasemap                0046f3a0     <common>
 0003:000084a0       __mbctype                  0046f4a0     <common>
 0003:000085a4       ___mblcid                  0046f5a4     <common>
 0003:000085a8       ___sbh_sizeHeaderList      0046f5a8     <common>
 0003:000085ac       ___sbh_indGroupDefer       0046f5ac     <common>
 0003:000085b0       ___sbh_pHeaderScan         0046f5b0     <common>
 0003:000085b4       ___sbh_initialized         0046f5b4     <common>
 0003:000085b8       ___sbh_pHeaderDefer        0046f5b8     <common>
 0003:000085bc       ___sbh_cntHeaderList       0046f5bc     <common>
 0003:000085c0       ___sbh_pHeaderList         0046f5c0     <common>
 0003:000085c4       ___sbh_threshold           0046f5c4     <common>
 0003:000085c8       __crtheap                  0046f5c8     <common>
 0003:000085cc       ___active_heap             0046f5cc     <common>
 0003:000085d0       ___env_initialized         0046f5d0     <common>
 0003:000085d4       ___mbctype_initialized     0046f5d4     <common>
 0003:000085d8       ___onexitend               0046f5d8     <common>
 0003:000085dc       ___onexitbegin             0046f5dc     <common>
 0003:000085e0       ___pioinfo                 0046f5e0     <common>
 0003:000086e0       __nhandle                  0046f6e0     <common>
 0003:000086e4       ___piob                    0046f6e4     <common>
 0003:00008700       __bufin                    0046f700     <common>
 0003:00009700       __nstream                  00470700     <common>
 0003:00009704       ___setlc_active            00470704     <common>
 0003:00009708       ___unguarded_readlc_active 00470708     <common>
 0003:0000970c       __acmdln                   0047070c     <common>

 entry point at        0001:00048119

 Static symbols

 0001:00000050       _$E35                      00401050 f   KSOServer.obj
 0001:00000060       _$E32                      00401060 f   KSOServer.obj
 0001:00000070       _$E34                      00401070 f   KSOServer.obj
 0001:00000080       _$E33                      00401080 f   KSOServer.obj
 0001:00000090       _$E40                      00401090 f   KSOServer.obj
 0001:000000a0       _$E37                      004010a0 f   KSOServer.obj
 0001:000000b0       _$E39                      004010b0 f   KSOServer.obj
 0001:000000c0       _$E38                      004010c0 f   KSOServer.obj
 0001:000000d0       _$E49                      004010d0 f   KSOServer.obj
 0001:000000e0       _$E46                      004010e0 f   KSOServer.obj
 0001:000000f0       _$E48                      004010f0 f   KSOServer.obj
 0001:00000100       _$E47                      00401100 f   KSOServer.obj
 0001:00000110       _$E54                      00401110 f   KSOServer.obj
 0001:00000120       _$E51                      00401120 f   KSOServer.obj
 0001:00000130       _$E53                      00401130 f   KSOServer.obj
 0001:00000140       _$E52                      00401140 f   KSOServer.obj
 0001:00000150       _$E59                      00401150 f   KSOServer.obj
 0001:00000160       _$E56                      00401160 f   KSOServer.obj
 0001:00000170       _$E58                      00401170 f   KSOServer.obj
 0001:00000180       _$E57                      00401180 f   KSOServer.obj
 0001:00000190       _$E64                      00401190 f   KSOServer.obj
 0001:000001a0       _$E61                      004011a0 f   KSOServer.obj
 0001:000001b0       _$E63                      004011b0 f   KSOServer.obj
 0001:000001c0       _$E62                      004011c0 f   KSOServer.obj
 0001:000001d0       _$E69                      004011d0 f   KSOServer.obj
 0001:000001e0       _$E66                      004011e0 f   KSOServer.obj
 0001:00000200       _$E68                      00401200 f   KSOServer.obj
 0001:00000210       _$E67                      00401210 f   KSOServer.obj
 0001:00000220       _$E74                      00401220 f   KSOServer.obj
 0001:00000230       _$E71                      00401230 f   KSOServer.obj
 0001:00000250       _$E73                      00401250 f   KSOServer.obj
 0001:00000260       _$E72                      00401260 f   KSOServer.obj
 0001:00000270       _$E79                      00401270 f   KSOServer.obj
 0001:00000280       _$E76                      00401280 f   KSOServer.obj
 0001:00000290       _$E78                      00401290 f   KSOServer.obj
 0001:000002a0       _$E77                      004012a0 f   KSOServer.obj
 0001:000098f0       _$E35                      0040a8f0 f   Common:Utils.obj
 0001:00009900       _$E32                      0040a900 f   Common:Utils.obj
 0001:00009910       _$E34                      0040a910 f   Common:Utils.obj
 0001:00009920       _$E33                      0040a920 f   Common:Utils.obj
 0001:00009930       _$E40                      0040a930 f   Common:Utils.obj
 0001:00009940       _$E37                      0040a940 f   Common:Utils.obj
 0001:00009950       _$E39                      0040a950 f   Common:Utils.obj
 0001:00009960       _$E38                      0040a960 f   Common:Utils.obj
 0001:00009970       _$E48                      0040a970 f   Common:Utils.obj
 0001:00009980       _$E45                      0040a980 f   Common:Utils.obj
 0001:00009990       _$E47                      0040a990 f   Common:Utils.obj
 0001:000099a0       _$E46                      0040a9a0 f   Common:Utils.obj
 0001:000099b0       _$E53                      0040a9b0 f   Common:Utils.obj
 0001:000099c0       _$E50                      0040a9c0 f   Common:Utils.obj
 0001:000099d0       _$E52                      0040a9d0 f   Common:Utils.obj
 0001:000099e0       _$E51                      0040a9e0 f   Common:Utils.obj
 0001:00009a00       _$E58                      0040aa00 f   Common:Utils.obj
 0001:00009a10       _$E55                      0040aa10 f   Common:Utils.obj
 0001:00009af0       _$E57                      0040aaf0 f   Common:Utils.obj
 0001:00009b00       _$E56                      0040ab00 f   Common:Utils.obj
 0001:0000a600       _$E61                      0040b600 f   Common:Utils.obj
 0001:0000ae70       _$E63                      0040be70 f   Common:Utils.obj
 0001:0000b0a0       _$E65                      0040c0a0 f   Common:Utils.obj
 0001:0000b2d0       _$E67                      0040c2d0 f   Common:Utils.obj
 0001:0000b6e0       _$E69                      0040c6e0 f   Common:Utils.obj
 0001:00045480       _my_ltoa                   00446480 f   stlport_vc6_static:c_locale.obj
 0001:000462b0       ___mbtowc                  004472b0 f   stlport_vc6_static:c_locale.obj
 0001:00046340       ___isleadbyte              00447340 f   stlport_vc6_static:c_locale.obj
 0001:00046f30       ___FixGrouping             00447f30 f   stlport_vc6_static:c_locale.obj
 0001:00046f70       ___GetLCIDFromName         00447f70 f   stlport_vc6_static:c_locale.obj
 0001:00047120       ___ConvertName             00448120 f   stlport_vc6_static:c_locale.obj
 0001:00047180       ___ParseLocaleString       00448180 f   stlport_vc6_static:c_locale.obj
 0001:000472a0       ___GetLCID                 004482a0 f   stlport_vc6_static:c_locale.obj
 0001:000472f0       _EnumLocalesProcA@4        004482f0 f   stlport_vc6_static:c_locale.obj
 0001:000473f0       _LocaleFromHex             004483f0 f   stlport_vc6_static:c_locale.obj
 0001:00047440       ___GetLocaleName           00448440 f   stlport_vc6_static:c_locale.obj
 0001:00047550       ___Extract_locale_name     00448550 f   stlport_vc6_static:c_locale.obj
 0001:00047600       ___TranslateToSystem       00448600 f   stlport_vc6_static:c_locale.obj
 0001:00047640       ___ConvertFromACP          00448640 f   stlport_vc6_static:c_locale.obj
 0001:000476b0       ___intGetACP               004486b0 f   stlport_vc6_static:c_locale.obj
 0001:000476e0       ___intGetOCP               004486e0 f   stlport_vc6_static:c_locale.obj
 0001:00047710       ___GetDefaultCP            00448710 f   stlport_vc6_static:c_locale.obj
 0001:00047730       ___ConvertToCP             00448730 f   stlport_vc6_static:c_locale.obj
 0001:0003ed70       _$E37                      0043fd70 f   stlport_vc6_static:monetary.obj
 0001:0003ed80       _$E34                      0043fd80 f   stlport_vc6_static:monetary.obj
 0001:0003ee60       _$E36                      0043fe60 f   stlport_vc6_static:monetary.obj
 0001:0003ee70       _$E35                      0043fe70 f   stlport_vc6_static:monetary.obj
 0001:0003ee80       _$E42                      0043fe80 f   stlport_vc6_static:monetary.obj
 0001:0003ee90       _$E39                      0043fe90 f   stlport_vc6_static:monetary.obj
 0001:0003ef70       _$E41                      0043ff70 f   stlport_vc6_static:monetary.obj
 0001:0003ef80       _$E40                      0043ff80 f   stlport_vc6_static:monetary.obj
 0001:0003f000       ?_Init_monetary_formats@_STL@@YAXAAUpattern@money_base@1@0@Z 00440000 f   stlport_vc6_static:monetary.obj
 0001:0003dd20       _$E34                      0043ed20 f   stlport_vc6_static:numpunct.obj
 0001:0003dd30       _$E30                      0043ed30 f   stlport_vc6_static:numpunct.obj
 0001:0003de10       _$E33                      0043ee10 f   stlport_vc6_static:numpunct.obj
 0001:0003de20       _$E31                      0043ee20 f   stlport_vc6_static:numpunct.obj
 0001:0003de40       _$E39                      0043ee40 f   stlport_vc6_static:numpunct.obj
 0001:0003de50       _$E36                      0043ee50 f   stlport_vc6_static:numpunct.obj
 0001:0003df30       _$E38                      0043ef30 f   stlport_vc6_static:numpunct.obj
 0001:0003df40       _$E37                      0043ef40 f   stlport_vc6_static:numpunct.obj
 0001:0003df60       _$E44                      0043ef60 f   stlport_vc6_static:numpunct.obj
 0001:0003df70       _$E41                      0043ef70 f   stlport_vc6_static:numpunct.obj
 0001:0003e050       _$E43                      0043f050 f   stlport_vc6_static:numpunct.obj
 0001:0003e060       _$E42                      0043f060 f   stlport_vc6_static:numpunct.obj
 0001:0003e340       _$E50                      0043f340 f   stlport_vc6_static:numpunct.obj
 0001:0003e350       _$E46                      0043f350 f   stlport_vc6_static:numpunct.obj
 0001:0003e430       _$E49                      0043f430 f   stlport_vc6_static:numpunct.obj
 0001:0003e440       _$E47                      0043f440 f   stlport_vc6_static:numpunct.obj
 0001:0003e460       _$E55                      0043f460 f   stlport_vc6_static:numpunct.obj
 0001:0003e470       _$E52                      0043f470 f   stlport_vc6_static:numpunct.obj
 0001:0003e550       _$E54                      0043f550 f   stlport_vc6_static:numpunct.obj
 0001:0003e560       _$E53                      0043f560 f   stlport_vc6_static:numpunct.obj
 0001:0003e580       _$E60                      0043f580 f   stlport_vc6_static:numpunct.obj
 0001:0003e590       _$E57                      0043f590 f   stlport_vc6_static:numpunct.obj
 0001:0003e670       _$E59                      0043f670 f   stlport_vc6_static:numpunct.obj
 0001:0003e680       _$E58                      0043f680 f   stlport_vc6_static:numpunct.obj
 0001:00036880       _$E36                      00437880 f   stlport_vc6_static:fstream.obj
 0001:00036890       _$E33                      00437890 f   stlport_vc6_static:fstream.obj
 0001:000368a0       _$E35                      004378a0 f   stlport_vc6_static:fstream.obj
 0001:000368b0       _$E34                      004378b0 f   stlport_vc6_static:fstream.obj
 0001:00020d50       _$E36                      00421d50 f   stlport_vc6_static:iostream.obj
 0001:00020d60       _$E33                      00421d60 f   stlport_vc6_static:iostream.obj
 0001:00020d70       _$E35                      00421d70 f   stlport_vc6_static:iostream.obj
 0001:00020d80       _$E34                      00421d80 f   stlport_vc6_static:iostream.obj
 0001:00020da0       _$E41                      00421da0 f   stlport_vc6_static:iostream.obj
 0001:00020db0       _$E38                      00421db0 f   stlport_vc6_static:iostream.obj
 0001:00020dc0       _$E40                      00421dc0 f   stlport_vc6_static:iostream.obj
 0001:00020dd0       _$E39                      00421dd0 f   stlport_vc6_static:iostream.obj
 0001:00020df0       _$E46                      00421df0 f   stlport_vc6_static:iostream.obj
 0001:00020e00       _$E43                      00421e00 f   stlport_vc6_static:iostream.obj
 0001:00020e10       _$E45                      00421e10 f   stlport_vc6_static:iostream.obj
 0001:00020e20       _$E44                      00421e20 f   stlport_vc6_static:iostream.obj
 0001:00020e40       _$E51                      00421e40 f   stlport_vc6_static:iostream.obj
 0001:00020e50       _$E48                      00421e50 f   stlport_vc6_static:iostream.obj
 0001:00020e60       _$E50                      00421e60 f   stlport_vc6_static:iostream.obj
 0001:00020e70       _$E49                      00421e70 f   stlport_vc6_static:iostream.obj
 0001:00020e90       _$E56                      00421e90 f   stlport_vc6_static:iostream.obj
 0001:00020ea0       _$E53                      00421ea0 f   stlport_vc6_static:iostream.obj
 0001:00020eb0       _$E55                      00421eb0 f   stlport_vc6_static:iostream.obj
 0001:00020ec0       _$E54                      00421ec0 f   stlport_vc6_static:iostream.obj
 0001:00020ee0       _$E61                      00421ee0 f   stlport_vc6_static:iostream.obj
 0001:00020ef0       _$E58                      00421ef0 f   stlport_vc6_static:iostream.obj
 0001:00020f00       _$E60                      00421f00 f   stlport_vc6_static:iostream.obj
 0001:00020f10       _$E59                      00421f10 f   stlport_vc6_static:iostream.obj
 0001:00020f30       _$E66                      00421f30 f   stlport_vc6_static:iostream.obj
 0001:00020f40       _$E63                      00421f40 f   stlport_vc6_static:iostream.obj
 0001:00020f50       _$E65                      00421f50 f   stlport_vc6_static:iostream.obj
 0001:00020f60       _$E64                      00421f60 f   stlport_vc6_static:iostream.obj
 0001:00020f80       _$E71                      00421f80 f   stlport_vc6_static:iostream.obj
 0001:00020f90       _$E68                      00421f90 f   stlport_vc6_static:iostream.obj
 0001:00020fa0       _$E70                      00421fa0 f   stlport_vc6_static:iostream.obj
 0001:00020fb0       _$E69                      00421fb0 f   stlport_vc6_static:iostream.obj
 0001:0000de40       _$E43                      0040ee40 f   stlport_vc6_static:locale_impl.obj
 0001:0000de50       _$E40                      0040ee50 f   stlport_vc6_static:locale_impl.obj
 0001:0000de60       _$E42                      0040ee60 f   stlport_vc6_static:locale_impl.obj
 0001:0000de70       _$E41                      0040ee70 f   stlport_vc6_static:locale_impl.obj
 0001:0000e1d0       _$E72                      0040f1d0 f   stlport_vc6_static:locale_impl.obj
 0001:0000e1e0       _$E69                      0040f1e0 f   stlport_vc6_static:locale_impl.obj
 0001:0000e1f0       _$E71                      0040f1f0 f   stlport_vc6_static:locale_impl.obj
 0001:0000e200       _$E70                      0040f200 f   stlport_vc6_static:locale_impl.obj
 0001:0000e860       _$E77                      0040f860 f   stlport_vc6_static:locale_impl.obj
 0001:0000e870       _$E74                      0040f870 f   stlport_vc6_static:locale_impl.obj
 0001:0000e880       _$E76                      0040f880 f   stlport_vc6_static:locale_impl.obj
 0001:0000e890       _$E75                      0040f890 f   stlport_vc6_static:locale_impl.obj
 0001:0000eae0       ?_Stl_loc_assign_ids@_STL@@YAXXZ 0040fae0 f   stlport_vc6_static:locale_impl.obj
 0001:0000edb0       _$E82                      0040fdb0 f   stlport_vc6_static:locale_impl.obj
 0001:0000edc0       _$E79                      0040fdc0 f   stlport_vc6_static:locale_impl.obj
 0001:0000eea0       _$E81                      0040fea0 f   stlport_vc6_static:locale_impl.obj
 0001:0000eeb0       _$E80                      0040feb0 f   stlport_vc6_static:locale_impl.obj
 0001:000574bc       _findenv                   004584bc f   LIBCMT:setenv.obj
 0001:00057514       _copy_environ              00458514 f   LIBCMT:setenv.obj
 0001:0005730a       _strncnt                   0045830a f   LIBCMT:a_cmp.obj
 0001:00055d79       __tzset_lk                 00456d79 f   LIBCMT:tzset.obj
 0001:00056021       __isindst_lk               00457021 f   LIBCMT:tzset.obj
 0001:000561cd       _cvtdate                   004571cd f   LIBCMT:tzset.obj
 0001:00054ebe       __abstract_cw              00455ebe f   LIBCMT:ieee87.obj
 0001:00054f50       __hw_cw                    00455f50 f   LIBCMT:ieee87.obj
 0001:00054fd9       __abstract_sw              00455fd9 f   LIBCMT:ieee87.obj
 0001:00054add       _xtoa                      00455add f   LIBCMT:xtoa.obj
 0001:00054baf       _x64toa@20                 00455baf f   LIBCMT:xtoa.obj
 0001:00053fd1       __expandtime               00454fd1 f   LIBCMT:strftime.obj
 0001:000543c0       __store_str                004553c0 f   LIBCMT:strftime.obj
 0001:000543e7       __store_num                004553e7 f   LIBCMT:strftime.obj
 0001:00054456       __store_number             00455456 f   LIBCMT:strftime.obj
 0001:0005449f       __store_winword            0045549f f   LIBCMT:strftime.obj
 0001:000538c1       _strtoxl                   004548c1 f   LIBCMT:strtol.obj
 0001:00053653       _getSystemCP               00454653 f   LIBCMT:mbctype.obj
 0001:0005369d       _CPtoLCID                  0045469d f   LIBCMT:mbctype.obj
 0001:000536d0       _setSBCS                   004546d0 f   LIBCMT:mbctype.obj
 0001:000536f9       _setSBUpLow                004546f9 f   LIBCMT:mbctype.obj
 0001:000527c8       __get_fname                004537c8 f   LIBCMT:fpexcept.obj
 0001:00051a17       _ctrlevent_capture@4       00452a17 f   LIBCMT:winsig.obj
 0001:00051bfb       _siglookup                 00452bfb f   LIBCMT:winsig.obj
 0001:00051410       __cftoe2                   00452410 f   LIBCMT:cvt.obj
 0001:00051527       __cftof2                   00452527 f   LIBCMT:cvt.obj
 0001:000516b2       __shift                    004526b2 f   LIBCMT:cvt.obj
 0001:00050aa7       _TranslateName             00451aa7 f   LIBCMT:getqloc.obj
 0001:00050aff       _GetLcidFromLangCountry    00451aff f   LIBCMT:getqloc.obj
 0001:00050b86       _LangCountryEnumProc@4     00451b86 f   LIBCMT:getqloc.obj
 0001:00050d8a       _GetLcidFromLanguage       00451d8a f   LIBCMT:getqloc.obj
 0001:00050de0       _LanguageEnumProc@4        00451de0 f   LIBCMT:getqloc.obj
 0001:00050e9d       _GetLcidFromCountry        00451e9d f   LIBCMT:getqloc.obj
 0001:00050ed4       _CountryEnumProc@4         00451ed4 f   LIBCMT:getqloc.obj
 0001:00050f5a       _GetLcidFromDefault        00451f5a f   LIBCMT:getqloc.obj
 0001:00050f74       _ProcessCodePage           00451f74 f   LIBCMT:getqloc.obj
 0001:00050fda       _TestDefaultCountry        00451fda f   LIBCMT:getqloc.obj
 0001:00050ff9       _TestDefaultLanguage       00451ff9 f   LIBCMT:getqloc.obj
 0001:0005105b       _IsThisWindowsNT           0045205b f   LIBCMT:getqloc.obj
 0001:00051091       _crtGetLocaleInfoA@16      00452091 f   LIBCMT:getqloc.obj
 0001:00051177       _LcidFromHexString         00452177 f   LIBCMT:getqloc.obj
 0001:000511b0       _GetPrimaryLen             004521b0 f   LIBCMT:getqloc.obj
 0001:000504c1       __get_lc_lconv             004514c1 f   LIBCMT:initmon.obj
 0001:000505e3       _fix_grouping              004515e3 f   LIBCMT:initmon.obj
 0001:0005061a       __free_lc_lconv            0045161a f   LIBCMT:initmon.obj
 0001:000503bf       _fix_grouping              004513bf f   LIBCMT:initnum.obj
 0001:0004fd0c       __get_lc_time              00450d0c f   LIBCMT:inittime.obj
 0001:0005005a       __free_lc_time             0045105a f   LIBCMT:inittime.obj
 0001:0004e238       _strncnt                   0044f238 f   LIBCMT:a_map.obj
 0001:0004d66b       _parse_cmdline             0044e66b f   LIBCMT:stdargv.obj
 0001:0004d4df       _xcptlookup                0044e4df f   LIBCMT:winxfltr.obj
 0001:0004ce40       LeadUp1                    0044de40 f   LIBCMT:memcpy.obj
 0001:0004ce6c       LeadUp2                    0044de6c f   LIBCMT:memcpy.obj
 0001:0004ce90       LeadUp3                    0044de90 f   LIBCMT:memcpy.obj
 0001:0004cf0f       UnwindUp0                  0044df0f f   LIBCMT:memcpy.obj
 0001:0004cefc       UnwindUp1                  0044defc f   LIBCMT:memcpy.obj
 0001:0004cef4       UnwindUp2                  0044def4 f   LIBCMT:memcpy.obj
 0001:0004ceec       UnwindUp3                  0044deec f   LIBCMT:memcpy.obj
 0001:0004cee4       UnwindUp4                  0044dee4 f   LIBCMT:memcpy.obj
 0001:0004cedc       UnwindUp5                  0044dedc f   LIBCMT:memcpy.obj
 0001:0004ced4       UnwindUp6                  0044ded4 f   LIBCMT:memcpy.obj
 0001:0004cecc       UnwindUp7                  0044decc f   LIBCMT:memcpy.obj
 0001:0004cf28       TrailUp0                   0044df28 f   LIBCMT:memcpy.obj
 0001:0004cf30       TrailUp1                   0044df30 f   LIBCMT:memcpy.obj
 0001:0004cf3c       TrailUp2                   0044df3c f   LIBCMT:memcpy.obj
 0001:0004cf50       TrailUp3                   0044df50 f   LIBCMT:memcpy.obj
 0001:0004cfc8       LeadDown1                  0044dfc8 f   LIBCMT:memcpy.obj
 0001:0004cfe8       LeadDown2                  0044dfe8 f   LIBCMT:memcpy.obj
 0001:0004d010       LeadDown3                  0044e010 f   LIBCMT:memcpy.obj
 0001:0004d064       UnwindDown7                0044e064 f   LIBCMT:memcpy.obj
 0001:0004d06c       UnwindDown6                0044e06c f   LIBCMT:memcpy.obj
 0001:0004d074       UnwindDown5                0044e074 f   LIBCMT:memcpy.obj
 0001:0004d07c       UnwindDown4                0044e07c f   LIBCMT:memcpy.obj
 0001:0004d084       UnwindDown3                0044e084 f   LIBCMT:memcpy.obj
 0001:0004d08c       UnwindDown2                0044e08c f   LIBCMT:memcpy.obj
 0001:0004d094       UnwindDown1                0044e094 f   LIBCMT:memcpy.obj
 0001:0004d0a7       UnwindDown0                0044e0a7 f   LIBCMT:memcpy.obj
 0001:0004d0c0       TrailDown0                 0044e0c0 f   LIBCMT:memcpy.obj
 0001:0004d0c8       TrailDown1                 0044e0c8 f   LIBCMT:memcpy.obj
 0001:0004d0d8       TrailDown2                 0044e0d8 f   LIBCMT:memcpy.obj
 0001:0004d0ec       TrailDown3                 0044e0ec f   LIBCMT:memcpy.obj
 0001:0004c8e8       _write_char                0044d8e8 f   LIBCMT:output.obj
 0001:0004c91d       _write_multi_char          0044d91d f   LIBCMT:output.obj
 0001:0004c94e       _write_string              0044d94e f   LIBCMT:output.obj
 0001:0004c986       _get_int_arg               0044d986 f   LIBCMT:output.obj
 0001:0004c993       _get_int64_arg             0044d993 f   LIBCMT:output.obj
 0001:0004c9a3       _get_short_arg             0044d9a3 f   LIBCMT:output.obj
 0001:0004b65c       ?FindHandler@@YAXPAUEHExceptionRecord@@PAUEHRegistrationNode@@PAU_CONTEXT@@PAXPBU_s_FuncInfo@@EH1@Z 0044c65c f   LIBCMT:frame.obj
 0001:0004b80f       ?FindHandlerForForeignException@@YAXPAUEHExceptionRecord@@PAUEHRegistrationNode@@PAU_CONTEXT@@PAXPBU_s_FuncInfo@@HH1@Z 0044c80f f   LIBCMT:frame.obj
 0001:0004b8b9       ?TypeMatch@@YAHPBU_s_HandlerType@@PBU_s_CatchableType@@PBU_s_ThrowInfo@@@Z 0044c8b9 f   LIBCMT:frame.obj
 0001:0004b9b4       ?FrameUnwindFilter@@YAHPAU_EXCEPTION_POINTERS@@@Z 0044c9b4 f   LIBCMT:frame.obj
 0001:0004b9ca       ?CatchIt@@YAXPAUEHExceptionRecord@@PAUEHRegistrationNode@@PAU_CONTEXT@@PAXPBU_s_FuncInfo@@PBU_s_HandlerType@@PBU_s_CatchableType@@PBU_s_TryBlockMapEntry@@H1E@Z 0044c9ca f   LIBCMT:frame.obj
 0001:0004ba45       ?CallCatchBlock@@YAPAXPAUEHExceptionRecord@@PAUEHRegistrationNode@@PAU_CONTEXT@@PBU_s_FuncInfo@@PAXHK@Z 0044ca45 f   LIBCMT:frame.obj
 0001:0004bb60       ?ExFilterRethrow@@YAHPAU_EXCEPTION_POINTERS@@@Z 0044cb60 f   LIBCMT:frame.obj
 0001:0004bb8a       ?BuildCatchObject@@YAXPAUEHExceptionRecord@@PAUEHRegistrationNode@@PBU_s_HandlerType@@PBU_s_CatchableType@@@Z 0044cb8a f   LIBCMT:frame.obj
 0001:0004bdb5       ?AdjustPointer@@YAPAXPAXABUPMD@@@Z 0044cdb5 f   LIBCMT:frame.obj
 0001:0004b402       _doexit                    0044c402 f   LIBCMT:crt0dat.obj
 0001:0004b4b9       __initterm                 0044c4b9 f   LIBCMT:crt0dat.obj
 0001:0004ac8a       _flsall                    0044bc8a f   LIBCMT:fflush.obj
 0001:0004962a       ?ArrayUnwindFilter@@YAHPAU_EXCEPTION_POINTERS@@@Z 0044a62a f   LIBCMT:ehvecdtr.obj
 0001:00049119       __setlocale_set_cat        0044a119 f   LIBCMT:setlocal.obj
 0001:00049234       __setlocale_get_all        0044a234 f   LIBCMT:setlocal.obj
 0001:000482d0       LeadUp1                    004492d0 f   LIBCMT:memmove.obj
 0001:000482fc       LeadUp2                    004492fc f   LIBCMT:memmove.obj
 0001:00048320       LeadUp3                    00449320 f   LIBCMT:memmove.obj
 0001:0004839f       UnwindUp0                  0044939f f   LIBCMT:memmove.obj
 0001:0004838c       UnwindUp1                  0044938c f   LIBCMT:memmove.obj
 0001:00048384       UnwindUp2                  00449384 f   LIBCMT:memmove.obj
 0001:0004837c       UnwindUp3                  0044937c f   LIBCMT:memmove.obj
 0001:00048374       UnwindUp4                  00449374 f   LIBCMT:memmove.obj
 0001:0004836c       UnwindUp5                  0044936c f   LIBCMT:memmove.obj
 0001:00048364       UnwindUp6                  00449364 f   LIBCMT:memmove.obj
 0001:0004835c       UnwindUp7                  0044935c f   LIBCMT:memmove.obj
 0001:000483b8       TrailUp0                   004493b8 f   LIBCMT:memmove.obj
 0001:000483c0       TrailUp1                   004493c0 f   LIBCMT:memmove.obj
 0001:000483cc       TrailUp2                   004493cc f   LIBCMT:memmove.obj
 0001:000483e0       TrailUp3                   004493e0 f   LIBCMT:memmove.obj
 0001:00048458       LeadDown1                  00449458 f   LIBCMT:memmove.obj
 0001:00048478       LeadDown2                  00449478 f   LIBCMT:memmove.obj
 0001:000484a0       LeadDown3                  004494a0 f   LIBCMT:memmove.obj
 0001:000484f4       UnwindDown7                004494f4 f   LIBCMT:memmove.obj
 0001:000484fc       UnwindDown6                004494fc f   LIBCMT:memmove.obj
 0001:00048504       UnwindDown5                00449504 f   LIBCMT:memmove.obj
 0001:0004850c       UnwindDown4                0044950c f   LIBCMT:memmove.obj
 0001:00048514       UnwindDown3                00449514 f   LIBCMT:memmove.obj
 0001:0004851c       UnwindDown2                0044951c f   LIBCMT:memmove.obj
 0001:00048524       UnwindDown1                00449524 f   LIBCMT:memmove.obj
 0001:00048537       UnwindDown0                00449537 f   LIBCMT:memmove.obj
 0001:00048550       TrailDown0                 00449550 f   LIBCMT:memmove.obj
 0001:00048558       TrailDown1                 00449558 f   LIBCMT:memmove.obj
 0001:00048568       TrailDown2                 00449568 f   LIBCMT:memmove.obj
 0001:0004857c       TrailDown3                 0044957c f   LIBCMT:memmove.obj
 0001:0004822e       _fast_error_exit           0044922e f   LIBCMT:crt0.obj
 0001:00047d30       _gu_return                 00448d30 f   LIBCMT:exsup.obj
 0001:00047d38       __unwind_handler           00448d38 f   LIBCMT:exsup.obj
 0001:00047b4b       ?CatchGuardHandler@@YA?AW4_EXCEPTION_DISPOSITION@@PAUEHExceptionRecord@@PAUCatchGuardRN@@PAX2@Z 00448b4b f   LIBCMT:trnsctrl.obj
 0001:00047c26       ?TranslatorGuardHandler@@YA?AW4_EXCEPTION_DISPOSITION@@PAUEHExceptionRecord@@PAUTranslatorGuardRN@@PAX2@Z 00448c26 f   LIBCMT:trnsctrl.obj
